                 U __assert_fail@@GLIBC_2.2.5
00000000007259c8 B __bss_start
                 U cos@@GLIBC_2.2.5
                 U __cxa_allocate_exception@@CXXABI_1.3
                 U __cxa_atexit@@GLIBC_2.2.5
                 U __cxa_begin_catch@@CXXABI_1.3
                 U __cxa_end_catch@@CXXABI_1.3
                 w __cxa_finalize@@GLIBC_2.2.5
                 U __cxa_free_exception@@CXXABI_1.3
                 U __cxa_pure_virtual@@CXXABI_1.3
                 U __cxa_rethrow@@CXXABI_1.3
                 U __cxa_throw_bad_array_new_length@@CXXABI_1.3.8
                 U __cxa_throw@@CXXABI_1.3
                 U __dynamic_cast@@CXXABI_1.3
00000000007259c8 D _edata
00000000007266b0 B _end
000000000042d23c T _fini
                 U floor@@GLIBC_2.2.5
                 U free@@GLIBC_2.2.5
                 w __gmon_start__
                 U __gxx_personality_v0@@CXXABI_1.3
0000000000305d98 T _init
                 w _ITM_deregisterTMCloneTable
                 w _ITM_registerTMCloneTable
                 w _Jv_RegisterClasses
                 U malloc@@GLIBC_2.2.5
                 U memcmp@@GLIBC_2.2.5
                 U memcpy@@GLIBC_2.14
                 U memmove@@GLIBC_2.2.5
                 U memset@@GLIBC_2.2.5
                 U pow@@GLIBC_2.2.5
                 w __pthread_key_create
                 U sin@@GLIBC_2.2.5
                 U sqrt@@GLIBC_2.2.5
                 U __stack_chk_fail@@GLIBC_2.4
                 U strcmp@@GLIBC_2.2.5
                 U _Unwind_Resume@@GCC_3.0
                 U vsnprintf@@GLIBC_2.2.5
                 U _ZdaPv@@GLIBCXX_3.4
                 U _ZdlPv@@GLIBCXX_3.4
0000000000336fef W _ZdlPvS_
00000000003eec38 T _ZN4towr10FlatGroundC1Ed
00000000003eec38 T _ZN4towr10FlatGroundC2Ed
00000000003efaf4 W _ZN4towr10FlatGroundD0Ev
00000000003efab2 W _ZN4towr10FlatGroundD1Ev
00000000003efab2 W _ZN4towr10FlatGroundD2Ev
000000000040c628 T _ZN4towr10NodeSpline11UpdateNodesEv
000000000040c4c4 T _ZN4towr10NodeSplineC1EPNS_14NodesVariablesERKSt6vectorIdSaIdEE
000000000040c4c4 T _ZN4towr10NodeSplineC2EPNS_14NodesVariablesERKSt6vectorIdSaIdEE
000000000040b0fa W _ZN4towr10NodeSplineD0Ev
000000000040b080 W _ZN4towr10NodeSplineD1Ev
000000000040b080 W _ZN4towr10NodeSplineD2Ev
000000000035791e T _ZN4towr10Parameters22OptimizePhaseDurationsEv
00000000003574e6 T _ZN4towr10ParametersC1Eb
00000000003574e6 T _ZN4towr10ParametersC2Eb
000000000035516e W _ZN4towr10ParametersD0Ev
00000000003550b0 W _ZN4towr10ParametersD1Ev
00000000003550b0 W _ZN4towr10ParametersD2Ev
000000000040929c W _ZN4towr10PolynomialaSERKS0_
00000000003fb8f8 T _ZN4towr10PolynomialC1Eii
0000000000409c48 W _ZN4towr10PolynomialC1ERKS0_
00000000003fb8f8 T _ZN4towr10PolynomialC2Eii
0000000000409c48 W _ZN4towr10PolynomialC2ERKS0_
00000000003fd3ee W _ZN4towr10PolynomialD0Ev
00000000003fd398 W _ZN4towr10PolynomialD1Ev
00000000003fd398 W _ZN4towr10PolynomialD2Ev
000000000037350a T _ZN4towr10RobotModelC1ENS0_5RobotE
000000000037350a T _ZN4towr10RobotModelC2ENS0_5RobotE
0000000000337e08 W _ZN4towr10RobotModelD1Ev
0000000000337e08 W _ZN4towr10RobotModelD2Ev
000000000040a976 T _ZN4towr11PhaseSpline25UpdatePolynomialDurationsEv
000000000040a770 T _ZN4towr11PhaseSplineC1ESt10shared_ptrINS_24NodesVariablesPhaseBasedEEPNS_14PhaseDurationsE
000000000040a770 T _ZN4towr11PhaseSplineC2ESt10shared_ptrINS_24NodesVariablesPhaseBasedEEPNS_14PhaseDurationsE
000000000040c492 W _ZN4towr11PhaseSplineD0Ev
000000000040c3f6 W _ZN4towr11PhaseSplineD1Ev
000000000040c3f6 W _ZN4towr11PhaseSplineD2Ev
0000000000380a8e T _ZN4towr12DynamicModel10SetCurrentERKN5Eigen6MatrixIdLi3ELi1ELi0ELi3ELi1EEES3_RKNS2_IdLi3ELi3ELi0ELi3ELi3EEES5_S5_RKSt6vectorIS3_SaIS3_EESD_
000000000038084a T _ZN4towr12DynamicModelC1Edi
000000000038084a T _ZN4towr12DynamicModelC2Edi
0000000000373e6e W _ZN4towr12DynamicModelD0Ev
0000000000373e14 W _ZN4towr12DynamicModelD1Ev
0000000000373e14 W _ZN4towr12DynamicModelD2Ev
0000000000338002 W _ZN4towr12SplineHolderaSEOS0_
000000000040d4ea T _ZN4towr12SplineHolderC1ESt10shared_ptrINS_14NodesVariablesEES3_RKSt6vectorIdSaIdEES4_IS1_INS_24NodesVariablesPhaseBasedEESaISA_EESC_S4_IS1_INS_14PhaseDurationsEESaISE_EEb
000000000040d4ea T _ZN4towr12SplineHolderC2ESt10shared_ptrINS_14NodesVariablesEES3_RKSt6vectorIdSaIdEES4_IS1_INS_24NodesVariablesPhaseBasedEESaISA_EESC_S4_IS1_INS_14PhaseDurationsEESaISE_EEb
0000000000337fa6 W _ZN4towr12SplineHolderD1Ev
0000000000337fa6 W _ZN4towr12SplineHolderD2Ev
00000000003dd9b2 T _ZN4towr13GaitGenerator17MakeGaitGeneratorEi
00000000003de1f6 T _ZN4towr13GaitGenerator8SetGaitsERKSt6vectorINS0_5GaitsESaIS2_EE
00000000003e493e W _ZN4towr13GaitGeneratorC1Ev
00000000003e493e W _ZN4towr13GaitGeneratorC2Ev
00000000003e49d6 W _ZN4towr13GaitGeneratorD0Ev
00000000003e4980 W _ZN4towr13GaitGeneratorD1Ev
00000000003e4980 W _ZN4towr13GaitGeneratorD2Ev
000000000040d2d0 T _ZN4towr13NodesObserverC1EPNS_14NodesVariablesE
000000000040d2d0 T _ZN4towr13NodesObserverC2EPNS_14NodesVariablesE
000000000040b05a W _ZN4towr13NodesObserverD0Ev
000000000040b024 W _ZN4towr13NodesObserverD1Ev
000000000040b024 W _ZN4towr13NodesObserverD2Ev
0000000000363509 T _ZN4towr14BuildPolyInfosEibi
0000000000411070 T _ZN4towr14EulerConverter24GetQuaternionBaseToWorldERKN5Eigen6MatrixIdLi3ELi1ELi0ELi3ELi1EEE
0000000000411298 T _ZN4towr14EulerConverter25GetAngularVelocityInWorldERKN5Eigen6MatrixIdLi3ELi1ELi0ELi3ELi1EEES5_
0000000000412f7e T _ZN4towr14EulerConverter28GetRotationMatrixBaseToWorldERKN5Eigen6MatrixIdLi3ELi1ELi0ELi3ELi1EEE
0000000000411432 T _ZN4towr14EulerConverter29GetAngularAccelerationInWorldENS_5StateE
00000000004122c2 T _ZN4towr14EulerConverter4GetMERKN5Eigen6MatrixIdLi3ELi1ELi0ELi3ELi1EEE
00000000004124d2 T _ZN4towr14EulerConverter7GetMdotERKN5Eigen6MatrixIdLi3ELi1ELi0ELi3ELi1EEES5_
00000000003beae4 W _ZN4towr14EulerConverteraSERKS0_
0000000000410e68 T _ZN4towr14EulerConverterC1ERKSt10shared_ptrINS_10NodeSplineEE
00000000003bea14 W _ZN4towr14EulerConverterC1Ev
0000000000410e68 T _ZN4towr14EulerConverterC2ERKSt10shared_ptrINS_10NodeSplineEE
00000000003bea14 W _ZN4towr14EulerConverterC2Ev
00000000003c07a2 W _ZN4towr14EulerConverterD0Ev
00000000003c074c W _ZN4towr14EulerConverterD1Ev
00000000003c074c W _ZN4towr14EulerConverterD2Ev
0000000000373a5e W _ZN4towr14KinematicModelC1Ei
0000000000373a5e W _ZN4towr14KinematicModelC2Ei
0000000000373b92 W _ZN4towr14KinematicModelD0Ev
0000000000373b4c W _ZN4towr14KinematicModelD1Ev
0000000000373b4c W _ZN4towr14KinematicModelD2Ev
00000000003336ea T _ZN4towr14NlpFormulation15GetVariableSetsERNS_12SplineHolderE
000000000033352e T _ZN4towr14NlpFormulationC1Ev
000000000033352e T _ZN4towr14NlpFormulationC2Ev
0000000000355022 W _ZN4towr14NlpFormulationD0Ev
0000000000354f84 W _ZN4towr14NlpFormulationD1Ev
0000000000354f84 W _ZN4towr14NlpFormulationD2Ev
000000000035aeee T _ZN4towr14NodesVariables11AddObserverEPNS_13NodesObserverE
000000000035acb6 T _ZN4towr14NodesVariables12SetVariablesERKN5Eigen6MatrixIdLin1ELi1ELi0ELin1ELi1EEE
000000000035b736 T _ZN4towr14NodesVariables13AddFinalBoundENS_2DxERKSt6vectorIiSaIiEERKN5Eigen6MatrixIdLin1ELi1ELi0ELin1ELi1EEE
000000000035b6fc T _ZN4towr14NodesVariables13AddStartBoundENS_2DxERKSt6vectorIiSaIiEERKN5Eigen6MatrixIdLin1ELi1ELi0ELin1ELi1EEE
000000000035b782 T _ZN4towr14NodesVariables13NodeValueInfoC1EiNS_2DxEi
0000000000362052 W _ZN4towr14NodesVariables13NodeValueInfoC1Ev
000000000035b782 T _ZN4towr14NodesVariables13NodeValueInfoC2EiNS_2DxEi
0000000000362052 W _ZN4towr14NodesVariables13NodeValueInfoC2Ev
000000000035b092 T _ZN4towr14NodesVariables24SetByLinearInterpolationERKN5Eigen6MatrixIdLin1ELi1ELi0ELin1ELi1EEES5_d
000000000035b54e T _ZN4towr14NodesVariables8AddBoundERKNS0_13NodeValueInfoEd
000000000035b452 T _ZN4towr14NodesVariables9AddBoundsEiNS_2DxERKSt6vectorIiSaIiEERKN5Eigen6MatrixIdLin1ELi1ELi0ELin1ELi1EEE
000000000035af18 T _ZN4towr14NodesVariables9GetNodeIdEiNS0_4SideE
000000000035a8e4 T _ZN4towr14NodesVariablesC1ERKNSt7__cxx1112basic_stringIcSt11char_traitsIcESaIcEEE
000000000035a8e4 T _ZN4towr14NodesVariablesC2ERKNSt7__cxx1112basic_stringIcSt11char_traitsIcESaIcEEE
000000000036202c W _ZN4towr14NodesVariablesD0Ev
0000000000361fba W _ZN4towr14NodesVariablesD1Ev
0000000000361fba W _ZN4towr14NodesVariablesD2Ev
000000000036acb6 T _ZN4towr14PhaseDurations11AddObserverEPNS_22PhaseDurationsObserverE
000000000036ae6e T _ZN4towr14PhaseDurations12SetVariablesERKN5Eigen6MatrixIdLin1ELi1ELi0ELin1ELi1EEE
000000000036aaf8 T _ZN4towr14PhaseDurationsC1EjRKSt6vectorIdSaIdEEbdd
000000000036aaf8 T _ZN4towr14PhaseDurationsC2EjRKSt6vectorIdSaIdEEbdd
0000000000373412 W _ZN4towr14PhaseDurationsD0Ev
00000000003733b0 W _ZN4towr14PhaseDurationsD1Ev
00000000003733b0 W _ZN4towr14PhaseDurationsD2Ev
00000000003d8ef4 W _ZN4towr14SoftConstraint12SetVariablesERKN5Eigen6MatrixIdLin1ELi1ELi0ELin1ELi1EEE
00000000003d860c T _ZN4towr14SoftConstraintC1ERKSt10shared_ptrIN5ifopt9ComponentEE
00000000003d860c T _ZN4towr14SoftConstraintC2ERKSt10shared_ptrIN5ifopt9ComponentEE
00000000003dd8ee W _ZN4towr14SoftConstraintD0Ev
00000000003dd87c W _ZN4towr14SoftConstraintD1Ev
00000000003dd87c W _ZN4towr14SoftConstraintD2Ev
00000000003b6090 T _ZN4towr15ForceConstraint30InitVariableDependedQuantitiesERKSt10shared_ptrIN5ifopt9CompositeEE
00000000003b5f14 T _ZN4towr15ForceConstraintC1ERKSt10shared_ptrINS_9HeightMapEEdj
00000000003b5f14 T _ZN4towr15ForceConstraintC2ERKSt10shared_ptrINS_9HeightMapEEdj
00000000003bc30a W _ZN4towr15ForceConstraintD0Ev
00000000003bc286 W _ZN4towr15ForceConstraintD1Ev
00000000003bc286 W _ZN4towr15ForceConstraintD2Ev
000000000037462e W _ZN4towr15HyqDynamicModelC1Ev
000000000037462e W _ZN4towr15HyqDynamicModelC2Ev
000000000037f1fa W _ZN4towr15HyqDynamicModelD0Ev
000000000037f1b8 W _ZN4towr15HyqDynamicModelD1Ev
000000000037f1b8 W _ZN4towr15HyqDynamicModelD2Ev
00000000003b130a T _ZN4towr15SwingConstraint30InitVariableDependedQuantitiesERKSt10shared_ptrIN5ifopt9CompositeEE
00000000003b11c6 T _ZN4towr15SwingConstraintC1ENSt7__cxx1112basic_stringIcSt11char_traitsIcESaIcEEE
00000000003b11c6 T _ZN4towr15SwingConstraintC2ENSt7__cxx1112basic_stringIcSt11char_traitsIcESaIcEEE
00000000003b5bf0 W _ZN4towr15SwingConstraintD0Ev
00000000003b5b7e W _ZN4towr15SwingConstraintD1Ev
00000000003b5b7e W _ZN4towr15SwingConstraintD2Ev
00000000003741ee W _ZN4towr17BipedDynamicModelC1Ev
00000000003741ee W _ZN4towr17BipedDynamicModelC2Ev
000000000037f2ca W _ZN4towr17BipedDynamicModelD0Ev
000000000037f288 W _ZN4towr17BipedDynamicModelD1Ev
000000000037f288 W _ZN4towr17BipedDynamicModelD2Ev
00000000003bd516 T _ZN4towr17DynamicConstraintC1ERKSt10shared_ptrINS_12DynamicModelEEddRKNS_12SplineHolderE
00000000003bd516 T _ZN4towr17DynamicConstraintC2ERKSt10shared_ptrINS_12DynamicModelEEddRKNS_12SplineHolderE
00000000003c0726 W _ZN4towr17DynamicConstraintD0Ev
00000000003c068e W _ZN4towr17DynamicConstraintD1Ev
00000000003c068e W _ZN4towr17DynamicConstraintD2Ev
000000000037427c W _ZN4towr17HyqKinematicModelC1Ev
000000000037427c W _ZN4towr17HyqKinematicModelC2Ev
000000000037f262 W _ZN4towr17HyqKinematicModelD0Ev
000000000037f220 W _ZN4towr17HyqKinematicModelD1Ev
000000000037f220 W _ZN4towr17HyqKinematicModelD2Ev
0000000000361b52 T _ZN4towr17NodesVariablesAllC1EiiNSt7__cxx1112basic_stringIcSt11char_traitsIcESaIcEEE
0000000000361b52 T _ZN4towr17NodesVariablesAllC2EiiNSt7__cxx1112basic_stringIcSt11char_traitsIcESaIcEEE
00000000003634ae W _ZN4towr17NodesVariablesAllD0Ev
000000000036346c W _ZN4towr17NodesVariablesAllD1Ev
000000000036346c W _ZN4towr17NodesVariablesAllD2Ev
00000000003afd9a T _ZN4towr17TerrainConstraint30InitVariableDependedQuantitiesERKSt10shared_ptrIN5ifopt9CompositeEE
00000000003afc2c T _ZN4towr17TerrainConstraintC1ERKSt10shared_ptrINS_9HeightMapEENSt7__cxx1112basic_stringIcSt11char_traitsIcESaIcEEE
00000000003afc2c T _ZN4towr17TerrainConstraintC2ERKSt10shared_ptrINS_9HeightMapEENSt7__cxx1112basic_stringIcSt11char_traitsIcESaIcEEE
00000000003b1052 W _ZN4towr17TerrainConstraintD0Ev
00000000003b0fd0 W _ZN4towr17TerrainConstraintD1Ev
00000000003b0fd0 W _ZN4towr17TerrainConstraintD2Ev
0000000000374a6e W _ZN4towr18AnymalDynamicModelC1Ev
0000000000374a6e W _ZN4towr18AnymalDynamicModelC2Ev
000000000037f12a W _ZN4towr18AnymalDynamicModelD0Ev
000000000037f0e8 W _ZN4towr18AnymalDynamicModelD1Ev
000000000037f0e8 W _ZN4towr18AnymalDynamicModelD2Ev
00000000003e7d4c T _ZN4towr18BipedGaitGenerator8SetComboENS_13GaitGenerator6CombosE
00000000003e79fe T _ZN4towr18BipedGaitGeneratorC1Ev
00000000003e79fe T _ZN4towr18BipedGaitGeneratorC2Ev
00000000003ea95c W _ZN4towr18BipedGaitGeneratorD0Ev
00000000003ea8d6 W _ZN4towr18BipedGaitGeneratorD1Ev
00000000003ea8d6 W _ZN4towr18BipedGaitGeneratorD2Ev
0000000000375948 W _ZN4towr18HexpodDynamicModelC1Ev
0000000000375948 W _ZN4towr18HexpodDynamicModelC2Ev
000000000037f05a W _ZN4towr18HexpodDynamicModelD0Ev
000000000037f018 W _ZN4towr18HexpodDynamicModelD1Ev
000000000037f018 W _ZN4towr18HexpodDynamicModelD2Ev
0000000000373f94 W _ZN4towr19BipedKinematicModelC1Ev
0000000000373f94 W _ZN4towr19BipedKinematicModelC2Ev
000000000037f332 W _ZN4towr19BipedKinematicModelD0Ev
000000000037f2f0 W _ZN4towr19BipedKinematicModelD1Ev
000000000037f2f0 W _ZN4towr19BipedKinematicModelD2Ev
0000000000373f0e W _ZN4towr19MonopedDynamicModelC1Ev
0000000000373f0e W _ZN4towr19MonopedDynamicModelC2Ev
000000000037f39a W _ZN4towr19MonopedDynamicModelD0Ev
000000000037f358 W _ZN4towr19MonopedDynamicModelD1Ev
000000000037f358 W _ZN4towr19MonopedDynamicModelD2Ev
00000000003d0942 T _ZN4towr19SplineAccConstraintC1ERKSt10shared_ptrINS_10NodeSplineEENSt7__cxx1112basic_stringIcSt11char_traitsIcESaIcEEE
00000000003d0942 T _ZN4towr19SplineAccConstraintC2ERKSt10shared_ptrINS_10NodeSplineEENSt7__cxx1112basic_stringIcSt11char_traitsIcESaIcEEE
00000000003d3332 W _ZN4towr19SplineAccConstraintD0Ev
00000000003d32c0 W _ZN4towr19SplineAccConstraintD1Ev
00000000003d32c0 W _ZN4towr19SplineAccConstraintD2Ev
00000000003746bc W _ZN4towr20AnymalKinematicModelC1Ev
00000000003746bc W _ZN4towr20AnymalKinematicModelC2Ev
000000000037f192 W _ZN4towr20AnymalKinematicModelD0Ev
000000000037f150 W _ZN4towr20AnymalKinematicModelD1Ev
000000000037f150 W _ZN4towr20AnymalKinematicModelD2Ev
00000000003acef8 T _ZN4towr20BaseMotionConstraintC1EddRKNS_12SplineHolderE
00000000003acef8 T _ZN4towr20BaseMotionConstraintC2EddRKNS_12SplineHolderE
00000000003afab8 W _ZN4towr20BaseMotionConstraintD0Ev
00000000003afa46 W _ZN4towr20BaseMotionConstraintD1Ev
00000000003afa46 W _ZN4towr20BaseMotionConstraintD2Ev
00000000003ee3f0 T _ZN4towr20HexapedGaitGenerator8SetComboENS_13GaitGenerator6CombosE
00000000003edf60 T _ZN4towr20HexapedGaitGeneratorC1Ev
00000000003edf60 T _ZN4towr20HexapedGaitGeneratorC2Ev
00000000003eebdc W _ZN4towr20HexapedGaitGeneratorD0Ev
00000000003eeb56 W _ZN4towr20HexapedGaitGeneratorD1Ev
00000000003eeb56 W _ZN4towr20HexapedGaitGeneratorD2Ev
0000000000374b74 W _ZN4towr20HexpodKinematicModelC1Ev
0000000000374b74 W _ZN4towr20HexpodKinematicModelC2Ev
000000000037f0c2 W _ZN4towr20HexpodKinematicModelD0Ev
000000000037f080 W _ZN4towr20HexpodKinematicModelD1Ev
000000000037f080 W _ZN4towr20HexpodKinematicModelD2Ev
00000000003e5ff2 T _ZN4towr20MonopedGaitGenerator8SetComboENS_13GaitGenerator6CombosE
00000000003e49fc W _ZN4towr20MonopedGaitGeneratorC1Ev
00000000003e49fc W _ZN4towr20MonopedGaitGeneratorC2Ev
00000000003e79d8 W _ZN4towr20MonopedGaitGeneratorD0Ev
00000000003e7976 W _ZN4towr20MonopedGaitGeneratorD1Ev
00000000003e7976 W _ZN4towr20MonopedGaitGeneratorD2Ev
0000000000373cb2 W _ZN4towr21MonopedKinematicModelC1Ev
0000000000373cb2 W _ZN4towr21MonopedKinematicModelC2Ev
000000000037f402 W _ZN4towr21MonopedKinematicModelD0Ev
000000000037f3c0 W _ZN4towr21MonopedKinematicModelD1Ev
000000000037f3c0 W _ZN4towr21MonopedKinematicModelD2Ev
00000000003644f8 T _ZN4towr21NodesVariablesEEForce31GetPhaseBasedEEParameterizationEv
0000000000364406 T _ZN4towr21NodesVariablesEEForceC1EibRKNSt7__cxx1112basic_stringIcSt11char_traitsIcESaIcEEEi
0000000000364406 T _ZN4towr21NodesVariablesEEForceC2EibRKNSt7__cxx1112basic_stringIcSt11char_traitsIcESaIcEEEi
000000000036a8ba W _ZN4towr21NodesVariablesEEForceD0Ev
000000000036a878 W _ZN4towr21NodesVariablesEEForceD1Ev
000000000036a878 W _ZN4towr21NodesVariablesEEForceD2Ev
00000000003fbeb2 T _ZN4towr22CubicHermitePolynomial11SetDurationEd
00000000003fbed0 T _ZN4towr22CubicHermitePolynomial11UpdateCoeffEv
00000000003fbe6c T _ZN4towr22CubicHermitePolynomial8SetNodesERKNS_4NodeES3_
00000000004092e8 W _ZN4towr22CubicHermitePolynomialaSERKS0_
00000000003fbdc6 T _ZN4towr22CubicHermitePolynomialC1Ei
0000000000409cc8 W _ZN4towr22CubicHermitePolynomialC1ERKS0_
00000000003fbdc6 T _ZN4towr22CubicHermitePolynomialC2Ei
0000000000409cc8 W _ZN4towr22CubicHermitePolynomialC2ERKS0_
0000000000407dac W _ZN4towr22CubicHermitePolynomialD0Ev
0000000000407d4a W _ZN4towr22CubicHermitePolynomialD1Ev
0000000000407d4a W _ZN4towr22CubicHermitePolynomialD2Ev
0000000000364126 T _ZN4towr22NodesVariablesEEMotion31GetPhaseBasedEEParameterizationEv
000000000036403a T _ZN4towr22NodesVariablesEEMotionC1EibRKNSt7__cxx1112basic_stringIcSt11char_traitsIcESaIcEEEi
000000000036403a T _ZN4towr22NodesVariablesEEMotionC2EibRKNSt7__cxx1112basic_stringIcSt11char_traitsIcESaIcEEEi
000000000036a922 W _ZN4towr22NodesVariablesEEMotionD0Ev
000000000036a8e0 W _ZN4towr22NodesVariablesEEMotionD1Ev
000000000036a8e0 W _ZN4towr22NodesVariablesEEMotionD2Ev
0000000000373bb8 W _ZN4towr22ParallelKinematicModelC1Ei
0000000000373bb8 W _ZN4towr22ParallelKinematicModelC2Ei
0000000000374b4e W _ZN4towr22ParallelKinematicModelD0Ev
0000000000374afc W _ZN4towr22ParallelKinematicModelD1Ev
0000000000374afc W _ZN4towr22ParallelKinematicModelD2Ev
000000000042d13a T _ZN4towr22PhaseDurationsObserverC1EPNS_14PhaseDurationsE
000000000042d13a T _ZN4towr22PhaseDurationsObserverC2EPNS_14PhaseDurationsE
000000000040b15c W _ZN4towr22PhaseDurationsObserverD0Ev
000000000040b126 W _ZN4towr22PhaseDurationsObserverD1Ev
000000000040b126 W _ZN4towr22PhaseDurationsObserverD2Ev
00000000003eb6fe T _ZN4towr22QuadrupedGaitGenerator8SetComboENS_13GaitGenerator6CombosE
00000000003ea982 T _ZN4towr22QuadrupedGaitGeneratorC1Ev
00000000003ea982 T _ZN4towr22QuadrupedGaitGeneratorC2Ev
00000000003edf3a W _ZN4towr22QuadrupedGaitGeneratorD0Ev
00000000003edddc W _ZN4towr22QuadrupedGaitGeneratorD1Ev
00000000003edddc W _ZN4towr22QuadrupedGaitGeneratorD2Ev
00000000003c0ac6 T _ZN4towr23RangeOfMotionConstraintC1ERKSt10shared_ptrINS_14KinematicModelEEddRKjRKNS_12SplineHolderE
00000000003c0ac6 T _ZN4towr23RangeOfMotionConstraintC2ERKSt10shared_ptrINS_14KinematicModelEEddRKjRKNS_12SplineHolderE
00000000003c72ce W _ZN4towr23RangeOfMotionConstraintD0Ev
00000000003c725a W _ZN4towr23RangeOfMotionConstraintD1Ev
00000000003c725a W _ZN4towr23RangeOfMotionConstraintD2Ev
0000000000383534 T _ZN4towr23SingleRigidBodyDynamicsC1Edddddddi
0000000000383614 T _ZN4towr23SingleRigidBodyDynamicsC1EdRKN5Eigen6MatrixIdLi3ELi3ELi0ELi3ELi3EEEi
0000000000383534 T _ZN4towr23SingleRigidBodyDynamicsC2Edddddddi
0000000000383614 T _ZN4towr23SingleRigidBodyDynamicsC2EdRKN5Eigen6MatrixIdLi3ELi3ELi0ELi3ELi3EEEi
0000000000373ee8 W _ZN4towr23SingleRigidBodyDynamicsD0Ev
0000000000373e94 W _ZN4towr23SingleRigidBodyDynamicsD1Ev
0000000000373e94 W _ZN4towr23SingleRigidBodyDynamicsD2Ev
00000000003bc6f4 T _ZN4towr23TotalDurationConstraint30InitVariableDependedQuantitiesERKSt10shared_ptrIN5ifopt9CompositeEE
00000000003bc5f8 T _ZN4towr23TotalDurationConstraintC1Edi
00000000003bc5f8 T _ZN4towr23TotalDurationConstraintC2Edi
00000000003bd1f2 W _ZN4towr23TotalDurationConstraintD0Ev
00000000003bd1a0 W _ZN4towr23TotalDurationConstraintD1Ev
00000000003bd1a0 W _ZN4towr23TotalDurationConstraintD2Ev
00000000003d3470 T _ZN4towr24LinearEqualityConstraintC1ERKN5Eigen6MatrixIdLin1ELin1ELi0ELin1ELin1EEERKNS2_IdLin1ELi1ELi0ELin1ELi1EEERKNSt7__cxx1112basic_stringIcSt11char_traitsIcESaIcEEE
00000000003d3470 T _ZN4towr24LinearEqualityConstraintC2ERKN5Eigen6MatrixIdLin1ELin1ELi0ELin1ELin1EEERKNS2_IdLin1ELi1ELi0ELin1ELi1EEERKNSt7__cxx1112basic_stringIcSt11char_traitsIcESaIcEEE
00000000003d74e2 W _ZN4towr24LinearEqualityConstraintD0Ev
00000000003d7470 W _ZN4towr24LinearEqualityConstraintD1Ev
00000000003d7470 W _ZN4towr24LinearEqualityConstraintD2Ev
0000000000363f76 T _ZN4towr24NodesVariablesPhaseBased20SetNumberOfVariablesEi
0000000000363f34 T _ZN4towr24NodesVariablesPhaseBased8PolyInfoC1Eiiib
0000000000363f34 T _ZN4towr24NodesVariablesPhaseBased8PolyInfoC2Eiiib
000000000036361a T _ZN4towr24NodesVariablesPhaseBasedC1EibRKNSt7__cxx1112basic_stringIcSt11char_traitsIcESaIcEEEi
000000000036361a T _ZN4towr24NodesVariablesPhaseBasedC2EibRKNSt7__cxx1112basic_stringIcSt11char_traitsIcESaIcEEEi
0000000000364944 W _ZN4towr24NodesVariablesPhaseBasedD0Ev
00000000003648e0 W _ZN4towr24NodesVariablesPhaseBasedD1Ev
00000000003648e0 W _ZN4towr24NodesVariablesPhaseBasedD2Ev
00000000003c75f2 T _ZN4towr27RangeOfElongationConstraintC1ERKSt10shared_ptrINS_14KinematicModelEEddRKjRKNS_12SplineHolderE
00000000003c75f2 T _ZN4towr27RangeOfElongationConstraintC2ERKSt10shared_ptrINS_14KinematicModelEEddRKjRKNS_12SplineHolderE
00000000003d0804 W _ZN4towr27RangeOfElongationConstraintD0Ev
00000000003d0790 W _ZN4towr27RangeOfElongationConstraintD1Ev
00000000003d0790 W _ZN4towr27RangeOfElongationConstraintD2Ev
00000000003ab95e T _ZN4towr28TimeDiscretizationConstraintC1EddNSt7__cxx1112basic_stringIcSt11char_traitsIcESaIcEEE
00000000003ababe T _ZN4towr28TimeDiscretizationConstraintC1ERKSt6vectorIdSaIdEENSt7__cxx1112basic_stringIcSt11char_traitsIcESaIcEEE
00000000003ab95e T _ZN4towr28TimeDiscretizationConstraintC2EddNSt7__cxx1112basic_stringIcSt11char_traitsIcESaIcEEE
00000000003ababe T _ZN4towr28TimeDiscretizationConstraintC2ERKSt6vectorIdSaIdEENSt7__cxx1112basic_stringIcSt11char_traitsIcESaIcEEE
00000000003adbec W _ZN4towr28TimeDiscretizationConstraintD0Ev
00000000003adb9a W _ZN4towr28TimeDiscretizationConstraintD1Ev
00000000003adb9a W _ZN4towr28TimeDiscretizationConstraintD2Ev
00000000003f8296 W _ZN4towr3GapC1Ev
00000000003f8296 W _ZN4towr3GapC2Ev
00000000003ef954 W _ZN4towr3GapD0Ev
00000000003ef912 W _ZN4towr3GapD1Ev
00000000003ef912 W _ZN4towr3GapD2Ev
00000000003fd446 W _ZN4towr4NodeaSERKS0_
00000000003374f4 W _ZN4towr4NodeC1Ei
000000000035de7e W _ZN4towr4NodeC1ERKS0_
00000000003374f4 W _ZN4towr4NodeC2Ei
000000000035de7e W _ZN4towr4NodeC2ERKS0_
000000000035508a W _ZN4towr4NodeD0Ev
0000000000355048 W _ZN4towr4NodeD1Ev
0000000000355048 W _ZN4towr4NodeD2Ev
00000000003f7df2 W _ZN4towr5BlockC1Ev
00000000003f7df2 W _ZN4towr5BlockC2Ev
00000000003efa8c W _ZN4towr5BlockD0Ev
00000000003efa4a W _ZN4towr5BlockD1Ev
00000000003efa4a W _ZN4towr5BlockD2Ev
0000000000383372 T _ZN4towr5CrossERKN5Eigen6MatrixIdLi3ELi1ELi0ELi3ELi1EEE
00000000003f8574 W _ZN4towr5SlopeC1Ev
00000000003f8574 W _ZN4towr5SlopeC2Ev
00000000003ef8ec W _ZN4towr5SlopeD0Ev
00000000003ef8aa W _ZN4towr5SlopeD1Ev
00000000003ef8aa W _ZN4towr5SlopeD2Ev
00000000003fb17a T _ZN4towr5State2atENS_2DxE
00000000003fd414 W _ZN4towr5StateaSERKS0_
00000000003fb012 T _ZN4towr5StateC1Eii
000000000035de3e W _ZN4towr5StateC1ERKS0_
00000000003fb012 T _ZN4towr5StateC2Eii
000000000035de3e W _ZN4towr5StateC2ERKS0_
00000000003374ce W _ZN4towr5StateD0Ev
0000000000337488 W _ZN4towr5StateD1Ev
0000000000337488 W _ZN4towr5StateD2Ev
0000000000407f7a T _ZN4towr6Spline12GetSegmentIDEdRKSt6vectorIdSaIdEE
00000000004082f0 T _ZN4towr6Spline21UpdatePolynomialCoeffEv
0000000000407dd2 T _ZN4towr6SplineC1ERKSt6vectorIdSaIdEEi
0000000000407dd2 T _ZN4towr6SplineC2ERKSt6vectorIdSaIdEEi
000000000040a632 W _ZN4towr6SplineD0Ev
000000000040a5ec W _ZN4towr6SplineD1Ev
000000000040a5ec W _ZN4towr6SplineD2Ev
00000000003f80f6 W _ZN4towr6StairsC1Ev
00000000003f80f6 W _ZN4towr6StairsC2Ev
00000000003ef9bc W _ZN4towr6StairsD0Ev
00000000003ef97a W _ZN4towr6StairsD1Ev
00000000003ef97a W _ZN4towr6StairsD2Ev
00000000003f873a W _ZN4towr7ChimneyC1Ev
00000000003f873a W _ZN4towr7ChimneyC2Ev
00000000003ef884 W _ZN4towr7ChimneyD0Ev
00000000003ef842 W _ZN4towr7ChimneyD1Ev
00000000003ef842 W _ZN4towr7ChimneyD2Ev
00000000003d78d2 T _ZN4towr8NodeCost30InitVariableDependedQuantitiesERKSt10shared_ptrIN5ifopt9CompositeEE
00000000003d7620 T _ZN4towr8NodeCostC1ERKNSt7__cxx1112basic_stringIcSt11char_traitsIcESaIcEEENS_2DxEid
00000000003d7620 T _ZN4towr8NodeCostC2ERKNSt7__cxx1112basic_stringIcSt11char_traitsIcESaIcEEENS_2DxEid
00000000003d84ce W _ZN4towr8NodeCostD0Ev
00000000003d846c W _ZN4towr8NodeCostD1Ev
00000000003d846c W _ZN4towr8NodeCostD2Ev
000000000033752e W _ZN4towr9BaseStateC1Ev
000000000033752e W _ZN4towr9BaseStateC2Ev
0000000000337d64 W _ZN4towr9BaseStateD1Ev
0000000000337d64 W _ZN4towr9BaseStateD2Ev
00000000003f88c2 W _ZN4towr9ChimneyLRC1Ev
00000000003f88c2 W _ZN4towr9ChimneyLRC2Ev
00000000003ef81c W _ZN4towr9ChimneyLRD0Ev
00000000003ef7da W _ZN4towr9ChimneyLRD1Ev
00000000003ef7da W _ZN4towr9ChimneyLRD2Ev
00000000003f7f7a W _ZN4towr9HalfBlockC1Ev
00000000003f7f7a W _ZN4towr9HalfBlockC2Ev
00000000003efa24 W _ZN4towr9HalfBlockD0Ev
00000000003ef9e2 W _ZN4towr9HalfBlockD1Ev
00000000003ef9e2 W _ZN4towr9HalfBlockD2Ev
00000000003efbec T _ZN4towr9HeightMap11MakeTerrainENS0_9TerrainIDE
00000000003ef750 W _ZN4towr9HeightMapC1Ev
00000000003ef750 W _ZN4towr9HeightMapC2Ev
00000000003ef7b4 W _ZN4towr9HeightMapD0Ev
00000000003ef77e W _ZN4towr9HeightMapD1Ev
00000000003ef77e W _ZN4towr9HeightMapD2Ev
00000000003f4148 W _ZN5Eigen10MatrixBaseINS_12CwiseUnaryOpINS_8internal14scalar_abs2_opIdEEKNS_6MatrixIdLi3ELi1ELi0ELi3ELi1EEEEEEC1Ev
00000000003f4148 W _ZN5Eigen10MatrixBaseINS_12CwiseUnaryOpINS_8internal14scalar_abs2_opIdEEKNS_6MatrixIdLi3ELi1ELi0ELi3ELi1EEEEEEC2Ev
000000000040132a W _ZN5Eigen10MatrixBaseINS_12CwiseUnaryOpINS_8internal18scalar_opposite_opIdEEKNS_13CwiseBinaryOpINS2_13scalar_sum_opIddEEKNS5_INS2_17scalar_product_opIddEEKNS_14CwiseNullaryOpINS2_18scalar_constant_opIdEEKNS_6MatrixIdLin1ELi1ELi0ELin1ELi1EEEEEKNS5_INS2_20scalar_difference_opIddEESF_SF_EEEEKNS5_IS9_SH_KNS5_IS7_KNS5_IS9_SH_SF_EESF_EEEEEEEEEC1Ev
000000000040132a W _ZN5Eigen10MatrixBaseINS_12CwiseUnaryOpINS_8internal18scalar_opposite_opIdEEKNS_13CwiseBinaryOpINS2_13scalar_sum_opIddEEKNS5_INS2_17scalar_product_opIddEEKNS_14CwiseNullaryOpINS2_18scalar_constant_opIdEEKNS_6MatrixIdLin1ELi1ELi0ELin1ELi1EEEEEKNS5_INS2_20scalar_difference_opIddEESF_SF_EEEEKNS5_IS9_SH_KNS5_IS7_KNS5_IS9_SH_SF_EESF_EEEEEEEEEC2Ev
00000000003cc154 W _ZN5Eigen10MatrixBaseINS_12CwiseUnaryOpINS_8internal18scalar_opposite_opIdEEKNS_6MatrixIdLi3ELi3ELi0ELi3ELi3EEEEEEC1Ev
00000000003cc154 W _ZN5Eigen10MatrixBaseINS_12CwiseUnaryOpINS_8internal18scalar_opposite_opIdEEKNS_6MatrixIdLi3ELi3ELi0ELi3ELi3EEEEEEC2Ev
00000000004012d2 W _ZN5Eigen10MatrixBaseINS_13CwiseBinaryOpINS_8internal13scalar_sum_opIddEEKNS1_INS2_17scalar_product_opIddEEKNS_14CwiseNullaryOpINS2_18scalar_constant_opIdEEKNS_6MatrixIdLin1ELi1ELi0ELin1ELi1EEEEEKNS1_INS2_20scalar_difference_opIddEESC_SC_EEEEKNS1_IS6_SE_KNS1_IS4_KNS1_IS6_SE_SC_EESC_EEEEEEEC1Ev
00000000004012d2 W _ZN5Eigen10MatrixBaseINS_13CwiseBinaryOpINS_8internal13scalar_sum_opIddEEKNS1_INS2_17scalar_product_opIddEEKNS_14CwiseNullaryOpINS2_18scalar_constant_opIdEEKNS_6MatrixIdLin1ELi1ELi0ELin1ELi1EEEEEKNS1_INS2_20scalar_difference_opIddEESC_SC_EEEEKNS1_IS6_SE_KNS1_IS4_KNS1_IS6_SE_SC_EESC_EEEEEEEC2Ev
0000000000401440 W _ZN5Eigen10MatrixBaseINS_13CwiseBinaryOpINS_8internal13scalar_sum_opIddEEKNS1_INS2_17scalar_product_opIddEEKNS_14CwiseNullaryOpINS2_18scalar_constant_opIdEEKNS_6MatrixIdLin1ELi1ELi0ELin1ELi1EEEEEKNS1_INS2_20scalar_difference_opIddEESC_SC_EEEEKNS1_IS6_SE_KNS1_IS4_SC_SC_EEEEEEEC1Ev
0000000000401440 W _ZN5Eigen10MatrixBaseINS_13CwiseBinaryOpINS_8internal13scalar_sum_opIddEEKNS1_INS2_17scalar_product_opIddEEKNS_14CwiseNullaryOpINS2_18scalar_constant_opIdEEKNS_6MatrixIdLin1ELi1ELi0ELin1ELi1EEEEEKNS1_INS2_20scalar_difference_opIddEESC_SC_EEEEKNS1_IS6_SE_KNS1_IS4_SC_SC_EEEEEEEC2Ev
000000000040129a W _ZN5Eigen10MatrixBaseINS_13CwiseBinaryOpINS_8internal13scalar_sum_opIddEEKNS1_INS2_17scalar_product_opIddEEKNS_14CwiseNullaryOpINS2_18scalar_constant_opIdEEKNS_6MatrixIdLin1ELi1ELi0ELin1ELi1EEEEESC_EESC_EEEC1Ev
000000000040129a W _ZN5Eigen10MatrixBaseINS_13CwiseBinaryOpINS_8internal13scalar_sum_opIddEEKNS1_INS2_17scalar_product_opIddEEKNS_14CwiseNullaryOpINS2_18scalar_constant_opIdEEKNS_6MatrixIdLin1ELi1ELi0ELin1ELi1EEEEESC_EESC_EEEC2Ev
00000000004015ca W _ZN5Eigen10MatrixBaseINS_13CwiseBinaryOpINS_8internal13scalar_sum_opIddEEKNS1_INS2_20scalar_difference_opIddEEKNS1_INS2_17scalar_product_opIddEEKNS_14CwiseNullaryOpINS2_18scalar_constant_opIdEEKNS_6MatrixIdLin1ELi1ELi0ELin1ELi1EEEEESE_EESI_EESI_EEEC1Ev
00000000004015ca W _ZN5Eigen10MatrixBaseINS_13CwiseBinaryOpINS_8internal13scalar_sum_opIddEEKNS1_INS2_20scalar_difference_opIddEEKNS1_INS2_17scalar_product_opIddEEKNS_14CwiseNullaryOpINS2_18scalar_constant_opIdEEKNS_6MatrixIdLin1ELi1ELi0ELin1ELi1EEEEESE_EESI_EESI_EEEC2Ev
0000000000401748 W _ZN5Eigen10MatrixBaseINS_13CwiseBinaryOpINS_8internal13scalar_sum_opIddEEKNS1_INS2_20scalar_difference_opIddEEKNS1_IS6_KNS1_INS2_18scalar_quotient_opIddEEKNS1_INS2_17scalar_product_opIddEEKNS_14CwiseNullaryOpINS2_18scalar_constant_opIdEEKNS_6MatrixIdLin1ELi1ELi0ELin1ELi1EEEEEKNS1_IS4_SG_SG_EEEESI_EEKNS1_IS8_KNS1_ISA_SI_KNS1_IS4_KNS1_ISA_SI_SG_EESG_EEEESI_EEEEKNS1_IS8_KNS1_ISA_SI_KNS1_IS4_KNS1_IS4_KNS1_IS6_SQ_SQ_EESQ_EESQ_EEEESI_EEEES18_EEEC1Ev
0000000000401748 W _ZN5Eigen10MatrixBaseINS_13CwiseBinaryOpINS_8internal13scalar_sum_opIddEEKNS1_INS2_20scalar_difference_opIddEEKNS1_IS6_KNS1_INS2_18scalar_quotient_opIddEEKNS1_INS2_17scalar_product_opIddEEKNS_14CwiseNullaryOpINS2_18scalar_constant_opIdEEKNS_6MatrixIdLin1ELi1ELi0ELin1ELi1EEEEEKNS1_IS4_SG_SG_EEEESI_EEKNS1_IS8_KNS1_ISA_SI_KNS1_IS4_KNS1_ISA_SI_SG_EESG_EEEESI_EEEEKNS1_IS8_KNS1_ISA_SI_KNS1_IS4_KNS1_IS4_KNS1_IS6_SQ_SQ_EESQ_EESQ_EEEESI_EEEES18_EEEC2Ev
0000000000401622 W _ZN5Eigen10MatrixBaseINS_13CwiseBinaryOpINS_8internal13scalar_sum_opIddEEKNS1_IS4_KNS1_INS2_20scalar_difference_opIddEEKNS1_INS2_17scalar_product_opIddEEKNS_14CwiseNullaryOpINS2_18scalar_constant_opIdEEKNS_6MatrixIdLin1ELi1ELi0ELin1ELi1EEEEESE_EESI_EESI_EESI_EEEC1Ev
0000000000401622 W _ZN5Eigen10MatrixBaseINS_13CwiseBinaryOpINS_8internal13scalar_sum_opIddEEKNS1_IS4_KNS1_INS2_20scalar_difference_opIddEEKNS1_INS2_17scalar_product_opIddEEKNS_14CwiseNullaryOpINS2_18scalar_constant_opIdEEKNS_6MatrixIdLin1ELi1ELi0ELin1ELi1EEEEESE_EESI_EESI_EESI_EEEC2Ev
00000000003b32ea W _ZN5Eigen10MatrixBaseINS_13CwiseBinaryOpINS_8internal13scalar_sum_opIddEEKNS_6MatrixIdLi2ELi1ELi0ELi2ELi1EEEKNS1_INS2_17scalar_product_opIddEEKNS_14CwiseNullaryOpINS2_18scalar_constant_opIdEES7_EES7_EEEEEC1Ev
00000000003b32ea W _ZN5Eigen10MatrixBaseINS_13CwiseBinaryOpINS_8internal13scalar_sum_opIddEEKNS_6MatrixIdLi2ELi1ELi0ELi2ELi1EEEKNS1_INS2_17scalar_product_opIddEEKNS_14CwiseNullaryOpINS2_18scalar_constant_opIdEES7_EES7_EEEEEC2Ev
00000000003b8ee6 W _ZN5Eigen10MatrixBaseINS_13CwiseBinaryOpINS_8internal13scalar_sum_opIddEEKNS_6MatrixIdLi3ELi1ELi0ELi3ELi1EEEKNS1_INS2_17scalar_product_opIddEEKNS_14CwiseNullaryOpINS2_18scalar_constant_opIdEES7_EES7_EEEEEC1Ev
00000000003b8ee6 W _ZN5Eigen10MatrixBaseINS_13CwiseBinaryOpINS_8internal13scalar_sum_opIddEEKNS_6MatrixIdLi3ELi1ELi0ELi3ELi1EEEKNS1_INS2_17scalar_product_opIddEEKNS_14CwiseNullaryOpINS2_18scalar_constant_opIdEES7_EES7_EEEEEC2Ev
000000000035e72c W _ZN5Eigen10MatrixBaseINS_13CwiseBinaryOpINS_8internal13scalar_sum_opIddEEKNS_6MatrixIdLin1ELi1ELi0ELin1ELi1EEEKNS1_INS2_17scalar_product_opIddEEKNS_14CwiseNullaryOpINS2_18scalar_constant_opIdEES7_EES7_EEEEEC1Ev
000000000035e72c W _ZN5Eigen10MatrixBaseINS_13CwiseBinaryOpINS_8internal13scalar_sum_opIddEEKNS_6MatrixIdLin1ELi1ELi0ELin1ELi1EEEKNS1_INS2_17scalar_product_opIddEEKNS_14CwiseNullaryOpINS2_18scalar_constant_opIdEES7_EES7_EEEEEC2Ev
0000000000340f42 W _ZN5Eigen10MatrixBaseINS_13CwiseBinaryOpINS_8internal13scalar_sum_opIddEEKNS_6MatrixIdLin1ELi1ELi0ELin1ELi1EEEKNS_7ProductINS5_IdLi3ELi3ELi0ELi3ELi3EEENS5_IdLi3ELi1ELi0ELi3ELi1EEELi0EEEEEEC1Ev
0000000000340f42 W _ZN5Eigen10MatrixBaseINS_13CwiseBinaryOpINS_8internal13scalar_sum_opIddEEKNS_6MatrixIdLin1ELi1ELi0ELin1ELi1EEEKNS_7ProductINS5_IdLi3ELi3ELi0ELi3ELi3EEENS5_IdLi3ELi1ELi0ELi3ELi1EEELi0EEEEEEC2Ev
0000000000401408 W _ZN5Eigen10MatrixBaseINS_13CwiseBinaryOpINS_8internal13scalar_sum_opIddEEKNS_6MatrixIdLin1ELi1ELi0ELin1ELi1EEES7_EEEC1Ev
0000000000401408 W _ZN5Eigen10MatrixBaseINS_13CwiseBinaryOpINS_8internal13scalar_sum_opIddEEKNS_6MatrixIdLin1ELi1ELi0ELin1ELi1EEES7_EEEC2Ev
000000000039024c W _ZN5Eigen10MatrixBaseINS_13CwiseBinaryOpINS_8internal13scalar_sum_opIddEEKNS_7ProductINS_12SparseMatrixIdLi1EiEENS_6MatrixIdLi3ELi1ELi0ELi3ELi1EEELi0EEEKNS5_IS7_SA_Li0EEEEEEC1Ev
000000000039024c W _ZN5Eigen10MatrixBaseINS_13CwiseBinaryOpINS_8internal13scalar_sum_opIddEEKNS_7ProductINS_12SparseMatrixIdLi1EiEENS_6MatrixIdLi3ELi1ELi0ELi3ELi1EEELi0EEEKNS5_IS7_SA_Li0EEEEEEC2Ev
000000000041fc30 W _ZN5Eigen10MatrixBaseINS_13CwiseBinaryOpINS_8internal13scalar_sum_opIddEEKNS_7ProductINS_12SparseMatrixIdLi1EiEENS_6MatrixIdLin1ELi1ELi0ELin1ELi1EEELi0EEESB_EEEC1Ev
000000000041fc30 W _ZN5Eigen10MatrixBaseINS_13CwiseBinaryOpINS_8internal13scalar_sum_opIddEEKNS_7ProductINS_12SparseMatrixIdLi1EiEENS_6MatrixIdLin1ELi1ELi0ELin1ELi1EEELi0EEESB_EEEC2Ev
00000000003a9fa0 W _ZN5Eigen10MatrixBaseINS_13CwiseBinaryOpINS_8internal17scalar_product_opIddEEKNS_14CwiseNullaryOpINS2_18scalar_constant_opIdEEKNS_6MatrixIdLi1ELi3ELi1ELi1ELi3EEEEEKNS_5BlockIKNS_9TransposeIKNS8_IdLi3ELi3ELi0ELi3ELi3EEEEELi1ELi3ELb1EEEEEEC1Ev
00000000003a9fa0 W _ZN5Eigen10MatrixBaseINS_13CwiseBinaryOpINS_8internal17scalar_product_opIddEEKNS_14CwiseNullaryOpINS2_18scalar_constant_opIdEEKNS_6MatrixIdLi1ELi3ELi1ELi1ELi3EEEEEKNS_5BlockIKNS_9TransposeIKNS8_IdLi3ELi3ELi0ELi3ELi3EEEEELi1ELi3ELb1EEEEEEC2Ev
00000000003da0a0 W _ZN5Eigen10MatrixBaseINS_13CwiseBinaryOpINS_8internal17scalar_product_opIddEEKNS_14CwiseNullaryOpINS2_18scalar_constant_opIdEEKNS_6MatrixIdLi1ELin1ELi1ELi1ELin1EEEEEKNS_9TransposeIKNS1_INS2_20scalar_difference_opIddEEKNS8_IdLin1ELi1ELi0ELin1ELi1EEESH_EEEEEEEC1Ev
00000000003da0a0 W _ZN5Eigen10MatrixBaseINS_13CwiseBinaryOpINS_8internal17scalar_product_opIddEEKNS_14CwiseNullaryOpINS2_18scalar_constant_opIdEEKNS_6MatrixIdLi1ELin1ELi1ELi1ELin1EEEEEKNS_9TransposeIKNS1_INS2_20scalar_difference_opIddEEKNS8_IdLin1ELi1ELi0ELin1ELi1EEESH_EEEEEEEC2Ev
00000000003b32a6 W _ZN5Eigen10MatrixBaseINS_13CwiseBinaryOpINS_8internal17scalar_product_opIddEEKNS_14CwiseNullaryOpINS2_18scalar_constant_opIdEEKNS_6MatrixIdLi2ELi1ELi0ELi2ELi1EEEEESA_EEEC1Ev
00000000003b32a6 W _ZN5Eigen10MatrixBaseINS_13CwiseBinaryOpINS_8internal17scalar_product_opIddEEKNS_14CwiseNullaryOpINS2_18scalar_constant_opIdEEKNS_6MatrixIdLi2ELi1ELi0ELi2ELi1EEEEESA_EEEC2Ev
00000000003f3844 W _ZN5Eigen10MatrixBaseINS_13CwiseBinaryOpINS_8internal17scalar_product_opIddEEKNS_14CwiseNullaryOpINS2_18scalar_constant_opIdEEKNS_6MatrixIdLi3ELi1ELi0ELi3ELi1EEEEEKNS1_INS2_20scalar_difference_opIddEEKNS1_IS4_SC_KNS_5BlockIKNS5_INS2_18scalar_identity_opIdEENS8_IdLi3ELi3ELi0ELi3ELi3EEEEELi3ELi1ELb0EEEEEKNS1_IS4_SC_SA_EEEEEEEC1Ev
00000000003f3844 W _ZN5Eigen10MatrixBaseINS_13CwiseBinaryOpINS_8internal17scalar_product_opIddEEKNS_14CwiseNullaryOpINS2_18scalar_constant_opIdEEKNS_6MatrixIdLi3ELi1ELi0ELi3ELi1EEEEEKNS1_INS2_20scalar_difference_opIddEEKNS1_IS4_SC_KNS_5BlockIKNS5_INS2_18scalar_identity_opIdEENS8_IdLi3ELi3ELi0ELi3ELi3EEEEELi3ELi1ELb0EEEEEKNS1_IS4_SC_SA_EEEEEEEC2Ev
00000000003f37d0 W _ZN5Eigen10MatrixBaseINS_13CwiseBinaryOpINS_8internal17scalar_product_opIddEEKNS_14CwiseNullaryOpINS2_18scalar_constant_opIdEEKNS_6MatrixIdLi3ELi1ELi0ELi3ELi1EEEEEKNS_5BlockIKNS5_INS2_18scalar_identity_opIdEENS8_IdLi3ELi3ELi0ELi3ELi3EEEEELi3ELi1ELb0EEEEEEC1Ev
00000000003f37d0 W _ZN5Eigen10MatrixBaseINS_13CwiseBinaryOpINS_8internal17scalar_product_opIddEEKNS_14CwiseNullaryOpINS2_18scalar_constant_opIdEEKNS_6MatrixIdLi3ELi1ELi0ELi3ELi1EEEEEKNS_5BlockIKNS5_INS2_18scalar_identity_opIdEENS8_IdLi3ELi3ELi0ELi3ELi3EEEEELi3ELi1ELb0EEEEEEC2Ev
0000000000390364 W _ZN5Eigen10MatrixBaseINS_13CwiseBinaryOpINS_8internal17scalar_product_opIddEEKNS_14CwiseNullaryOpINS2_18scalar_constant_opIdEEKNS_6MatrixIdLi3ELi1ELi0ELi3ELi1EEEEESA_EEEC1Ev
0000000000390364 W _ZN5Eigen10MatrixBaseINS_13CwiseBinaryOpINS_8internal17scalar_product_opIddEEKNS_14CwiseNullaryOpINS2_18scalar_constant_opIdEEKNS_6MatrixIdLi3ELi1ELi0ELi3ELi1EEEEESA_EEEC2Ev
00000000004012b6 W _ZN5Eigen10MatrixBaseINS_13CwiseBinaryOpINS_8internal17scalar_product_opIddEEKNS_14CwiseNullaryOpINS2_18scalar_constant_opIdEEKNS_6MatrixIdLin1ELi1ELi0ELin1ELi1EEEEEKNS1_INS2_13scalar_sum_opIddEEKNS1_IS4_SC_SA_EESA_EEEEEC1Ev
00000000004012b6 W _ZN5Eigen10MatrixBaseINS_13CwiseBinaryOpINS_8internal17scalar_product_opIddEEKNS_14CwiseNullaryOpINS2_18scalar_constant_opIdEEKNS_6MatrixIdLin1ELi1ELi0ELin1ELi1EEEEEKNS1_INS2_13scalar_sum_opIddEEKNS1_IS4_SC_SA_EESA_EEEEEC2Ev
000000000040167a W _ZN5Eigen10MatrixBaseINS_13CwiseBinaryOpINS_8internal17scalar_product_opIddEEKNS_14CwiseNullaryOpINS2_18scalar_constant_opIdEEKNS_6MatrixIdLin1ELi1ELi0ELin1ELi1EEEEEKNS1_INS2_13scalar_sum_opIddEEKNS1_ISE_KNS1_INS2_20scalar_difference_opIddEEKNS1_IS4_SC_SA_EESI_EESI_EESI_EEEEEC1Ev
000000000040167a W _ZN5Eigen10MatrixBaseINS_13CwiseBinaryOpINS_8internal17scalar_product_opIddEEKNS_14CwiseNullaryOpINS2_18scalar_constant_opIdEEKNS_6MatrixIdLin1ELi1ELi0ELin1ELi1EEEEEKNS1_INS2_13scalar_sum_opIddEEKNS1_ISE_KNS1_INS2_20scalar_difference_opIddEEKNS1_IS4_SC_SA_EESI_EESI_EESI_EEEEEC2Ev
0000000000401424 W _ZN5Eigen10MatrixBaseINS_13CwiseBinaryOpINS_8internal17scalar_product_opIddEEKNS_14CwiseNullaryOpINS2_18scalar_constant_opIdEEKNS_6MatrixIdLin1ELi1ELi0ELin1ELi1EEEEEKNS1_INS2_13scalar_sum_opIddEESA_SA_EEEEEC1Ev
0000000000401424 W _ZN5Eigen10MatrixBaseINS_13CwiseBinaryOpINS_8internal17scalar_product_opIddEEKNS_14CwiseNullaryOpINS2_18scalar_constant_opIdEEKNS_6MatrixIdLin1ELi1ELi0ELin1ELi1EEEEEKNS1_INS2_13scalar_sum_opIddEESA_SA_EEEEEC2Ev
000000000040b6bc W _ZN5Eigen10MatrixBaseINS_13CwiseBinaryOpINS_8internal17scalar_product_opIddEEKNS_14CwiseNullaryOpINS2_18scalar_constant_opIdEEKNS_6MatrixIdLin1ELi1ELi0ELin1ELi1EEEEEKNS1_INS2_20scalar_difference_opIddEESA_KNS1_IS4_SC_SA_EEEEEEEC1Ev
000000000040b6bc W _ZN5Eigen10MatrixBaseINS_13CwiseBinaryOpINS_8internal17scalar_product_opIddEEKNS_14CwiseNullaryOpINS2_18scalar_constant_opIdEEKNS_6MatrixIdLin1ELi1ELi0ELin1ELi1EEEEEKNS1_INS2_20scalar_difference_opIddEESA_KNS1_IS4_SC_SA_EEEEEEEC2Ev
000000000040127e W _ZN5Eigen10MatrixBaseINS_13CwiseBinaryOpINS_8internal17scalar_product_opIddEEKNS_14CwiseNullaryOpINS2_18scalar_constant_opIdEEKNS_6MatrixIdLin1ELi1ELi0ELin1ELi1EEEEEKNS1_INS2_20scalar_difference_opIddEESA_SA_EEEEEC1Ev
000000000040127e W _ZN5Eigen10MatrixBaseINS_13CwiseBinaryOpINS_8internal17scalar_product_opIddEEKNS_14CwiseNullaryOpINS2_18scalar_constant_opIdEEKNS_6MatrixIdLin1ELi1ELi0ELin1ELi1EEEEEKNS1_INS2_20scalar_difference_opIddEESA_SA_EEEEEC2Ev
000000000035e710 W _ZN5Eigen10MatrixBaseINS_13CwiseBinaryOpINS_8internal17scalar_product_opIddEEKNS_14CwiseNullaryOpINS2_18scalar_constant_opIdEEKNS_6MatrixIdLin1ELi1ELi0ELin1ELi1EEEEESA_EEEC1Ev
000000000035e710 W _ZN5Eigen10MatrixBaseINS_13CwiseBinaryOpINS_8internal17scalar_product_opIddEEKNS_14CwiseNullaryOpINS2_18scalar_constant_opIdEEKNS_6MatrixIdLin1ELi1ELi0ELin1ELi1EEEEESA_EEEC2Ev
00000000003f3410 W _ZN5Eigen10MatrixBaseINS_13CwiseBinaryOpINS_8internal17scalar_product_opIddEEKNS_6MatrixIdLi3ELi1ELi0ELi3ELi1EEES7_EEEC1Ev
00000000003f3410 W _ZN5Eigen10MatrixBaseINS_13CwiseBinaryOpINS_8internal17scalar_product_opIddEEKNS_6MatrixIdLi3ELi1ELi0ELi3ELi1EEES7_EEEC2Ev
0000000000353cf8 W _ZN5Eigen10MatrixBaseINS_13CwiseBinaryOpINS_8internal17scalar_product_opIddEEKNS_9TransposeIKNS_5BlockIKNS_6MatrixIdLi3ELi3ELi0ELi3ELi3EEELi1ELi3ELb0EEEEEKNS6_IKNS7_IdLi3ELi1ELi0ELi3ELi1EEELi3ELi1ELb1EEEEEEC1Ev
0000000000353cf8 W _ZN5Eigen10MatrixBaseINS_13CwiseBinaryOpINS_8internal17scalar_product_opIddEEKNS_9TransposeIKNS_5BlockIKNS_6MatrixIdLi3ELi3ELi0ELi3ELi3EEELi1ELi3ELb0EEEEEKNS6_IKNS7_IdLi3ELi1ELi0ELi3ELi1EEELi3ELi1ELb1EEEEEEC2Ev
00000000003a710e W _ZN5Eigen10MatrixBaseINS_13CwiseBinaryOpINS_8internal17scalar_product_opIddEEKNS_9TransposeIKNS_5BlockIKNS_6MatrixIdLin1ELi3ELi0ELin1ELi3EEELi1ELi3ELb0EEEEEKNS6_IKNS7_IdLi3ELi1ELi0ELi3ELi1EEELi3ELi1ELb1EEEEEEC1Ev
00000000003a710e W _ZN5Eigen10MatrixBaseINS_13CwiseBinaryOpINS_8internal17scalar_product_opIddEEKNS_9TransposeIKNS_5BlockIKNS_6MatrixIdLin1ELi3ELi0ELin1ELi3EEELi1ELi3ELb0EEEEEKNS6_IKNS7_IdLi3ELi1ELi0ELi3ELi1EEELi3ELi1ELb1EEEEEEC2Ev
00000000003babe8 W _ZN5Eigen10MatrixBaseINS_13CwiseBinaryOpINS_8internal17scalar_product_opIddEEKNS_9TransposeIKNS5_INS_6MatrixIdLi3ELi1ELi0ELi3ELi1EEEEEEEKNS1_INS2_13scalar_sum_opIddEEKS7_KNS1_IS4_KNS_14CwiseNullaryOpINS2_18scalar_constant_opIdEESE_EESE_EEEEEEEC1Ev
00000000003babe8 W _ZN5Eigen10MatrixBaseINS_13CwiseBinaryOpINS_8internal17scalar_product_opIddEEKNS_9TransposeIKNS5_INS_6MatrixIdLi3ELi1ELi0ELi3ELi1EEEEEEEKNS1_INS2_13scalar_sum_opIddEEKS7_KNS1_IS4_KNS_14CwiseNullaryOpINS2_18scalar_constant_opIdEESE_EESE_EEEEEEEC2Ev
00000000003baa6c W _ZN5Eigen10MatrixBaseINS_13CwiseBinaryOpINS_8internal17scalar_product_opIddEEKNS_9TransposeIKNS5_INS_6MatrixIdLi3ELi1ELi0ELi3ELi1EEEEEEEKNS1_INS2_20scalar_difference_opIddEEKS7_KNS1_IS4_KNS_14CwiseNullaryOpINS2_18scalar_constant_opIdEESE_EESE_EEEEEEEC1Ev
00000000003baa6c W _ZN5Eigen10MatrixBaseINS_13CwiseBinaryOpINS_8internal17scalar_product_opIddEEKNS_9TransposeIKNS5_INS_6MatrixIdLi3ELi1ELi0ELi3ELi1EEEEEEEKNS1_INS2_20scalar_difference_opIddEEKS7_KNS1_IS4_KNS_14CwiseNullaryOpINS2_18scalar_constant_opIdEESE_EESE_EEEEEEEC2Ev
00000000003ba8bc W _ZN5Eigen10MatrixBaseINS_13CwiseBinaryOpINS_8internal17scalar_product_opIddEEKNS_9TransposeIKNS5_INS_6MatrixIdLi3ELi1ELi0ELi3ELi1EEEEEEEKS7_EEEC1Ev
00000000003ba8bc W _ZN5Eigen10MatrixBaseINS_13CwiseBinaryOpINS_8internal17scalar_product_opIddEEKNS_9TransposeIKNS5_INS_6MatrixIdLi3ELi1ELi0ELi3ELi1EEEEEEEKS7_EEEC2Ev
00000000003dbf50 W _ZN5Eigen10MatrixBaseINS_13CwiseBinaryOpINS_8internal17scalar_product_opIddEEKNS_9TransposeIKNS_7ProductINS1_IS4_KNS_14CwiseNullaryOpINS2_18scalar_constant_opIdEEKNS_6MatrixIdLi1ELin1ELi1ELi1ELin1EEEEEKNS5_IKNS1_INS2_20scalar_difference_opIddEEKNSA_IdLin1ELi1ELi0ELin1ELi1EEESI_EEEEEENS_15DiagonalWrapperISI_EELi1EEEEESK_EEEC1Ev
00000000003dbf50 W _ZN5Eigen10MatrixBaseINS_13CwiseBinaryOpINS_8internal17scalar_product_opIddEEKNS_9TransposeIKNS_7ProductINS1_IS4_KNS_14CwiseNullaryOpINS2_18scalar_constant_opIdEEKNS_6MatrixIdLi1ELin1ELi1ELi1ELin1EEEEEKNS5_IKNS1_INS2_20scalar_difference_opIddEEKNSA_IdLin1ELi1ELi0ELin1ELi1EEESI_EEEEEENS_15DiagonalWrapperISI_EELi1EEEEESK_EEEC2Ev
0000000000401382 W _ZN5Eigen10MatrixBaseINS_13CwiseBinaryOpINS_8internal18scalar_quotient_opIddEEKNS_12CwiseUnaryOpINS2_18scalar_opposite_opIdEEKNS1_INS2_13scalar_sum_opIddEEKNS1_INS2_17scalar_product_opIddEEKNS_14CwiseNullaryOpINS2_18scalar_constant_opIdEEKNS_6MatrixIdLin1ELi1ELi0ELin1ELi1EEEEEKNS1_INS2_20scalar_difference_opIddEESH_SH_EEEEKNS1_ISB_SJ_KNS1_IS9_KNS1_ISB_SJ_SH_EESH_EEEEEEEESJ_EEEC1Ev
0000000000401382 W _ZN5Eigen10MatrixBaseINS_13CwiseBinaryOpINS_8internal18scalar_quotient_opIddEEKNS_12CwiseUnaryOpINS2_18scalar_opposite_opIdEEKNS1_INS2_13scalar_sum_opIddEEKNS1_INS2_17scalar_product_opIddEEKNS_14CwiseNullaryOpINS2_18scalar_constant_opIdEEKNS_6MatrixIdLin1ELi1ELi0ELin1ELi1EEEEEKNS1_INS2_20scalar_difference_opIddEESH_SH_EEEEKNS1_ISB_SJ_KNS1_IS9_KNS1_ISB_SJ_SH_EESH_EEEEEEEESJ_EEEC2Ev
000000000040145c W _ZN5Eigen10MatrixBaseINS_13CwiseBinaryOpINS_8internal18scalar_quotient_opIddEEKNS1_INS2_13scalar_sum_opIddEEKNS1_INS2_17scalar_product_opIddEEKNS_14CwiseNullaryOpINS2_18scalar_constant_opIdEEKNS_6MatrixIdLin1ELi1ELi0ELin1ELi1EEEEEKNS1_INS2_20scalar_difference_opIddEESE_SE_EEEEKNS1_IS8_SG_KNS1_IS6_SE_SE_EEEEEESG_EEEC1Ev
000000000040145c W _ZN5Eigen10MatrixBaseINS_13CwiseBinaryOpINS_8internal18scalar_quotient_opIddEEKNS1_INS2_13scalar_sum_opIddEEKNS1_INS2_17scalar_product_opIddEEKNS_14CwiseNullaryOpINS2_18scalar_constant_opIdEEKNS_6MatrixIdLin1ELi1ELi0ELin1ELi1EEEEEKNS1_INS2_20scalar_difference_opIddEESE_SE_EEEEKNS1_IS8_SG_KNS1_IS6_SE_SE_EEEEEESG_EEEC2Ev
00000000004014fe W _ZN5Eigen10MatrixBaseINS_13CwiseBinaryOpINS_8internal18scalar_quotient_opIddEEKNS1_INS2_17scalar_product_opIddEEKNS_14CwiseNullaryOpINS2_18scalar_constant_opIdEEKNS_6MatrixIdLin1ELi1ELi0ELin1ELi1EEEEEKNS1_INS2_13scalar_sum_opIddEEKNS1_IS6_SE_SC_EESC_EEEESE_EEEC1Ev
00000000004014fe W _ZN5Eigen10MatrixBaseINS_13CwiseBinaryOpINS_8internal18scalar_quotient_opIddEEKNS1_INS2_17scalar_product_opIddEEKNS_14CwiseNullaryOpINS2_18scalar_constant_opIdEEKNS_6MatrixIdLin1ELi1ELi0ELin1ELi1EEEEEKNS1_INS2_13scalar_sum_opIddEEKNS1_IS6_SE_SC_EESC_EEEESE_EEEC2Ev
0000000000401696 W _ZN5Eigen10MatrixBaseINS_13CwiseBinaryOpINS_8internal18scalar_quotient_opIddEEKNS1_INS2_17scalar_product_opIddEEKNS_14CwiseNullaryOpINS2_18scalar_constant_opIdEEKNS_6MatrixIdLin1ELi1ELi0ELin1ELi1EEEEEKNS1_INS2_13scalar_sum_opIddEEKNS1_ISG_KNS1_INS2_20scalar_difference_opIddEEKNS1_IS6_SE_SC_EESK_EESK_EESK_EEEESE_EEEC1Ev
0000000000401696 W _ZN5Eigen10MatrixBaseINS_13CwiseBinaryOpINS_8internal18scalar_quotient_opIddEEKNS1_INS2_17scalar_product_opIddEEKNS_14CwiseNullaryOpINS2_18scalar_constant_opIdEEKNS_6MatrixIdLin1ELi1ELi0ELin1ELi1EEEEEKNS1_INS2_13scalar_sum_opIddEEKNS1_ISG_KNS1_INS2_20scalar_difference_opIddEEKNS1_IS6_SE_SC_EESK_EESK_EESK_EEEESE_EEEC2Ev
00000000004014e2 W _ZN5Eigen10MatrixBaseINS_13CwiseBinaryOpINS_8internal18scalar_quotient_opIddEEKNS1_INS2_17scalar_product_opIddEEKNS_14CwiseNullaryOpINS2_18scalar_constant_opIdEEKNS_6MatrixIdLin1ELi1ELi0ELin1ELi1EEEEEKNS1_INS2_13scalar_sum_opIddEESC_SC_EEEESE_EEEC1Ev
00000000004014e2 W _ZN5Eigen10MatrixBaseINS_13CwiseBinaryOpINS_8internal18scalar_quotient_opIddEEKNS1_INS2_17scalar_product_opIddEEKNS_14CwiseNullaryOpINS2_18scalar_constant_opIdEEKNS_6MatrixIdLin1ELi1ELi0ELin1ELi1EEEEEKNS1_INS2_13scalar_sum_opIddEESC_SC_EEEESE_EEEC2Ev
00000000003b3490 W _ZN5Eigen10MatrixBaseINS_13CwiseBinaryOpINS_8internal18scalar_quotient_opIddEEKNS_6MatrixIdLi2ELi1ELi0ELi2ELi1EEEKNS_14CwiseNullaryOpINS2_18scalar_constant_opIdEES7_EEEEEC1Ev
00000000003b3490 W _ZN5Eigen10MatrixBaseINS_13CwiseBinaryOpINS_8internal18scalar_quotient_opIddEEKNS_6MatrixIdLi2ELi1ELi0ELi2ELi1EEEKNS_14CwiseNullaryOpINS2_18scalar_constant_opIdEES7_EEEEEC2Ev
00000000003f3e7c W _ZN5Eigen10MatrixBaseINS_13CwiseBinaryOpINS_8internal18scalar_quotient_opIddEEKNS_6MatrixIdLi3ELi1ELi0ELi3ELi1EEEKNS_14CwiseNullaryOpINS2_18scalar_constant_opIdEES7_EEEEEC1Ev
00000000003f3e7c W _ZN5Eigen10MatrixBaseINS_13CwiseBinaryOpINS_8internal18scalar_quotient_opIddEEKNS_6MatrixIdLi3ELi1ELi0ELi3ELi1EEEKNS_14CwiseNullaryOpINS2_18scalar_constant_opIdEES7_EEEEEC2Ev
000000000035e52e W _ZN5Eigen10MatrixBaseINS_13CwiseBinaryOpINS_8internal18scalar_quotient_opIddEEKNS_6MatrixIdLin1ELi1ELi0ELin1ELi1EEEKNS_14CwiseNullaryOpINS2_18scalar_constant_opIdEES7_EEEEEC1Ev
000000000035e52e W _ZN5Eigen10MatrixBaseINS_13CwiseBinaryOpINS_8internal18scalar_quotient_opIddEEKNS_6MatrixIdLin1ELi1ELi0ELin1ELi1EEEKNS_14CwiseNullaryOpINS2_18scalar_constant_opIdEES7_EEEEEC2Ev
00000000003902c2 W _ZN5Eigen10MatrixBaseINS_13CwiseBinaryOpINS_8internal20scalar_difference_opIddEEKNS1_INS2_13scalar_sum_opIddEEKNS_7ProductINS_12SparseMatrixIdLi1EiEENS_6MatrixIdLi3ELi1ELi0ELi3ELi1EEELi0EEEKNS7_IS9_SC_Li0EEEEEKSB_EEEC1Ev
00000000003902c2 W _ZN5Eigen10MatrixBaseINS_13CwiseBinaryOpINS_8internal20scalar_difference_opIddEEKNS1_INS2_13scalar_sum_opIddEEKNS_7ProductINS_12SparseMatrixIdLi1EiEENS_6MatrixIdLi3ELi1ELi0ELi3ELi1EEELi0EEEKNS7_IS9_SC_Li0EEEEEKSB_EEEC2Ev
00000000003f37ec W _ZN5Eigen10MatrixBaseINS_13CwiseBinaryOpINS_8internal20scalar_difference_opIddEEKNS1_INS2_17scalar_product_opIddEEKNS_14CwiseNullaryOpINS2_18scalar_constant_opIdEEKNS_6MatrixIdLi3ELi1ELi0ELi3ELi1EEEEEKNS_5BlockIKNS7_INS2_18scalar_identity_opIdEENSA_IdLi3ELi3ELi0ELi3ELi3EEEEELi3ELi1ELb0EEEEEKNS1_IS6_SE_SC_EEEEEC1Ev
00000000003f37ec W _ZN5Eigen10MatrixBaseINS_13CwiseBinaryOpINS_8internal20scalar_difference_opIddEEKNS1_INS2_17scalar_product_opIddEEKNS_14CwiseNullaryOpINS2_18scalar_constant_opIdEEKNS_6MatrixIdLi3ELi1ELi0ELi3ELi1EEEEEKNS_5BlockIKNS7_INS2_18scalar_identity_opIdEENSA_IdLi3ELi3ELi0ELi3ELi3EEEEELi3ELi1ELb0EEEEEKNS1_IS6_SE_SC_EEEEEC2Ev
00000000003903a8 W _ZN5Eigen10MatrixBaseINS_13CwiseBinaryOpINS_8internal20scalar_difference_opIddEEKNS1_INS2_17scalar_product_opIddEEKNS_14CwiseNullaryOpINS2_18scalar_constant_opIdEEKNS_6MatrixIdLi3ELi1ELi0ELi3ELi1EEEEESC_EESC_EEEC1Ev
00000000003903a8 W _ZN5Eigen10MatrixBaseINS_13CwiseBinaryOpINS_8internal20scalar_difference_opIddEEKNS1_INS2_17scalar_product_opIddEEKNS_14CwiseNullaryOpINS2_18scalar_constant_opIdEEKNS_6MatrixIdLi3ELi1ELi0ELi3ELi1EEEEESC_EESC_EEEC2Ev
00000000004015ae W _ZN5Eigen10MatrixBaseINS_13CwiseBinaryOpINS_8internal20scalar_difference_opIddEEKNS1_INS2_17scalar_product_opIddEEKNS_14CwiseNullaryOpINS2_18scalar_constant_opIdEEKNS_6MatrixIdLin1ELi1ELi0ELin1ELi1EEEEESC_EESG_EEEC1Ev
00000000004015ae W _ZN5Eigen10MatrixBaseINS_13CwiseBinaryOpINS_8internal20scalar_difference_opIddEEKNS1_INS2_17scalar_product_opIddEEKNS_14CwiseNullaryOpINS2_18scalar_constant_opIdEEKNS_6MatrixIdLin1ELi1ELi0ELin1ELi1EEEEESC_EESG_EEEC2Ev
000000000040151a W _ZN5Eigen10MatrixBaseINS_13CwiseBinaryOpINS_8internal20scalar_difference_opIddEEKNS1_INS2_18scalar_quotient_opIddEEKNS1_INS2_17scalar_product_opIddEEKNS_14CwiseNullaryOpINS2_18scalar_constant_opIdEEKNS_6MatrixIdLin1ELi1ELi0ELin1ELi1EEEEEKNS1_INS2_13scalar_sum_opIddEESE_SE_EEEESG_EEKNS1_IS6_KNS1_IS8_SG_KNS1_ISI_KNS1_IS8_SG_SE_EESE_EEEESG_EEEEEC1Ev
000000000040151a W _ZN5Eigen10MatrixBaseINS_13CwiseBinaryOpINS_8internal20scalar_difference_opIddEEKNS1_INS2_18scalar_quotient_opIddEEKNS1_INS2_17scalar_product_opIddEEKNS_14CwiseNullaryOpINS2_18scalar_constant_opIdEEKNS_6MatrixIdLin1ELi1ELi0ELin1ELi1EEEEEKNS1_INS2_13scalar_sum_opIddEESE_SE_EEEESG_EEKNS1_IS6_KNS1_IS8_SG_KNS1_ISI_KNS1_IS8_SG_SE_EESE_EEEESG_EEEEEC2Ev
0000000000390400 W _ZN5Eigen10MatrixBaseINS_13CwiseBinaryOpINS_8internal20scalar_difference_opIddEEKNS1_IS4_KNS1_INS2_17scalar_product_opIddEEKNS_14CwiseNullaryOpINS2_18scalar_constant_opIdEEKNS_6MatrixIdLi3ELi1ELi0ELi3ELi1EEEEESC_EESC_EESC_EEEC1Ev
0000000000390400 W _ZN5Eigen10MatrixBaseINS_13CwiseBinaryOpINS_8internal20scalar_difference_opIddEEKNS1_IS4_KNS1_INS2_17scalar_product_opIddEEKNS_14CwiseNullaryOpINS2_18scalar_constant_opIdEEKNS_6MatrixIdLi3ELi1ELi0ELi3ELi1EEEEESC_EESC_EESC_EEEC2Ev
00000000004016b2 W _ZN5Eigen10MatrixBaseINS_13CwiseBinaryOpINS_8internal20scalar_difference_opIddEEKNS1_IS4_KNS1_INS2_18scalar_quotient_opIddEEKNS1_INS2_17scalar_product_opIddEEKNS_14CwiseNullaryOpINS2_18scalar_constant_opIdEEKNS_6MatrixIdLin1ELi1ELi0ELin1ELi1EEEEEKNS1_INS2_13scalar_sum_opIddEESE_SE_EEEESG_EEKNS1_IS6_KNS1_IS8_SG_KNS1_ISI_KNS1_IS8_SG_SE_EESE_EEEESG_EEEEKNS1_IS6_KNS1_IS8_SG_KNS1_ISI_KNS1_ISI_KNS1_IS4_SQ_SQ_EESQ_EESQ_EEEESG_EEEEEC1Ev
00000000004016b2 W _ZN5Eigen10MatrixBaseINS_13CwiseBinaryOpINS_8internal20scalar_difference_opIddEEKNS1_IS4_KNS1_INS2_18scalar_quotient_opIddEEKNS1_INS2_17scalar_product_opIddEEKNS_14CwiseNullaryOpINS2_18scalar_constant_opIdEEKNS_6MatrixIdLin1ELi1ELi0ELin1ELi1EEEEEKNS1_INS2_13scalar_sum_opIddEESE_SE_EEEESG_EEKNS1_IS6_KNS1_IS8_SG_KNS1_ISI_KNS1_IS8_SG_SE_EESE_EEEESG_EEEEKNS1_IS6_KNS1_IS8_SG_KNS1_ISI_KNS1_ISI_KNS1_IS4_SQ_SQ_EESQ_EESQ_EEEESG_EEEEEC2Ev
00000000003b30d0 W _ZN5Eigen10MatrixBaseINS_13CwiseBinaryOpINS_8internal20scalar_difference_opIddEEKNS_6MatrixIdLi2ELi1ELi0ELi2ELi1EEES7_EEEC1Ev
00000000003b30d0 W _ZN5Eigen10MatrixBaseINS_13CwiseBinaryOpINS_8internal20scalar_difference_opIddEEKNS_6MatrixIdLi2ELi1ELi0ELi2ELi1EEES7_EEEC2Ev
00000000003b8d76 W _ZN5Eigen10MatrixBaseINS_13CwiseBinaryOpINS_8internal20scalar_difference_opIddEEKNS_6MatrixIdLi3ELi1ELi0ELi3ELi1EEEKNS1_INS2_17scalar_product_opIddEEKNS_14CwiseNullaryOpINS2_18scalar_constant_opIdEES7_EES7_EEEEEC1Ev
00000000003b8d76 W _ZN5Eigen10MatrixBaseINS_13CwiseBinaryOpINS_8internal20scalar_difference_opIddEEKNS_6MatrixIdLi3ELi1ELi0ELi3ELi1EEEKNS1_INS2_17scalar_product_opIddEEKNS_14CwiseNullaryOpINS2_18scalar_constant_opIdEES7_EES7_EEEEEC2Ev
000000000038fcba W _ZN5Eigen10MatrixBaseINS_13CwiseBinaryOpINS_8internal20scalar_difference_opIddEEKNS_6MatrixIdLi3ELi1ELi0ELi3ELi1EEES7_EEEC1Ev
000000000038fcba W _ZN5Eigen10MatrixBaseINS_13CwiseBinaryOpINS_8internal20scalar_difference_opIddEEKNS_6MatrixIdLi3ELi1ELi0ELi3ELi1EEES7_EEEC2Ev
000000000040b6a0 W _ZN5Eigen10MatrixBaseINS_13CwiseBinaryOpINS_8internal20scalar_difference_opIddEEKNS_6MatrixIdLin1ELi1ELi0ELin1ELi1EEEKNS1_INS2_17scalar_product_opIddEEKNS_14CwiseNullaryOpINS2_18scalar_constant_opIdEES7_EES7_EEEEEC1Ev
000000000040b6a0 W _ZN5Eigen10MatrixBaseINS_13CwiseBinaryOpINS_8internal20scalar_difference_opIddEEKNS_6MatrixIdLin1ELi1ELi0ELin1ELi1EEEKNS1_INS2_17scalar_product_opIddEEKNS_14CwiseNullaryOpINS2_18scalar_constant_opIdEES7_EES7_EEEEEC2Ev
000000000035e35e W _ZN5Eigen10MatrixBaseINS_13CwiseBinaryOpINS_8internal20scalar_difference_opIddEEKNS_6MatrixIdLin1ELi1ELi0ELin1ELi1EEES7_EEEC1Ev
000000000035e35e W _ZN5Eigen10MatrixBaseINS_13CwiseBinaryOpINS_8internal20scalar_difference_opIddEEKNS_6MatrixIdLin1ELi1ELi0ELin1ELi1EEES7_EEEC2Ev
00000000003a9f84 W _ZN5Eigen10MatrixBaseINS_14CwiseNullaryOpINS_8internal18scalar_constant_opIdEEKNS_6MatrixIdLi1ELi3ELi1ELi1ELi3EEEEEEC1Ev
00000000003a9f84 W _ZN5Eigen10MatrixBaseINS_14CwiseNullaryOpINS_8internal18scalar_constant_opIdEEKNS_6MatrixIdLi1ELi3ELi1ELi1ELi3EEEEEEC2Ev
00000000003da084 W _ZN5Eigen10MatrixBaseINS_14CwiseNullaryOpINS_8internal18scalar_constant_opIdEEKNS_6MatrixIdLi1ELin1ELi1ELi1ELin1EEEEEEC1Ev
00000000003da084 W _ZN5Eigen10MatrixBaseINS_14CwiseNullaryOpINS_8internal18scalar_constant_opIdEEKNS_6MatrixIdLi1ELin1ELi1ELi1ELin1EEEEEEC2Ev
00000000003b3250 W _ZN5Eigen10MatrixBaseINS_14CwiseNullaryOpINS_8internal18scalar_constant_opIdEEKNS_6MatrixIdLi2ELi1ELi0ELi2ELi1EEEEEEC1Ev
00000000003b3250 W _ZN5Eigen10MatrixBaseINS_14CwiseNullaryOpINS_8internal18scalar_constant_opIdEEKNS_6MatrixIdLi2ELi1ELi0ELi2ELi1EEEEEEC2Ev
0000000000390348 W _ZN5Eigen10MatrixBaseINS_14CwiseNullaryOpINS_8internal18scalar_constant_opIdEEKNS_6MatrixIdLi3ELi1ELi0ELi3ELi1EEEEEEC1Ev
0000000000390348 W _ZN5Eigen10MatrixBaseINS_14CwiseNullaryOpINS_8internal18scalar_constant_opIdEEKNS_6MatrixIdLi3ELi1ELi0ELi3ELi1EEEEEEC2Ev
000000000035e512 W _ZN5Eigen10MatrixBaseINS_14CwiseNullaryOpINS_8internal18scalar_constant_opIdEEKNS_6MatrixIdLin1ELi1ELi0ELin1ELi1EEEEEEC1Ev
000000000035e512 W _ZN5Eigen10MatrixBaseINS_14CwiseNullaryOpINS_8internal18scalar_constant_opIdEEKNS_6MatrixIdLin1ELi1ELi0ELin1ELi1EEEEEEC2Ev
000000000039108e W _ZN5Eigen10MatrixBaseINS_14CwiseNullaryOpINS_8internal18scalar_constant_opIdEEKNS_6MatrixIdLin1ELin1ELi1ELin1ELin1EEEEEEC1Ev
000000000039108e W _ZN5Eigen10MatrixBaseINS_14CwiseNullaryOpINS_8internal18scalar_constant_opIdEEKNS_6MatrixIdLin1ELin1ELi1ELin1ELin1EEEEEEC2Ev
000000000037aea8 W _ZN5Eigen10MatrixBaseINS_14CwiseNullaryOpINS_8internal18scalar_constant_opIdEENS_6MatrixIdLi3ELi1ELi0ELi3ELi1EEEEEEC1Ev
000000000037aea8 W _ZN5Eigen10MatrixBaseINS_14CwiseNullaryOpINS_8internal18scalar_constant_opIdEENS_6MatrixIdLi3ELi1ELi0ELi3ELi1EEEEEEC2Ev
00000000003526c0 W _ZN5Eigen10MatrixBaseINS_14CwiseNullaryOpINS_8internal18scalar_constant_opIdEENS_6MatrixIdLi3ELi3ELi0ELi3ELi3EEEEEEC1Ev
00000000003526c0 W _ZN5Eigen10MatrixBaseINS_14CwiseNullaryOpINS_8internal18scalar_constant_opIdEENS_6MatrixIdLi3ELi3ELi0ELi3ELi3EEEEEEC2Ev
00000000003698e6 W _ZN5Eigen10MatrixBaseINS_14CwiseNullaryOpINS_8internal18scalar_constant_opIdEENS_6MatrixIdLin1ELi1ELi0ELin1ELi1EEEEEEC1Ev
00000000003698e6 W _ZN5Eigen10MatrixBaseINS_14CwiseNullaryOpINS_8internal18scalar_constant_opIdEENS_6MatrixIdLin1ELi1ELi0ELin1ELi1EEEEEEC2Ev
00000000003a9b00 W _ZN5Eigen10MatrixBaseINS_14CwiseNullaryOpINS_8internal18scalar_constant_opIdEENS_6MatrixIdLin1ELi3ELi0ELin1ELi3EEEEEEC1Ev
00000000003a9b00 W _ZN5Eigen10MatrixBaseINS_14CwiseNullaryOpINS_8internal18scalar_constant_opIdEENS_6MatrixIdLin1ELi3ELi0ELin1ELi3EEEEEEC2Ev
000000000036fd8e W _ZN5Eigen10MatrixBaseINS_14CwiseNullaryOpINS_8internal18scalar_constant_opIdEENS_6MatrixIdLin1ELin1ELi0ELin1ELin1EEEEEEC1Ev
000000000036fd8e W _ZN5Eigen10MatrixBaseINS_14CwiseNullaryOpINS_8internal18scalar_constant_opIdEENS_6MatrixIdLin1ELin1ELi0ELin1ELin1EEEEEEC2Ev
0000000000372500 W _ZN5Eigen10MatrixBaseINS_14CwiseNullaryOpINS_8internal18scalar_constant_opIiEENS_6MatrixIiLin1ELi1ELi0ELin1ELi1EEEEEEC1Ev
0000000000372500 W _ZN5Eigen10MatrixBaseINS_14CwiseNullaryOpINS_8internal18scalar_constant_opIiEENS_6MatrixIiLin1ELi1ELi0ELin1ELi1EEEEEEC2Ev
000000000039f3b0 W _ZN5Eigen10MatrixBaseINS_14CwiseNullaryOpINS_8internal18scalar_constant_opIlEENS_6MatrixIlLin1ELi1ELi0ELin1ELi1EEEEEEC1Ev
000000000039f3b0 W _ZN5Eigen10MatrixBaseINS_14CwiseNullaryOpINS_8internal18scalar_constant_opIlEENS_6MatrixIlLin1ELi1ELi0ELin1ELi1EEEEEEC2Ev
0000000000381ef4 W _ZN5Eigen10MatrixBaseINS_14CwiseNullaryOpINS_8internal18scalar_identity_opIdEENS_6MatrixIdLi3ELi3ELi0ELi3ELi3EEEEEEC1Ev
0000000000381ef4 W _ZN5Eigen10MatrixBaseINS_14CwiseNullaryOpINS_8internal18scalar_identity_opIdEENS_6MatrixIdLi3ELi3ELi0ELi3ELi3EEEEEEC2Ev
00000000003cc416 W _ZN5Eigen10MatrixBaseINS_16PartialReduxExprINS_6MatrixIdLi3ELi3ELi0ELi3ELi3EEENS_8internal10member_sumIdEELi1EEEEC1Ev
00000000003cc416 W _ZN5Eigen10MatrixBaseINS_16PartialReduxExprINS_6MatrixIdLi3ELi3ELi0ELi3ELi3EEENS_8internal10member_sumIdEELi1EEEEC2Ev
000000000039924e W _ZN5Eigen10MatrixBaseINS_3MapIKNS_6MatrixIiLin1ELi1ELi0ELin1ELi1EEELi0ENS_6StrideILi0ELi0EEEEEEC1Ev
000000000039924e W _ZN5Eigen10MatrixBaseINS_3MapIKNS_6MatrixIiLin1ELi1ELi0ELin1ELi1EEELi0ENS_6StrideILi0ELi0EEEEEEC2Ev
000000000039c47c W _ZN5Eigen10MatrixBaseINS_3MapIKNS_6MatrixIlLin1ELi1ELi0ELin1ELi1EEELi0ENS_6StrideILi0ELi0EEEEEEC1Ev
000000000039c47c W _ZN5Eigen10MatrixBaseINS_3MapIKNS_6MatrixIlLin1ELi1ELi0ELin1ELi1EEELi0ENS_6StrideILi0ELi0EEEEEEC2Ev
0000000000370314 W _ZN5Eigen10MatrixBaseINS_3MapINS_6MatrixIiLin1ELi1ELi0ELin1ELi1EEELi0ENS_6StrideILi0ELi0EEEEEEaSINS_14CwiseNullaryOpINS_8internal18scalar_constant_opIiEES3_EEEERS6_RKNS_9DenseBaseIT_EE
0000000000370f68 W _ZN5Eigen10MatrixBaseINS_3MapINS_6MatrixIiLin1ELi1ELi0ELin1ELi1EEELi0ENS_6StrideILi0ELi0EEEEEEC1Ev
0000000000370f68 W _ZN5Eigen10MatrixBaseINS_3MapINS_6MatrixIiLin1ELi1ELi0ELin1ELi1EEELi0ENS_6StrideILi0ELi0EEEEEEC2Ev
0000000000399a0e W _ZN5Eigen10MatrixBaseINS_3MapINS_6MatrixIlLin1ELi1ELi0ELin1ELi1EEELi0ENS_6StrideILi0ELi0EEEEEEaSINS_14CwiseNullaryOpINS_8internal18scalar_constant_opIlEES3_EEEERS6_RKNS_9DenseBaseIT_EE
000000000039bd28 W _ZN5Eigen10MatrixBaseINS_3MapINS_6MatrixIlLin1ELi1ELi0ELin1ELi1EEELi0ENS_6StrideILi0ELi0EEEEEEC1Ev
000000000039bd28 W _ZN5Eigen10MatrixBaseINS_3MapINS_6MatrixIlLin1ELi1ELi0ELin1ELi1EEELi0ENS_6StrideILi0ELi0EEEEEEC2Ev
00000000003f52c6 W _ZN5Eigen10MatrixBaseINS_5BlockIKNS_14CwiseNullaryOpINS_8internal18scalar_identity_opIdEENS_6MatrixIdLi3ELi3ELi0ELi3ELi3EEEEELi3ELi1ELb0EEEEC1Ev
00000000003f52c6 W _ZN5Eigen10MatrixBaseINS_5BlockIKNS_14CwiseNullaryOpINS_8internal18scalar_identity_opIdEENS_6MatrixIdLi3ELi3ELi0ELi3ELi3EEEEELi3ELi1ELb0EEEEC2Ev
0000000000354886 W _ZN5Eigen10MatrixBaseINS_5BlockIKNS_6MatrixIdLi3ELi1ELi0ELi3ELi1EEELi3ELi1ELb1EEEEC1Ev
0000000000354886 W _ZN5Eigen10MatrixBaseINS_5BlockIKNS_6MatrixIdLi3ELi1ELi0ELi3ELi1EEELi3ELi1ELb1EEEEC2Ev
000000000035485a W _ZN5Eigen10MatrixBaseINS_5BlockIKNS_6MatrixIdLi3ELi3ELi0ELi3ELi3EEELi1ELi3ELb0EEEEC1Ev
000000000035485a W _ZN5Eigen10MatrixBaseINS_5BlockIKNS_6MatrixIdLi3ELi3ELi0ELi3ELi3EEELi1ELi3ELb0EEEEC2Ev
00000000003b3e82 W _ZN5Eigen10MatrixBaseINS_5BlockIKNS_6MatrixIdLin1ELi1ELi0ELin1ELi1EEELi2ELi1ELb0EEEEC1Ev
00000000003b3e82 W _ZN5Eigen10MatrixBaseINS_5BlockIKNS_6MatrixIdLin1ELi1ELi0ELin1ELi1EEELi2ELi1ELb0EEEEC2Ev
00000000003a8a5c W _ZN5Eigen10MatrixBaseINS_5BlockIKNS_6MatrixIdLin1ELi3ELi0ELin1ELi3EEELi1ELi3ELb0EEEEC1Ev
00000000003a8a5c W _ZN5Eigen10MatrixBaseINS_5BlockIKNS_6MatrixIdLin1ELi3ELi0ELin1ELi3EEELi1ELi3ELb0EEEEC2Ev
00000000003aacbc W _ZN5Eigen10MatrixBaseINS_5BlockIKNS_9TransposeIKNS_6MatrixIdLi3ELi3ELi0ELi3ELi3EEEEELi1ELi3ELb1EEEEC1Ev
00000000003aacbc W _ZN5Eigen10MatrixBaseINS_5BlockIKNS_9TransposeIKNS_6MatrixIdLi3ELi3ELi0ELi3ELi3EEEEELi1ELi3ELb1EEEEC2Ev
0000000000387c6e W _ZN5Eigen10MatrixBaseINS_5BlockINS_6MatrixIdLi6ELi1ELi0ELi6ELi1EEELin1ELi1ELb0EEEEaSINS_13CwiseBinaryOpINS_8internal20scalar_difference_opIddEEKNS7_INS8_13scalar_sum_opIddEEKNS_7ProductINS_12SparseMatrixIdLi1EiEENS2_IdLi3ELi1ELi0ELi3ELi1EEELi0EEEKNSD_ISF_SH_Li0EEEEEKSG_EEEERS4_RKNS_9DenseBaseIT_EE
0000000000387fae W _ZN5Eigen10MatrixBaseINS_5BlockINS_6MatrixIdLi6ELi1ELi0ELi6ELi1EEELin1ELi1ELb0EEEEaSINS_13CwiseBinaryOpINS_8internal20scalar_difference_opIddEEKNS7_ISA_KNS7_INS8_17scalar_product_opIddEEKNS_14CwiseNullaryOpINS8_18scalar_constant_opIdEEKNS2_IdLi3ELi1ELi0ELi3ELi1EEEEESH_EESH_EESH_EEEERS4_RKNS_9DenseBaseIT_EE
000000000039c6de W _ZN5Eigen10MatrixBaseINS_5BlockINS_6MatrixIdLi6ELi1ELi0ELi6ELi1EEELin1ELi1ELb0EEEEC1Ev
000000000039c6de W _ZN5Eigen10MatrixBaseINS_5BlockINS_6MatrixIdLi6ELi1ELi0ELi6ELi1EEELin1ELi1ELb0EEEEC2Ev
00000000003d126e W _ZN5Eigen10MatrixBaseINS_5BlockINS_6MatrixIdLin1ELi1ELi0ELin1ELi1EEELin1ELi1ELb0EEEEaSINS_13CwiseBinaryOpINS_8internal20scalar_difference_opIddEEKS3_SB_EEEERS4_RKNS_9DenseBaseIT_EE
00000000003c3192 W _ZN5Eigen10MatrixBaseINS_5BlockINS_6MatrixIdLin1ELi1ELi0ELin1ELi1EEELin1ELi1ELb0EEEEaSINS2_IdLi3ELi1ELi0ELi3ELi1EEEEERS4_RKNS_9DenseBaseIT_EE
00000000003beeba W _ZN5Eigen10MatrixBaseINS_5BlockINS_6MatrixIdLin1ELi1ELi0ELin1ELi1EEELin1ELi1ELb0EEEEaSINS2_IdLi6ELi1ELi0ELi6ELi1EEEEERS4_RKNS_9DenseBaseIT_EE
00000000003addc2 W _ZN5Eigen10MatrixBaseINS_5BlockINS_6MatrixIdLin1ELi1ELi0ELin1ELi1EEELin1ELi1ELb0EEEEaSIS3_EERS4_RKNS_9DenseBaseIT_EE
00000000003af3a0 W _ZN5Eigen10MatrixBaseINS_5BlockINS_6MatrixIdLin1ELi1ELi0ELin1ELi1EEELin1ELi1ELb0EEEEC1Ev
00000000003af3a0 W _ZN5Eigen10MatrixBaseINS_5BlockINS_6MatrixIdLin1ELi1ELi0ELin1ELi1EEELin1ELi1ELb0EEEEC2Ev
00000000003aaf9c W _ZN5Eigen10MatrixBaseINS_5BlockINS_6MatrixIdLin1ELi3ELi0ELin1ELi3EEELi1ELi3ELb0EEEEC1Ev
00000000003aaf9c W _ZN5Eigen10MatrixBaseINS_5BlockINS_6MatrixIdLin1ELi3ELi0ELin1ELi3EEELi1ELi3ELb0EEEEC2Ev
00000000003a99a2 W _ZN5Eigen10MatrixBaseINS_5BlockINS_6MatrixIdLin1ELi3ELi0ELin1ELi3EEELi1ELi3ELb0EEEEpLINS_13CwiseBinaryOpINS_8internal17scalar_product_opIddEEKNS_14CwiseNullaryOpINS8_18scalar_constant_opIdEEKNS2_IdLi1ELi3ELi1ELi1ELi3EEEEEKNS1_IKNS_9TransposeIKNS2_IdLi3ELi3ELi0ELi3ELi3EEEEELi1ELi3ELb1EEEEEEERS4_RKNS0_IT_EE
000000000036c1d4 W _ZN5Eigen10MatrixBaseINS_5BlockINS_6MatrixIdLin1ELin1ELi0ELin1ELin1EEELin1ELi1ELb1EEEEaSINS_13CwiseBinaryOpINS_8internal17scalar_product_opIddEEKNS_14CwiseNullaryOpINS8_18scalar_constant_opIdEEKNS2_IdLin1ELi1ELi0ELin1ELi1EEEEESF_EEEERS4_RKNS_9DenseBaseIT_EE
000000000036c09a W _ZN5Eigen10MatrixBaseINS_5BlockINS_6MatrixIdLin1ELin1ELi0ELin1ELin1EEELin1ELi1ELb1EEEEaSINS2_IdLin1ELi1ELi0ELin1ELi1EEEEERS4_RKNS_9DenseBaseIT_EE
0000000000371628 W _ZN5Eigen10MatrixBaseINS_5BlockINS_6MatrixIdLin1ELin1ELi0ELin1ELin1EEELin1ELi1ELb1EEEEC1Ev
0000000000371628 W _ZN5Eigen10MatrixBaseINS_5BlockINS_6MatrixIdLin1ELin1ELi0ELin1ELin1EEELin1ELi1ELb1EEEEC2Ev
000000000036c21e W _ZN5Eigen10MatrixBaseINS_5BlockINS_6MatrixIdLin1ELin1ELi0ELin1ELin1EEELin1ELi1ELb1EEEEmIINS2_IdLin1ELi1ELi0ELin1ELi1EEEEERS4_RKNS0_IT_EE
00000000003b9ce4 W _ZN5Eigen10MatrixBaseINS_6MatrixIdLi1ELi1ELi0ELi1ELi1EEEEC1Ev
00000000003b9ce4 W _ZN5Eigen10MatrixBaseINS_6MatrixIdLi1ELi1ELi0ELi1ELi1EEEEC2Ev
00000000003b2f4a W _ZN5Eigen10MatrixBaseINS_6MatrixIdLi2ELi1ELi0ELi2ELi1EEEEC1Ev
00000000003b2f4a W _ZN5Eigen10MatrixBaseINS_6MatrixIdLi2ELi1ELi0ELi2ELi1EEEEC2Ev
00000000003f19d0 W _ZN5Eigen10MatrixBaseINS_6MatrixIdLi3ELi1ELi0ELi3ELi1EEEE4UnitEl
000000000033e974 W _ZN5Eigen10MatrixBaseINS_6MatrixIdLi3ELi1ELi0ELi3ELi1EEEEC1Ev
000000000033e974 W _ZN5Eigen10MatrixBaseINS_6MatrixIdLi3ELi1ELi0ELi3ELi1EEEEC2Ev
0000000000387770 W _ZN5Eigen10MatrixBaseINS_6MatrixIdLi3ELi1ELi0ELi3ELi1EEEEpLIS2_EERS2_RKNS0_IT_EE
0000000000380b66 W _ZN5Eigen10MatrixBaseINS_6MatrixIdLi3ELi3ELi0ELi3ELi3EEEE11setIdentityEv
00000000003ca236 W _ZN5Eigen10MatrixBaseINS_6MatrixIdLi3ELi3ELi0ELi3ELi3EEEE5arrayEv
00000000003814d0 W _ZN5Eigen10MatrixBaseINS_6MatrixIdLi3ELi3ELi0ELi3ELi3EEEE8IdentityEll
00000000003f2a2e W _ZN5Eigen10MatrixBaseINS_6MatrixIdLi3ELi3ELi0ELi3ELi3EEEE8IdentityEv
0000000000344950 W _ZN5Eigen10MatrixBaseINS_6MatrixIdLi3ELi3ELi0ELi3ELi3EEEEaSINS_12SparseMatrixIdLi1EiEEEERS2_RKNS_9EigenBaseIT_EE
000000000033ea0a W _ZN5Eigen10MatrixBaseINS_6MatrixIdLi3ELi3ELi0ELi3ELi3EEEEC1Ev
000000000033ea0a W _ZN5Eigen10MatrixBaseINS_6MatrixIdLi3ELi3ELi0ELi3ELi3EEEEC2Ev
00000000003cbb68 W _ZN5Eigen10MatrixBaseINS_6MatrixIdLi3ELi3ELi0ELi3ELi3EEEEpLINS_9ReplicateINS_9TransposeINS1_IdLi3ELi1ELi0ELi3ELi1EEEEELi3ELi1EEEEERS2_RKNS0_IT_EE
000000000041f6d2 W _ZN5Eigen10MatrixBaseINS_6MatrixIdLi4ELi1ELi0ELi4ELi1EEEEC1Ev
000000000041f6d2 W _ZN5Eigen10MatrixBaseINS_6MatrixIdLi4ELi1ELi0ELi4ELi1EEEEC2Ev
00000000003900e8 W _ZN5Eigen10MatrixBaseINS_6MatrixIdLi6ELi1ELi0ELi6ELi1EEEEC1Ev
00000000003900e8 W _ZN5Eigen10MatrixBaseINS_6MatrixIdLi6ELi1ELi0ELi6ELi1EEEEC2Ev
0000000000340722 W _ZN5Eigen10MatrixBaseINS_6MatrixIdLin1ELi1ELi0ELin1ELi1EEEEC1Ev
0000000000340722 W _ZN5Eigen10MatrixBaseINS_6MatrixIdLin1ELi1ELi0ELin1ELi1EEEEC2Ev
00000000003fd6b4 W _ZN5Eigen10MatrixBaseINS_6MatrixIdLin1ELi1ELi0ELin1ELi1EEEEpLINS_13CwiseBinaryOpINS_8internal17scalar_product_opIddEEKNS_14CwiseNullaryOpINS6_18scalar_constant_opIdEEKS2_EESC_EEEERS2_RKNS0_IT_EE
00000000003a4c04 W _ZN5Eigen10MatrixBaseINS_6MatrixIdLin1ELi3ELi0ELin1ELi3EEEEC1Ev
00000000003a4c04 W _ZN5Eigen10MatrixBaseINS_6MatrixIdLin1ELi3ELi0ELin1ELi3EEEEC2Ev
000000000036e14e W _ZN5Eigen10MatrixBaseINS_6MatrixIdLin1ELin1ELi0ELin1ELin1EEEEC1Ev
000000000036e14e W _ZN5Eigen10MatrixBaseINS_6MatrixIdLin1ELin1ELi0ELin1ELin1EEEEC2Ev
0000000000370410 W _ZN5Eigen10MatrixBaseINS_6MatrixIiLin1ELi1ELi0ELin1ELi1EEEEC1Ev
0000000000370410 W _ZN5Eigen10MatrixBaseINS_6MatrixIiLin1ELi1ELi0ELin1ELi1EEEEC2Ev
0000000000399a58 W _ZN5Eigen10MatrixBaseINS_6MatrixIlLin1ELi1ELi0ELin1ELi1EEEEC1Ev
0000000000399a58 W _ZN5Eigen10MatrixBaseINS_6MatrixIlLin1ELi1ELi0ELin1ELi1EEEEC2Ev
0000000000390212 W _ZN5Eigen10MatrixBaseINS_7ProductINS_12SparseMatrixIdLi1EiEENS1_IS3_NS_6MatrixIdLi3ELi1ELi0ELi3ELi1EEELi0EEELi0EEEEC1Ev
0000000000390212 W _ZN5Eigen10MatrixBaseINS_7ProductINS_12SparseMatrixIdLi1EiEENS1_IS3_NS_6MatrixIdLi3ELi1ELi0ELi3ELi1EEELi0EEELi0EEEEC2Ev
00000000003901f6 W _ZN5Eigen10MatrixBaseINS_7ProductINS_12SparseMatrixIdLi1EiEENS_6MatrixIdLi3ELi1ELi0ELi3ELi1EEELi0EEEEC1Ev
00000000003901f6 W _ZN5Eigen10MatrixBaseINS_7ProductINS_12SparseMatrixIdLi1EiEENS_6MatrixIdLi3ELi1ELi0ELi3ELi1EEELi0EEEEC2Ev
000000000041fc14 W _ZN5Eigen10MatrixBaseINS_7ProductINS_12SparseMatrixIdLi1EiEENS_6MatrixIdLin1ELi1ELi0ELin1ELi1EEELi0EEEEC1Ev
000000000041fc14 W _ZN5Eigen10MatrixBaseINS_7ProductINS_12SparseMatrixIdLi1EiEENS_6MatrixIdLin1ELi1ELi0ELin1ELi1EEELi0EEEEC2Ev
000000000039118c W _ZN5Eigen10MatrixBaseINS_7ProductINS_12SparseMatrixIdLi1EiEENS_9TransposeIKNS_6MatrixIdLi3ELi3ELi0ELi3ELi3EEEEELi0EEEEC1Ev
000000000039118c W _ZN5Eigen10MatrixBaseINS_7ProductINS_12SparseMatrixIdLi1EiEENS_9TransposeIKNS_6MatrixIdLi3ELi3ELi0ELi3ELi3EEEEELi0EEEEC2Ev
00000000003da0ee W _ZN5Eigen10MatrixBaseINS_7ProductINS_13CwiseBinaryOpINS_8internal17scalar_product_opIddEEKNS_14CwiseNullaryOpINS3_18scalar_constant_opIdEEKNS_6MatrixIdLi1ELin1ELi1ELi1ELin1EEEEEKNS_9TransposeIKNS2_INS3_20scalar_difference_opIddEEKNS9_IdLin1ELi1ELi0ELin1ELi1EEESI_EEEEEENS_15DiagonalWrapperISI_EELi1EEEEC1Ev
00000000003da0ee W _ZN5Eigen10MatrixBaseINS_7ProductINS_13CwiseBinaryOpINS_8internal17scalar_product_opIddEEKNS_14CwiseNullaryOpINS3_18scalar_constant_opIdEEKNS_6MatrixIdLi1ELin1ELi1ELi1ELin1EEEEEKNS_9TransposeIKNS2_INS3_20scalar_difference_opIddEEKNS9_IdLin1ELi1ELi0ELin1ELi1EEESI_EEEEEENS_15DiagonalWrapperISI_EELi1EEEEC2Ev
00000000003911c6 W _ZN5Eigen10MatrixBaseINS_7ProductINS1_INS_12SparseMatrixIdLi1EiEENS_9TransposeIKNS_6MatrixIdLi3ELi3ELi0ELi3ELi3EEEEELi0EEENS5_IdLi3ELi1ELi0ELi3ELi1EEELi0EEEEC1Ev
00000000003911c6 W _ZN5Eigen10MatrixBaseINS_7ProductINS1_INS_12SparseMatrixIdLi1EiEENS_9TransposeIKNS_6MatrixIdLi3ELi3ELi0ELi3ELi3EEEEELi0EEENS5_IdLi3ELi1ELi0ELi3ELi1EEELi0EEEEC2Ev
000000000039eda0 W _ZN5Eigen10MatrixBaseINS_7ProductINS1_INS_12SparseMatrixIdLi1EiEENS_9TransposeIKNS_6MatrixIdLi3ELi3ELi0ELi3ELi3EEEEELi0EEENS5_IdLi3ELi1ELi0ELi3ELi1EEELi1EEEEC1Ev
000000000039eda0 W _ZN5Eigen10MatrixBaseINS_7ProductINS1_INS_12SparseMatrixIdLi1EiEENS_9TransposeIKNS_6MatrixIdLi3ELi3ELi0ELi3ELi3EEEEELi0EEENS5_IdLi3ELi1ELi0ELi3ELi1EEELi1EEEEC2Ev
00000000003da14a W _ZN5Eigen10MatrixBaseINS_7ProductINS1_INS_13CwiseBinaryOpINS_8internal17scalar_product_opIddEEKNS_14CwiseNullaryOpINS3_18scalar_constant_opIdEEKNS_6MatrixIdLi1ELin1ELi1ELi1ELin1EEEEEKNS_9TransposeIKNS2_INS3_20scalar_difference_opIddEEKNS9_IdLin1ELi1ELi0ELin1ELi1EEESI_EEEEEENS_15DiagonalWrapperISI_EELi1EEESJ_Li0EEEEC1Ev
00000000003da14a W _ZN5Eigen10MatrixBaseINS_7ProductINS1_INS_13CwiseBinaryOpINS_8internal17scalar_product_opIddEEKNS_14CwiseNullaryOpINS3_18scalar_constant_opIdEEKNS_6MatrixIdLi1ELin1ELi1ELi1ELin1EEEEEKNS_9TransposeIKNS2_INS3_20scalar_difference_opIddEEKNS9_IdLin1ELi1ELi0ELin1ELi1EEESI_EEEEEENS_15DiagonalWrapperISI_EELi1EEESJ_Li0EEEEC2Ev
00000000003da34a W _ZN5Eigen10MatrixBaseINS_7ProductINS1_INS_9TransposeINS_12SparseMatrixIdLi1EiEEEENS_15DiagonalWrapperIKNS_6MatrixIdLin1ELi1ELi0ELin1ELi1EEEEELi0EEENS_13CwiseBinaryOpINS_8internal20scalar_difference_opIddEES9_S9_EELi0EEEEC1Ev
00000000003da34a W _ZN5Eigen10MatrixBaseINS_7ProductINS1_INS_9TransposeINS_12SparseMatrixIdLi1EiEEEENS_15DiagonalWrapperIKNS_6MatrixIdLin1ELi1ELi0ELin1ELi1EEEEELi0EEENS_13CwiseBinaryOpINS_8internal20scalar_difference_opIddEES9_S9_EELi0EEEEC2Ev
0000000000340efe W _ZN5Eigen10MatrixBaseINS_7ProductINS_6MatrixIdLi3ELi3ELi0ELi3ELi3EEENS2_IdLi3ELi1ELi0ELi3ELi1EEELi0EEEEC1Ev
0000000000340efe W _ZN5Eigen10MatrixBaseINS_7ProductINS_6MatrixIdLi3ELi3ELi0ELi3ELi3EEENS2_IdLi3ELi1ELi0ELi3ELi1EEELi0EEEEC2Ev
0000000000351dba W _ZN5Eigen10MatrixBaseINS_7ProductINS_6MatrixIdLi3ELi3ELi0ELi3ELi3EEENS2_IdLi3ELi1ELi0ELi3ELi1EEELi1EEEEC1Ev
0000000000351dba W _ZN5Eigen10MatrixBaseINS_7ProductINS_6MatrixIdLi3ELi3ELi0ELi3ELi3EEENS2_IdLi3ELi1ELi0ELi3ELi1EEELi1EEEEC2Ev
00000000003d3e42 W _ZN5Eigen10MatrixBaseINS_7ProductINS_6MatrixIdLin1ELin1ELi0ELin1ELin1EEENS2_IdLin1ELi1ELi0ELin1ELi1EEELi0EEEEC1Ev
00000000003d3e42 W _ZN5Eigen10MatrixBaseINS_7ProductINS_6MatrixIdLin1ELin1ELi0ELin1ELin1EEENS2_IdLin1ELi1ELi0ELin1ELi1EEELi0EEEEC2Ev
00000000003b8f02 W _ZN5Eigen10MatrixBaseINS_7ProductINS_9TransposeINS_6MatrixIdLi3ELi1ELi0ELi3ELi1EEEEENS_13CwiseBinaryOpINS_8internal13scalar_sum_opIddEEKS4_KNS6_INS7_17scalar_product_opIddEEKNS_14CwiseNullaryOpINS7_18scalar_constant_opIdEESA_EESA_EEEELi0EEEEC1Ev
00000000003b8f02 W _ZN5Eigen10MatrixBaseINS_7ProductINS_9TransposeINS_6MatrixIdLi3ELi1ELi0ELi3ELi1EEEEENS_13CwiseBinaryOpINS_8internal13scalar_sum_opIddEEKS4_KNS6_INS7_17scalar_product_opIddEEKNS_14CwiseNullaryOpINS7_18scalar_constant_opIdEESA_EESA_EEEELi0EEEEC2Ev
00000000003b8d92 W _ZN5Eigen10MatrixBaseINS_7ProductINS_9TransposeINS_6MatrixIdLi3ELi1ELi0ELi3ELi1EEEEENS_13CwiseBinaryOpINS_8internal20scalar_difference_opIddEEKS4_KNS6_INS7_17scalar_product_opIddEEKNS_14CwiseNullaryOpINS7_18scalar_constant_opIdEESA_EESA_EEEELi0EEEEC1Ev
00000000003b8d92 W _ZN5Eigen10MatrixBaseINS_7ProductINS_9TransposeINS_6MatrixIdLi3ELi1ELi0ELi3ELi1EEEEENS_13CwiseBinaryOpINS_8internal20scalar_difference_opIddEEKS4_KNS6_INS7_17scalar_product_opIddEEKNS_14CwiseNullaryOpINS7_18scalar_constant_opIdEESA_EESA_EEEELi0EEEEC2Ev
00000000003b8c22 W _ZN5Eigen10MatrixBaseINS_7ProductINS_9TransposeINS_6MatrixIdLi3ELi1ELi0ELi3ELi1EEEEES4_Li0EEEEC1Ev
00000000003b8c22 W _ZN5Eigen10MatrixBaseINS_7ProductINS_9TransposeINS_6MatrixIdLi3ELi1ELi0ELi3ELi1EEEEES4_Li0EEEEC2Ev
0000000000425f2a W _ZN5Eigen10MatrixBaseINS_8DiagonalIKNS_6MatrixIdLi3ELi3ELi0ELi3ELi3EEELi0EEEEC1Ev
0000000000425f2a W _ZN5Eigen10MatrixBaseINS_8DiagonalIKNS_6MatrixIdLi3ELi3ELi0ELi3ELi3EEELi0EEEEC2Ev
00000000003cc896 W _ZN5Eigen10MatrixBaseINS_9ReplicateINS_9TransposeINS_6MatrixIdLi3ELi1ELi0ELi3ELi1EEEEELi3ELi1EEEEC1Ev
00000000003cc896 W _ZN5Eigen10MatrixBaseINS_9ReplicateINS_9TransposeINS_6MatrixIdLi3ELi1ELi0ELi3ELi1EEEEELi3ELi1EEEEC2Ev
00000000003da068 W _ZN5Eigen10MatrixBaseINS_9TransposeIKNS_13CwiseBinaryOpINS_8internal20scalar_difference_opIddEEKNS_6MatrixIdLin1ELi1ELi0ELin1ELi1EEES8_EEEEEC1Ev
00000000003da068 W _ZN5Eigen10MatrixBaseINS_9TransposeIKNS_13CwiseBinaryOpINS_8internal20scalar_difference_opIddEEKNS_6MatrixIdLin1ELi1ELi0ELin1ELi1EEES8_EEEEEC2Ev
00000000003ba8a0 W _ZN5Eigen10MatrixBaseINS_9TransposeIKNS1_INS_6MatrixIdLi3ELi1ELi0ELi3ELi1EEEEEEEEC1Ev
00000000003ba8a0 W _ZN5Eigen10MatrixBaseINS_9TransposeIKNS1_INS_6MatrixIdLi3ELi1ELi0ELi3ELi1EEEEEEEEC2Ev
0000000000353cae W _ZN5Eigen10MatrixBaseINS_9TransposeIKNS_5BlockIKNS_6MatrixIdLi3ELi3ELi0ELi3ELi3EEELi1ELi3ELb0EEEEEEC1Ev
0000000000353cae W _ZN5Eigen10MatrixBaseINS_9TransposeIKNS_5BlockIKNS_6MatrixIdLi3ELi3ELi0ELi3ELi3EEELi1ELi3ELb0EEEEEEC2Ev
00000000003a70f2 W _ZN5Eigen10MatrixBaseINS_9TransposeIKNS_5BlockIKNS_6MatrixIdLin1ELi3ELi0ELin1ELi3EEELi1ELi3ELb0EEEEEEC1Ev
00000000003a70f2 W _ZN5Eigen10MatrixBaseINS_9TransposeIKNS_5BlockIKNS_6MatrixIdLin1ELi3ELi0ELin1ELi3EEELi1ELi3ELb0EEEEEEC2Ev
000000000038fdde W _ZN5Eigen10MatrixBaseINS_9TransposeIKNS_6MatrixIdLi3ELi3ELi0ELi3ELi3EEEEEEC1Ev
000000000038fdde W _ZN5Eigen10MatrixBaseINS_9TransposeIKNS_6MatrixIdLi3ELi3ELi0ELi3ELi3EEEEEEC2Ev
00000000003dd21a W _ZN5Eigen10MatrixBaseINS_9TransposeIKNS_6MatrixIdLin1ELi1ELi0ELin1ELi1EEEEEEC1Ev
00000000003dd21a W _ZN5Eigen10MatrixBaseINS_9TransposeIKNS_6MatrixIdLin1ELi1ELi0ELin1ELi1EEEEEEC2Ev
00000000003dbf34 W _ZN5Eigen10MatrixBaseINS_9TransposeIKNS_7ProductINS_13CwiseBinaryOpINS_8internal17scalar_product_opIddEEKNS_14CwiseNullaryOpINS4_18scalar_constant_opIdEEKNS_6MatrixIdLi1ELin1ELi1ELi1ELin1EEEEEKNS1_IKNS3_INS4_20scalar_difference_opIddEEKNSA_IdLin1ELi1ELi0ELin1ELi1EEESI_EEEEEENS_15DiagonalWrapperISI_EELi1EEEEEEC1Ev
00000000003dbf34 W _ZN5Eigen10MatrixBaseINS_9TransposeIKNS_7ProductINS_13CwiseBinaryOpINS_8internal17scalar_product_opIddEEKNS_14CwiseNullaryOpINS4_18scalar_constant_opIdEEKNS_6MatrixIdLi1ELin1ELi1ELi1ELin1EEEEEKNS1_IKNS3_INS4_20scalar_difference_opIddEEKNSA_IdLin1ELi1ELi0ELin1ELi1EEESI_EEEEEENS_15DiagonalWrapperISI_EELi1EEEEEEC2Ev
00000000003b8c06 W _ZN5Eigen10MatrixBaseINS_9TransposeINS_6MatrixIdLi3ELi1ELi0ELi3ELi1EEEEEEC1Ev
00000000003b8c06 W _ZN5Eigen10MatrixBaseINS_9TransposeINS_6MatrixIdLi3ELi1ELi0ELi3ELi1EEEEEEC2Ev
00000000003da51c W _ZN5Eigen10MatrixBaseINS_9TransposeINS_6MatrixIdLin1ELi1ELi0ELin1ELi1EEEEEEC1Ev
00000000003da51c W _ZN5Eigen10MatrixBaseINS_9TransposeINS_6MatrixIdLin1ELi1ELi0ELin1ELi1EEEEEEC2Ev
0000000000423a04 W _ZN5Eigen10QuaternionIdLi0EE6coeffsEv
000000000041747a W _ZN5Eigen10QuaternionIdLi0EEC1INS_6MatrixIdLi3ELi3ELi0ELi3ELi3EEEEERKNS_10MatrixBaseIT_EE
000000000041747a W _ZN5Eigen10QuaternionIdLi0EEC2INS_6MatrixIdLi3ELi3ELi0ELi3ELi3EEEEERKNS_10MatrixBaseIT_EE
000000000038b49e W _ZN5Eigen10SparseViewINS_6MatrixIdLi3ELi3ELi0ELi3ELi3EEEEC1ERKS2_RKdS7_
000000000038b49e W _ZN5Eigen10SparseViewINS_6MatrixIdLi3ELi3ELi0ELi3ELi3EEEEC2ERKS2_RKdS7_
000000000036cfee W _ZN5Eigen10SparseViewINS_6MatrixIdLin1ELin1ELi0ELin1ELin1EEEEC1ERKS2_RKdS7_
000000000036cfee W _ZN5Eigen10SparseViewINS_6MatrixIdLin1ELin1ELi0ELin1ELin1EEEEC2ERKS2_RKdS7_
000000000038ba56 W _ZN5Eigen10SparseViewINS_9TransposeIKNS_6MatrixIdLi3ELi3ELi0ELi3ELi3EEEEEEC1ERKS5_RKdSA_
000000000038ba56 W _ZN5Eigen10SparseViewINS_9TransposeIKNS_6MatrixIdLi3ELi3ELi0ELi3ELi3EEEEEEC2ERKS5_RKdSA_
000000000041c8e0 W _ZN5Eigen10SparseViewINS_9TransposeIKNS_6MatrixIdLin1ELi1ELi0ELin1ELi1EEEEEEC1ERKS5_RKdSA_
000000000041c8e0 W _ZN5Eigen10SparseViewINS_9TransposeIKNS_6MatrixIdLin1ELi1ELi0ELin1ELi1EEEEEEC2ERKS5_RKdSA_
00000000003d9eb4 W _ZN5Eigen10SparseViewINS_9TransposeINS_6MatrixIdLin1ELi1ELi0ELin1ELi1EEEEEEC1ERKS4_RKdS9_
00000000003d9eb4 W _ZN5Eigen10SparseViewINS_9TransposeINS_6MatrixIdLin1ELi1ELi0ELin1ELi1EEEEEEC2ERKS4_RKdS9_
000000000038b948 W _ZN5Eigen11ProductImplINS_10SparseViewINS_6MatrixIdLi3ELi3ELi0ELi3ELi3EEEEENS_12SparseMatrixIdLi1EiEELi2ENS_6SparseEEC1Ev
000000000038b948 W _ZN5Eigen11ProductImplINS_10SparseViewINS_6MatrixIdLi3ELi3ELi0ELi3ELi3EEEEENS_12SparseMatrixIdLi1EiEELi2ENS_6SparseEEC2Ev
000000000038e212 W _ZN5Eigen11ProductImplINS_12CwiseUnaryOpINS_8internal18scalar_opposite_opIdEEKNS_12SparseMatrixIdLi1EiEEEES6_Li2ENS_6SparseEEC1Ev
000000000038e212 W _ZN5Eigen11ProductImplINS_12CwiseUnaryOpINS_8internal18scalar_opposite_opIdEEKNS_12SparseMatrixIdLi1EiEEEES6_Li2ENS_6SparseEEC2Ev
000000000038e760 W _ZN5Eigen11ProductImplINS_12SparseMatrixIdLi1EiEENS_12CwiseUnaryOpINS_8internal18scalar_opposite_opIdEEKS2_EELi2ENS_6SparseEEC1Ev
000000000038e760 W _ZN5Eigen11ProductImplINS_12SparseMatrixIdLi1EiEENS_12CwiseUnaryOpINS_8internal18scalar_opposite_opIdEEKS2_EELi2ENS_6SparseEEC2Ev
000000000038d8e2 W _ZN5Eigen11ProductImplINS_12SparseMatrixIdLi1EiEENS_13CwiseBinaryOpINS_8internal13scalar_sum_opIddEEKNS3_IS6_KS2_S7_EES7_EELi2ENS_6SparseEEC1Ev
000000000038d8e2 W _ZN5Eigen11ProductImplINS_12SparseMatrixIdLi1EiEENS_13CwiseBinaryOpINS_8internal13scalar_sum_opIddEEKNS3_IS6_KS2_S7_EES7_EELi2ENS_6SparseEEC2Ev
000000000038bd0a W _ZN5Eigen11ProductImplINS_12SparseMatrixIdLi1EiEENS_6MatrixIdLi3ELi1ELi0ELi3ELi1EEELi0ENS_5DenseEEC1Ev
000000000038bd0a W _ZN5Eigen11ProductImplINS_12SparseMatrixIdLi1EiEENS_6MatrixIdLi3ELi1ELi0ELi3ELi1EEELi0ENS_5DenseEEC2Ev
000000000041c6c8 W _ZN5Eigen11ProductImplINS_12SparseMatrixIdLi1EiEENS_6MatrixIdLin1ELi1ELi0ELin1ELi1EEELi0ENS_5DenseEEC1Ev
000000000041c6c8 W _ZN5Eigen11ProductImplINS_12SparseMatrixIdLi1EiEENS_6MatrixIdLin1ELi1ELi0ELin1ELi1EEELi0ENS_5DenseEEC2Ev
000000000038bdd0 W _ZN5Eigen11ProductImplINS_12SparseMatrixIdLi1EiEENS_7ProductIS2_NS_6MatrixIdLi3ELi1ELi0ELi3ELi1EEELi0EEELi0ENS_5DenseEEC1Ev
000000000038bdd0 W _ZN5Eigen11ProductImplINS_12SparseMatrixIdLi1EiEENS_7ProductIS2_NS_6MatrixIdLi3ELi1ELi0ELi3ELi1EEELi0EEELi0ENS_5DenseEEC2Ev
000000000038d3ca W _ZN5Eigen11ProductImplINS_12SparseMatrixIdLi1EiEENS_9TransposeIKNS_6MatrixIdLi3ELi3ELi0ELi3ELi3EEEEELi0ENS_5DenseEEC1Ev
000000000038d3ca W _ZN5Eigen11ProductImplINS_12SparseMatrixIdLi1EiEENS_9TransposeIKNS_6MatrixIdLi3ELi3ELi0ELi3ELi3EEEEELi0ENS_5DenseEEC2Ev
000000000038c500 W _ZN5Eigen11ProductImplINS_12SparseMatrixIdLi1EiEES2_Li2ENS_6SparseEEC1Ev
000000000038c500 W _ZN5Eigen11ProductImplINS_12SparseMatrixIdLi1EiEES2_Li2ENS_6SparseEEC2Ev
000000000041cb1a W _ZN5Eigen11ProductImplINS_12SparseVectorIdLi1EiEENS_12SparseMatrixIdLi1EiEELi2ENS_6SparseEEC1Ev
000000000041cb1a W _ZN5Eigen11ProductImplINS_12SparseVectorIdLi1EiEENS_12SparseMatrixIdLi1EiEELi2ENS_6SparseEEC2Ev
00000000003d9a36 W _ZN5Eigen11ProductImplINS_13CwiseBinaryOpINS_8internal17scalar_product_opIddEEKNS_14CwiseNullaryOpINS2_18scalar_constant_opIdEEKNS_6MatrixIdLi1ELin1ELi1ELi1ELin1EEEEEKNS_9TransposeIKNS1_INS2_20scalar_difference_opIddEEKNS8_IdLin1ELi1ELi0ELin1ELi1EEESH_EEEEEENS_15DiagonalWrapperISH_EELi1ENS_5DenseEEC1Ev
00000000003d9a36 W _ZN5Eigen11ProductImplINS_13CwiseBinaryOpINS_8internal17scalar_product_opIddEEKNS_14CwiseNullaryOpINS2_18scalar_constant_opIdEEKNS_6MatrixIdLi1ELin1ELi1ELi1ELin1EEEEEKNS_9TransposeIKNS1_INS2_20scalar_difference_opIddEEKNS8_IdLin1ELi1ELi0ELin1ELi1EEESH_EEEEEENS_15DiagonalWrapperISH_EELi1ENS_5DenseEEC2Ev
00000000003cbe40 W _ZN5Eigen11ProductImplINS_13CwiseBinaryOpINS_8internal17scalar_product_opIddEEKNS_14CwiseNullaryOpINS2_18scalar_constant_opIdEEKNS_6MatrixIdLin1ELin1ELi1ELin1ELin1EEEEEKNS_12SparseMatrixIdLi1EiEEEENS_7ProductISG_SE_Li2EEELi2ENS_6SparseEEC1Ev
00000000003cbe40 W _ZN5Eigen11ProductImplINS_13CwiseBinaryOpINS_8internal17scalar_product_opIddEEKNS_14CwiseNullaryOpINS2_18scalar_constant_opIdEEKNS_6MatrixIdLin1ELin1ELi1ELin1ELin1EEEEEKNS_12SparseMatrixIdLi1EiEEEENS_7ProductISG_SE_Li2EEELi2ENS_6SparseEEC2Ev
00000000003c4d50 W _ZN5Eigen11ProductImplINS_13CwiseBinaryOpINS_8internal17scalar_product_opIddEEKNS_14CwiseNullaryOpINS2_18scalar_constant_opIdEEKNS_6MatrixIdLin1ELin1ELi1ELin1ELin1EEEEEKNS_12SparseMatrixIdLi1EiEEEESE_Li2ENS_6SparseEEC1Ev
00000000003c4d50 W _ZN5Eigen11ProductImplINS_13CwiseBinaryOpINS_8internal17scalar_product_opIddEEKNS_14CwiseNullaryOpINS2_18scalar_constant_opIdEEKNS_6MatrixIdLin1ELin1ELi1ELin1ELin1EEEEEKNS_12SparseMatrixIdLi1EiEEEESE_Li2ENS_6SparseEEC2Ev
000000000041cbc4 W _ZN5Eigen11ProductImplINS_5BlockINS_12SparseMatrixIdLi1EiEELi1ELin1ELb1EEES3_Li2ENS_6SparseEEC1Ev
000000000041cbc4 W _ZN5Eigen11ProductImplINS_5BlockINS_12SparseMatrixIdLi1EiEELi1ELin1ELb1EEES3_Li2ENS_6SparseEEC2Ev
000000000033cf1e W _ZN5Eigen11ProductImplINS_6MatrixIdLi3ELi3ELi0ELi3ELi3EEENS1_IdLi3ELi1ELi0ELi3ELi1EEELi0ENS_5DenseEEC1Ev
000000000033cf1e W _ZN5Eigen11ProductImplINS_6MatrixIdLi3ELi3ELi0ELi3ELi3EEENS1_IdLi3ELi1ELi0ELi3ELi1EEELi0ENS_5DenseEEC2Ev
00000000003519fa W _ZN5Eigen11ProductImplINS_6MatrixIdLi3ELi3ELi0ELi3ELi3EEENS1_IdLi3ELi1ELi0ELi3ELi1EEELi1ENS_5DenseEEC1Ev
00000000003519fa W _ZN5Eigen11ProductImplINS_6MatrixIdLi3ELi3ELi0ELi3ELi3EEENS1_IdLi3ELi1ELi0ELi3ELi1EEELi1ENS_5DenseEEC2Ev
00000000003d3c6a W _ZN5Eigen11ProductImplINS_6MatrixIdLin1ELin1ELi0ELin1ELin1EEENS1_IdLin1ELi1ELi0ELin1ELi1EEELi0ENS_5DenseEEC1Ev
00000000003d3c6a W _ZN5Eigen11ProductImplINS_6MatrixIdLin1ELin1ELi0ELin1ELin1EEENS1_IdLin1ELi1ELi0ELin1ELi1EEELi0ENS_5DenseEEC2Ev
000000000038bace W _ZN5Eigen11ProductImplINS_7ProductINS_10SparseViewINS_6MatrixIdLi3ELi3ELi0ELi3ELi3EEEEENS_12SparseMatrixIdLi1EiEELi2EEENS2_INS_9TransposeIKS4_EEEELi2ENS_6SparseEEC1Ev
000000000038bace W _ZN5Eigen11ProductImplINS_7ProductINS_10SparseViewINS_6MatrixIdLi3ELi3ELi0ELi3ELi3EEEEENS_12SparseMatrixIdLi1EiEELi2EEENS2_INS_9TransposeIKS4_EEEELi2ENS_6SparseEEC2Ev
000000000038d5a0 W _ZN5Eigen11ProductImplINS_7ProductINS_10SparseViewINS_6MatrixIdLi3ELi3ELi0ELi3ELi3EEEEENS_12SparseMatrixIdLi1EiEELi2EEES7_Li2ENS_6SparseEEC1Ev
000000000038d5a0 W _ZN5Eigen11ProductImplINS_7ProductINS_10SparseViewINS_6MatrixIdLi3ELi3ELi0ELi3ELi3EEEEENS_12SparseMatrixIdLi1EiEELi2EEES7_Li2ENS_6SparseEEC2Ev
000000000038d496 W _ZN5Eigen11ProductImplINS_7ProductINS_12SparseMatrixIdLi1EiEENS_9TransposeIKNS_6MatrixIdLi3ELi3ELi0ELi3ELi3EEEEELi0EEENS5_IdLi3ELi1ELi0ELi3ELi1EEELi0ENS_5DenseEEC1Ev
000000000038d496 W _ZN5Eigen11ProductImplINS_7ProductINS_12SparseMatrixIdLi1EiEENS_9TransposeIKNS_6MatrixIdLi3ELi3ELi0ELi3ELi3EEEEELi0EEENS5_IdLi3ELi1ELi0ELi3ELi1EEELi0ENS_5DenseEEC2Ev
000000000039db18 W _ZN5Eigen11ProductImplINS_7ProductINS_12SparseMatrixIdLi1EiEENS_9TransposeIKNS_6MatrixIdLi3ELi3ELi0ELi3ELi3EEEEELi0EEENS5_IdLi3ELi1ELi0ELi3ELi1EEELi1ENS_5DenseEEC1Ev
000000000039db18 W _ZN5Eigen11ProductImplINS_7ProductINS_12SparseMatrixIdLi1EiEENS_9TransposeIKNS_6MatrixIdLi3ELi3ELi0ELi3ELi3EEEEELi0EEENS5_IdLi3ELi1ELi0ELi3ELi1EEELi1ENS_5DenseEEC2Ev
00000000003d9b0a W _ZN5Eigen11ProductImplINS_7ProductINS_13CwiseBinaryOpINS_8internal17scalar_product_opIddEEKNS_14CwiseNullaryOpINS3_18scalar_constant_opIdEEKNS_6MatrixIdLi1ELin1ELi1ELi1ELin1EEEEEKNS_9TransposeIKNS2_INS3_20scalar_difference_opIddEEKNS9_IdLin1ELi1ELi0ELin1ELi1EEESI_EEEEEENS_15DiagonalWrapperISI_EELi1EEESJ_Li0ENS_5DenseEEC1Ev
00000000003d9b0a W _ZN5Eigen11ProductImplINS_7ProductINS_13CwiseBinaryOpINS_8internal17scalar_product_opIddEEKNS_14CwiseNullaryOpINS3_18scalar_constant_opIdEEKNS_6MatrixIdLi1ELin1ELi1ELi1ELin1EEEEEKNS_9TransposeIKNS2_INS3_20scalar_difference_opIddEEKNS9_IdLin1ELi1ELi0ELin1ELi1EEESI_EEEEEENS_15DiagonalWrapperISI_EELi1EEESJ_Li0ENS_5DenseEEC2Ev
00000000003cbf96 W _ZN5Eigen11ProductImplINS_7ProductINS_13CwiseBinaryOpINS_8internal17scalar_product_opIddEEKNS_14CwiseNullaryOpINS3_18scalar_constant_opIdEEKNS_6MatrixIdLin1ELin1ELi1ELin1ELin1EEEEEKNS_12SparseMatrixIdLi1EiEEEESF_Li2EEESF_Li2ENS_6SparseEEC1Ev
00000000003cbf96 W _ZN5Eigen11ProductImplINS_7ProductINS_13CwiseBinaryOpINS_8internal17scalar_product_opIddEEKNS_14CwiseNullaryOpINS3_18scalar_constant_opIdEEKNS_6MatrixIdLin1ELin1ELi1ELin1ELin1EEEEEKNS_12SparseMatrixIdLi1EiEEEESF_Li2EEESF_Li2ENS_6SparseEEC2Ev
00000000003d9d18 W _ZN5Eigen11ProductImplINS_7ProductINS_9TransposeINS_12SparseMatrixIdLi1EiEEEENS_15DiagonalWrapperIKNS_6MatrixIdLin1ELi1ELi0ELin1ELi1EEEEELi0EEENS_13CwiseBinaryOpINS_8internal20scalar_difference_opIddEES9_S9_EELi0ENS_5DenseEEC1Ev
00000000003d9d18 W _ZN5Eigen11ProductImplINS_7ProductINS_9TransposeINS_12SparseMatrixIdLi1EiEEEENS_15DiagonalWrapperIKNS_6MatrixIdLin1ELi1ELi0ELin1ELi1EEEEELi0EEENS_13CwiseBinaryOpINS_8internal20scalar_difference_opIddEES9_S9_EELi0ENS_5DenseEEC2Ev
00000000003d9c3e W _ZN5Eigen11ProductImplINS_9TransposeINS_12SparseMatrixIdLi1EiEEEENS_15DiagonalWrapperIKNS_6MatrixIdLin1ELi1ELi0ELin1ELi1EEEEELi0ENS_6SparseEEC1Ev
00000000003d9c3e W _ZN5Eigen11ProductImplINS_9TransposeINS_12SparseMatrixIdLi1EiEEEENS_15DiagonalWrapperIKNS_6MatrixIdLin1ELi1ELi0ELin1ELi1EEEEELi0ENS_6SparseEEC2Ev
00000000003b8aa6 W _ZN5Eigen11ProductImplINS_9TransposeINS_6MatrixIdLi3ELi1ELi0ELi3ELi1EEEEENS_13CwiseBinaryOpINS_8internal13scalar_sum_opIddEEKS3_KNS5_INS6_17scalar_product_opIddEEKNS_14CwiseNullaryOpINS6_18scalar_constant_opIdEES9_EES9_EEEELi0ENS_5DenseEEC1Ev
00000000003b8aa6 W _ZN5Eigen11ProductImplINS_9TransposeINS_6MatrixIdLi3ELi1ELi0ELi3ELi1EEEEENS_13CwiseBinaryOpINS_8internal13scalar_sum_opIddEEKS3_KNS5_INS6_17scalar_product_opIddEEKNS_14CwiseNullaryOpINS6_18scalar_constant_opIdEES9_EES9_EEEELi0ENS_5DenseEEC2Ev
00000000003b88b0 W _ZN5Eigen11ProductImplINS_9TransposeINS_6MatrixIdLi3ELi1ELi0ELi3ELi1EEEEENS_13CwiseBinaryOpINS_8internal20scalar_difference_opIddEEKS3_KNS5_INS6_17scalar_product_opIddEEKNS_14CwiseNullaryOpINS6_18scalar_constant_opIdEES9_EES9_EEEELi0ENS_5DenseEEC1Ev
00000000003b88b0 W _ZN5Eigen11ProductImplINS_9TransposeINS_6MatrixIdLi3ELi1ELi0ELi3ELi1EEEEENS_13CwiseBinaryOpINS_8internal20scalar_difference_opIddEEKS3_KNS5_INS6_17scalar_product_opIddEEKNS_14CwiseNullaryOpINS6_18scalar_constant_opIdEES9_EES9_EEEELi0ENS_5DenseEEC2Ev
00000000003b8688 W _ZN5Eigen11ProductImplINS_9TransposeINS_6MatrixIdLi3ELi1ELi0ELi3ELi1EEEEES3_Li0ENS_5DenseEEC1Ev
00000000003b8688 W _ZN5Eigen11ProductImplINS_9TransposeINS_6MatrixIdLi3ELi1ELi0ELi3ELi1EEEEES3_Li0ENS_5DenseEEC2Ev
000000000038bcac W _ZN5Eigen11VectorBlockINS_6MatrixIdLi6ELi1ELi0ELi6ELi1EEELin1EEC1ERS2_ll
000000000038bcac W _ZN5Eigen11VectorBlockINS_6MatrixIdLi6ELi1ELi0ELi6ELi1EEELin1EEC2ERS2_ll
00000000003bf328 W _ZN5Eigen11VectorBlockINS_6MatrixIdLin1ELi1ELi0ELin1ELi1EEELin1EEC1ERS2_ll
00000000003bf328 W _ZN5Eigen11VectorBlockINS_6MatrixIdLin1ELi1ELi0ELin1ELi1EEELin1EEC2ERS2_ll
00000000003cbbee W _ZN5Eigen12ArrayWrapperINS_6MatrixIdLi3ELi3ELi0ELi3ELi3EEEEC1ERS2_
00000000003cbbee W _ZN5Eigen12ArrayWrapperINS_6MatrixIdLi3ELi3ELi0ELi3ELi3EEEEC2ERS2_
00000000003f35ce W _ZN5Eigen12CwiseUnaryOpINS_8internal14scalar_abs2_opIdEEKNS_6MatrixIdLi3ELi1ELi0ELi3ELi1EEEEC1ERS6_RKS3_
00000000003f35ce W _ZN5Eigen12CwiseUnaryOpINS_8internal14scalar_abs2_opIdEEKNS_6MatrixIdLi3ELi1ELi0ELi3ELi1EEEEC2ERS6_RKS3_
000000000038a86c W _ZN5Eigen12CwiseUnaryOpINS_8internal18scalar_opposite_opIdEEKNS_12SparseMatrixIdLi1EiEEEC1ERKS7_
000000000038cccc W _ZN5Eigen12CwiseUnaryOpINS_8internal18scalar_opposite_opIdEEKNS_12SparseMatrixIdLi1EiEEEC1ERS6_RKS3_
000000000038a86c W _ZN5Eigen12CwiseUnaryOpINS_8internal18scalar_opposite_opIdEEKNS_12SparseMatrixIdLi1EiEEEC2ERKS7_
000000000038cccc W _ZN5Eigen12CwiseUnaryOpINS_8internal18scalar_opposite_opIdEEKNS_12SparseMatrixIdLi1EiEEEC2ERS6_RKS3_
00000000003fdf2e W _ZN5Eigen12CwiseUnaryOpINS_8internal18scalar_opposite_opIdEEKNS_13CwiseBinaryOpINS1_13scalar_sum_opIddEEKNS4_INS1_17scalar_product_opIddEEKNS_14CwiseNullaryOpINS1_18scalar_constant_opIdEEKNS_6MatrixIdLin1ELi1ELi0ELin1ELi1EEEEEKNS4_INS1_20scalar_difference_opIddEESE_SE_EEEEKNS4_IS8_SG_KNS4_IS6_KNS4_IS8_SG_SE_EESE_EEEEEEEC1ERKSV_
00000000003ff882 W _ZN5Eigen12CwiseUnaryOpINS_8internal18scalar_opposite_opIdEEKNS_13CwiseBinaryOpINS1_13scalar_sum_opIddEEKNS4_INS1_17scalar_product_opIddEEKNS_14CwiseNullaryOpINS1_18scalar_constant_opIdEEKNS_6MatrixIdLin1ELi1ELi0ELin1ELi1EEEEEKNS4_INS1_20scalar_difference_opIddEESE_SE_EEEEKNS4_IS8_SG_KNS4_IS6_KNS4_IS8_SG_SE_EESE_EEEEEEEC1ERSU_RKS3_
00000000003fdf2e W _ZN5Eigen12CwiseUnaryOpINS_8internal18scalar_opposite_opIdEEKNS_13CwiseBinaryOpINS1_13scalar_sum_opIddEEKNS4_INS1_17scalar_product_opIddEEKNS_14CwiseNullaryOpINS1_18scalar_constant_opIdEEKNS_6MatrixIdLin1ELi1ELi0ELin1ELi1EEEEEKNS4_INS1_20scalar_difference_opIddEESE_SE_EEEEKNS4_IS8_SG_KNS4_IS6_KNS4_IS8_SG_SE_EESE_EEEEEEEC2ERKSV_
00000000003ff882 W _ZN5Eigen12CwiseUnaryOpINS_8internal18scalar_opposite_opIdEEKNS_13CwiseBinaryOpINS1_13scalar_sum_opIddEEKNS4_INS1_17scalar_product_opIddEEKNS_14CwiseNullaryOpINS1_18scalar_constant_opIdEEKNS_6MatrixIdLin1ELi1ELi0ELin1ELi1EEEEEKNS4_INS1_20scalar_difference_opIddEESE_SE_EEEEKNS4_IS8_SG_KNS4_IS6_KNS4_IS8_SG_SE_EESE_EEEEEEEC2ERSU_RKS3_
00000000003cba42 W _ZN5Eigen12CwiseUnaryOpINS_8internal18scalar_opposite_opIdEEKNS_6MatrixIdLi3ELi3ELi0ELi3ELi3EEEEC1ERS6_RKS3_
00000000003cba42 W _ZN5Eigen12CwiseUnaryOpINS_8internal18scalar_opposite_opIdEEKNS_6MatrixIdLi3ELi3ELi0ELi3ELi3EEEEC2ERS6_RKS3_
00000000003b9db8 W _ZN5Eigen12DenseStorageIdLi1ELi1ELi1ELi0EE4dataEv
00000000003b9dc6 W _ZN5Eigen12DenseStorageIdLi1ELi1ELi1ELi0EE4rowsEv
00000000003ba87a W _ZN5Eigen12DenseStorageIdLi1ELi1ELi1ELi0EE6resizeElll
00000000003b9d00 W _ZN5Eigen12DenseStorageIdLi1ELi1ELi1ELi0EEC1Ev
00000000003b9d00 W _ZN5Eigen12DenseStorageIdLi1ELi1ELi1ELi0EEC2Ev
00000000003b3244 W _ZN5Eigen12DenseStorageIdLi2ELi2ELi1ELi0EE4colsEv
00000000003b3239 W _ZN5Eigen12DenseStorageIdLi2ELi2ELi1ELi0EE4rowsEv
00000000003b3d4c W _ZN5Eigen12DenseStorageIdLi2ELi2ELi1ELi0EE6resizeElll
00000000003b2f66 W _ZN5Eigen12DenseStorageIdLi2ELi2ELi1ELi0EEC1Ev
00000000003b2f66 W _ZN5Eigen12DenseStorageIdLi2ELi2ELi1ELi0EEC2Ev
0000000000345bf4 W _ZN5Eigen12DenseStorageIdLi3ELi3ELi1ELi0EE4colsEv
000000000033c912 W _ZN5Eigen12DenseStorageIdLi3ELi3ELi1ELi0EE4dataEv
00000000003449f6 W _ZN5Eigen12DenseStorageIdLi3ELi3ELi1ELi0EE4rowsEv
0000000000347652 W _ZN5Eigen12DenseStorageIdLi3ELi3ELi1ELi0EE6resizeElll
0000000000378572 W _ZN5Eigen12DenseStorageIdLi3ELi3ELi1ELi0EEC1ERKS1_
000000000033e990 W _ZN5Eigen12DenseStorageIdLi3ELi3ELi1ELi0EEC1Ev
0000000000378572 W _ZN5Eigen12DenseStorageIdLi3ELi3ELi1ELi0EEC2ERKS1_
000000000033e990 W _ZN5Eigen12DenseStorageIdLi3ELi3ELi1ELi0EEC2Ev
0000000000429f6f W _ZN5Eigen12DenseStorageIdLi4ELi4ELi1ELi0EE4colsEv
0000000000423a92 W _ZN5Eigen12DenseStorageIdLi4ELi4ELi1ELi0EE4dataEv
0000000000429f64 W _ZN5Eigen12DenseStorageIdLi4ELi4ELi1ELi0EE4rowsEv
0000000000421d0e W _ZN5Eigen12DenseStorageIdLi4ELi4ELi1ELi0EEC1Ev
0000000000421d0e W _ZN5Eigen12DenseStorageIdLi4ELi4ELi1ELi0EEC2Ev
00000000003955ef W _ZN5Eigen12DenseStorageIdLi6ELi6ELi1ELi0EE4colsEv
0000000000399fd2 W _ZN5Eigen12DenseStorageIdLi6ELi6ELi1ELi0EE4dataEv
00000000003955e4 W _ZN5Eigen12DenseStorageIdLi6ELi6ELi1ELi0EE4rowsEv
0000000000390104 W _ZN5Eigen12DenseStorageIdLi6ELi6ELi1ELi0EEC1Ev
0000000000390104 W _ZN5Eigen12DenseStorageIdLi6ELi6ELi1ELi0EEC2Ev
00000000003449eb W _ZN5Eigen12DenseStorageIdLi9ELi3ELi3ELi0EE4colsEv
0000000000378884 W _ZN5Eigen12DenseStorageIdLi9ELi3ELi3ELi0EE4dataEv
0000000000347646 W _ZN5Eigen12DenseStorageIdLi9ELi3ELi3ELi0EE4rowsEv
00000000003475d4 W _ZN5Eigen12DenseStorageIdLi9ELi3ELi3ELi0EE6resizeElll
00000000003787f2 W _ZN5Eigen12DenseStorageIdLi9ELi3ELi3ELi0EEC1ERKS1_
0000000000340df2 W _ZN5Eigen12DenseStorageIdLi9ELi3ELi3ELi0EEC1Ev
00000000003787f2 W _ZN5Eigen12DenseStorageIdLi9ELi3ELi3ELi0EEC2ERKS1_
0000000000340df2 W _ZN5Eigen12DenseStorageIdLi9ELi3ELi3ELi0EEC2Ev
0000000000344a6b W _ZN5Eigen12DenseStorageIdLin1ELin1ELi1ELi0EE4colsEv
00000000003a9500 W _ZN5Eigen12DenseStorageIdLin1ELin1ELi1ELi0EE4dataEv
00000000003da6ea W _ZN5Eigen12DenseStorageIdLin1ELin1ELi1ELi0EE4swapERS1_
0000000000347152 W _ZN5Eigen12DenseStorageIdLin1ELin1ELi1ELi0EE6resizeElll
000000000040193a W _ZN5Eigen12DenseStorageIdLin1ELin1ELi1ELi0EEC1EOS1_
0000000000361804 W _ZN5Eigen12DenseStorageIdLin1ELin1ELi1ELi0EEC1ERKS1_
000000000034073e W _ZN5Eigen12DenseStorageIdLin1ELin1ELi1ELi0EEC1Ev
000000000040193a W _ZN5Eigen12DenseStorageIdLin1ELin1ELi1ELi0EEC2EOS1_
0000000000361804 W _ZN5Eigen12DenseStorageIdLin1ELin1ELi1ELi0EEC2ERKS1_
000000000034073e W _ZN5Eigen12DenseStorageIdLin1ELin1ELi1ELi0EEC2Ev
000000000033978a W _ZN5Eigen12DenseStorageIdLin1ELin1ELi1ELi0EED1Ev
000000000033978a W _ZN5Eigen12DenseStorageIdLin1ELin1ELi1ELi0EED2Ev
00000000003a75fa W _ZN5Eigen12DenseStorageIdLin1ELin1ELi3ELi0EE4colsEv
00000000003aabf6 W _ZN5Eigen12DenseStorageIdLin1ELin1ELi3ELi0EE4dataEv
00000000003a7606 W _ZN5Eigen12DenseStorageIdLin1ELin1ELi3ELi0EE6resizeElll
00000000003a4c20 W _ZN5Eigen12DenseStorageIdLin1ELin1ELi3ELi0EEC1Ev
00000000003a4c20 W _ZN5Eigen12DenseStorageIdLin1ELin1ELi3ELi0EEC2Ev
000000000039fb92 W _ZN5Eigen12DenseStorageIdLin1ELin1ELi3ELi0EED1Ev
000000000039fb92 W _ZN5Eigen12DenseStorageIdLin1ELin1ELi3ELi0EED2Ev
0000000000370a06 W _ZN5Eigen12DenseStorageIdLin1ELin1ELin1ELi0EE4dataEv
000000000036fdaa W _ZN5Eigen12DenseStorageIdLin1ELin1ELin1ELi0EE6resizeElll
000000000036e16a W _ZN5Eigen12DenseStorageIdLin1ELin1ELin1ELi0EEC1Ev
000000000036e16a W _ZN5Eigen12DenseStorageIdLin1ELin1ELin1ELi0EEC2Ev
000000000036c026 W _ZN5Eigen12DenseStorageIdLin1ELin1ELin1ELi0EED1Ev
000000000036c026 W _ZN5Eigen12DenseStorageIdLin1ELin1ELin1ELi0EED2Ev
000000000039ab1e W _ZN5Eigen12DenseStorageIiLi2ELi2ELi1ELi0EE4colsEv
000000000039aa24 W _ZN5Eigen12DenseStorageIiLi2ELi2ELi1ELi0EE4dataEv
000000000039ab13 W _ZN5Eigen12DenseStorageIiLi2ELi2ELi1ELi0EE4rowsEv
000000000039aa08 W _ZN5Eigen12DenseStorageIiLi2ELi2ELi1ELi0EEC1Ev
000000000039aa08 W _ZN5Eigen12DenseStorageIiLi2ELi2ELi1ELi0EEC2Ev
0000000000371dca W _ZN5Eigen12DenseStorageIiLin1ELin1ELi1ELi0EE4colsEv
00000000003711c8 W _ZN5Eigen12DenseStorageIiLin1ELin1ELi1ELi0EE6resizeElll
000000000037042c W _ZN5Eigen12DenseStorageIiLin1ELin1ELi1ELi0EEC1Ev
000000000037042c W _ZN5Eigen12DenseStorageIiLin1ELin1ELi1ELi0EEC2Ev
000000000036e7bc W _ZN5Eigen12DenseStorageIiLin1ELin1ELi1ELi0EED1Ev
000000000036e7bc W _ZN5Eigen12DenseStorageIiLin1ELin1ELi1ELi0EED2Ev
000000000039e282 W _ZN5Eigen12DenseStorageIlLin1ELin1ELi1ELi0EE4colsEv
000000000039beec W _ZN5Eigen12DenseStorageIlLin1ELin1ELi1ELi0EE6resizeElll
0000000000399a74 W _ZN5Eigen12DenseStorageIlLin1ELin1ELi1ELi0EEC1Ev
0000000000399a74 W _ZN5Eigen12DenseStorageIlLin1ELin1ELi1ELi0EEC2Ev
0000000000394cc8 W _ZN5Eigen12DenseStorageIlLin1ELin1ELi1ELi0EED1Ev
0000000000394cc8 W _ZN5Eigen12DenseStorageIlLin1ELin1ELi1ELi0EED2Ev
00000000003d99ac W _ZN5Eigen12DiagonalBaseINS_15DiagonalWrapperIKNS_6MatrixIdLin1ELi1ELi0ELin1ELi1EEEEEEC1Ev
00000000003d99ac W _ZN5Eigen12DiagonalBaseINS_15DiagonalWrapperIKNS_6MatrixIdLin1ELi1ELi0ELin1ELi1EEEEEEC2Ev
000000000041fc06 W _ZN5Eigen12RotationBaseINS_10QuaternionIdLi0EEELi3EE7derivedEv
0000000000417452 W _ZN5Eigen12RotationBaseINS_10QuaternionIdLi0EEELi3EEC1Ev
0000000000417452 W _ZN5Eigen12RotationBaseINS_10QuaternionIdLi0EEELi3EEC2Ev
000000000039ebdc W _ZN5Eigen12SparseMatrixIdLi0EiE14initAssignmentIS1_EEvRKT_
000000000039cd9e W _ZN5Eigen12SparseMatrixIdLi0EiE22insertBackByOuterInnerEll
0000000000392a89 W _ZN5Eigen12SparseMatrixIdLi0EiE25check_template_parametersEv
000000000039574e W _ZN5Eigen12SparseMatrixIdLi0EiE4swapERS1_
00000000003984c2 W _ZN5Eigen12SparseMatrixIdLi0EiE6resizeEll
000000000039cc72 W _ZN5Eigen12SparseMatrixIdLi0EiE7reserveEl
000000000039cbf8 W _ZN5Eigen12SparseMatrixIdLi0EiE7setZeroEv
000000000039cf28 W _ZN5Eigen12SparseMatrixIdLi0EiE8finalizeEv
000000000039ccce W _ZN5Eigen12SparseMatrixIdLi0EiE8startVecEl
000000000039d018 W _ZN5Eigen12SparseMatrixIdLi0EiEaSERKS1_
00000000003a0aec W _ZN5Eigen12SparseMatrixIdLi0EiEaSINS0_IdLi1EiEEEERS1_RKNS_16SparseMatrixBaseIT_EE
00000000003956aa W _ZN5Eigen12SparseMatrixIdLi0EiEC1Ell
000000000042c808 W _ZN5Eigen12SparseMatrixIdLi0EiEC1INS0_IdLi1EiEEEERKNS_16SparseMatrixBaseIT_EE
0000000000391e08 W _ZN5Eigen12SparseMatrixIdLi0EiEC1INS_7ProductINS0_IdLi1EiEENS_12CwiseUnaryOpINS_8internal18scalar_opposite_opIdEEKS4_EELi2EEEEERKNS_16SparseMatrixBaseIT_EE
00000000003904b8 W _ZN5Eigen12SparseMatrixIdLi0EiEC1INS_7ProductINS0_IdLi1EiEES4_Li2EEEEERKNS_16SparseMatrixBaseIT_EE
0000000000391cba W _ZN5Eigen12SparseMatrixIdLi0EiEC1INS_7ProductINS_12CwiseUnaryOpINS_8internal18scalar_opposite_opIdEEKNS0_IdLi1EiEEEES8_Li2EEEEERKNS_16SparseMatrixBaseIT_EE
00000000003956aa W _ZN5Eigen12SparseMatrixIdLi0EiEC2Ell
000000000042c808 W _ZN5Eigen12SparseMatrixIdLi0EiEC2INS0_IdLi1EiEEEERKNS_16SparseMatrixBaseIT_EE
0000000000391e08 W _ZN5Eigen12SparseMatrixIdLi0EiEC2INS_7ProductINS0_IdLi1EiEENS_12CwiseUnaryOpINS_8internal18scalar_opposite_opIdEEKS4_EELi2EEEEERKNS_16SparseMatrixBaseIT_EE
00000000003904b8 W _ZN5Eigen12SparseMatrixIdLi0EiEC2INS_7ProductINS0_IdLi1EiEES4_Li2EEEEERKNS_16SparseMatrixBaseIT_EE
0000000000391cba W _ZN5Eigen12SparseMatrixIdLi0EiEC2INS_7ProductINS_12CwiseUnaryOpINS_8internal18scalar_opposite_opIdEEKNS0_IdLi1EiEEEES8_Li2EEEEERKNS_16SparseMatrixBaseIT_EE
0000000000390564 W _ZN5Eigen12SparseMatrixIdLi0EiED1Ev
0000000000390564 W _ZN5Eigen12SparseMatrixIdLi0EiED2Ev
00000000003a357e W _ZN5Eigen12SparseMatrixIdLi0ElE14initAssignmentIS1_EEvRKT_
00000000003a240c W _ZN5Eigen12SparseMatrixIdLi0ElE22insertBackByOuterInnerEll
00000000003a00ff W _ZN5Eigen12SparseMatrixIdLi0ElE25check_template_parametersEv
00000000003a22fc W _ZN5Eigen12SparseMatrixIdLi0ElE31insertBackByOuterInnerUnorderedEll
00000000003a177e W _ZN5Eigen12SparseMatrixIdLi0ElE4swapERS1_
00000000003a1eae W _ZN5Eigen12SparseMatrixIdLi0ElE6resizeEll
00000000003a21ce W _ZN5Eigen12SparseMatrixIdLi0ElE7reserveEl
00000000003a2154 W _ZN5Eigen12SparseMatrixIdLi0ElE7setZeroEv
00000000003a2598 W _ZN5Eigen12SparseMatrixIdLi0ElE8finalizeEv
00000000003a222a W _ZN5Eigen12SparseMatrixIdLi0ElE8startVecEl
00000000003a1dce W _ZN5Eigen12SparseMatrixIdLi0ElEaSERKS1_
00000000003a2af8 W _ZN5Eigen12SparseMatrixIdLi0ElEaSINS0_IdLi1EiEEEERS1_RKNS_16SparseMatrixBaseIT_EE
00000000003a8262 W _ZN5Eigen12SparseMatrixIdLi0ElEaSINS0_IdLi1ElEEEERS1_RKNS_16SparseMatrixBaseIT_EE
00000000003a1944 W _ZN5Eigen12SparseMatrixIdLi0ElEaSINS_10SparseViewINS_9TransposeIKNS_6MatrixIdLi3ELi3ELi0ELi3ELi3EEEEEEEEERS1_RKNS_16SparseMatrixBaseIT_EE
00000000003a0270 W _ZN5Eigen12SparseMatrixIdLi0ElEC1Ell
00000000003a110c W _ZN5Eigen12SparseMatrixIdLi0ElEC1INS0_IdLi1EiEEEERKNS_16SparseMatrixBaseIT_EE
00000000003d0508 W _ZN5Eigen12SparseMatrixIdLi0ElEC1INS0_IdLi1ElEEEERKNS_16SparseMatrixBaseIT_EE
00000000003a01b2 W _ZN5Eigen12SparseMatrixIdLi0ElEC1INS_10SparseViewINS_9TransposeIKNS_6MatrixIdLi3ELi3ELi0ELi3ELi3EEEEEEEEERKNS_16SparseMatrixBaseIT_EE
000000000039f4c0 W _ZN5Eigen12SparseMatrixIdLi0ElEC1INS_7ProductINS_10SparseViewINS_6MatrixIdLi3ELi3ELi0ELi3ELi3EEEEENS0_IdLi1EiEELi2EEEEERKNS_16SparseMatrixBaseIT_EE
00000000003c596e W _ZN5Eigen12SparseMatrixIdLi0ElEC1INS_7ProductINS_13CwiseBinaryOpINS_8internal17scalar_product_opIddEEKNS_14CwiseNullaryOpINS5_18scalar_constant_opIdEEKNS_6MatrixIdLin1ELin1ELi1ELin1ELin1EEEEEKNS0_IdLi1EiEEEESG_Li2EEEEERKNS_16SparseMatrixBaseIT_EE
00000000003a0270 W _ZN5Eigen12SparseMatrixIdLi0ElEC2Ell
00000000003a110c W _ZN5Eigen12SparseMatrixIdLi0ElEC2INS0_IdLi1EiEEEERKNS_16SparseMatrixBaseIT_EE
00000000003d0508 W _ZN5Eigen12SparseMatrixIdLi0ElEC2INS0_IdLi1ElEEEERKNS_16SparseMatrixBaseIT_EE
00000000003a01b2 W _ZN5Eigen12SparseMatrixIdLi0ElEC2INS_10SparseViewINS_9TransposeIKNS_6MatrixIdLi3ELi3ELi0ELi3ELi3EEEEEEEEERKNS_16SparseMatrixBaseIT_EE
000000000039f4c0 W _ZN5Eigen12SparseMatrixIdLi0ElEC2INS_7ProductINS_10SparseViewINS_6MatrixIdLi3ELi3ELi0ELi3ELi3EEEEENS0_IdLi1EiEELi2EEEEERKNS_16SparseMatrixBaseIT_EE
00000000003c596e W _ZN5Eigen12SparseMatrixIdLi0ElEC2INS_7ProductINS_13CwiseBinaryOpINS_8internal17scalar_product_opIddEEKNS_14CwiseNullaryOpINS5_18scalar_constant_opIdEEKNS_6MatrixIdLin1ELin1ELi1ELin1ELin1EEEEEKNS0_IdLi1EiEEEESG_Li2EEEEERKNS_16SparseMatrixBaseIT_EE
000000000039f56c W _ZN5Eigen12SparseMatrixIdLi0ElED1Ev
000000000039f56c W _ZN5Eigen12SparseMatrixIdLi0ElED2Ev
000000000038cf2a W _ZN5Eigen12SparseMatrixIdLi1EiE13innerIndexPtrEv
000000000038ce58 W _ZN5Eigen12SparseMatrixIdLi1EiE13outerIndexPtrEv
0000000000390b66 W _ZN5Eigen12SparseMatrixIdLi1EiE14initAssignmentINS_13CwiseBinaryOpINS_8internal13scalar_sum_opIddEEKS1_S7_EEEEvRKT_
000000000038f902 W _ZN5Eigen12SparseMatrixIdLi1EiE14initAssignmentIS1_EEvRKT_
000000000040cf10 W _ZN5Eigen12SparseMatrixIdLi1EiE14makeCompressedEv
000000000038cfda W _ZN5Eigen12SparseMatrixIdLi1EiE15innerNonZeroPtrEv
00000000003920b4 W _ZN5Eigen12SparseMatrixIdLi1EiE15SingletonVectorC1Ell
00000000003920b4 W _ZN5Eigen12SparseMatrixIdLi1EiE15SingletonVectorC2Ell
000000000038f61e W _ZN5Eigen12SparseMatrixIdLi1EiE18insertUncompressedEll
0000000000393e08 W _ZN5Eigen12SparseMatrixIdLi1EiE19reserveInnerVectorsINS1_15SingletonVectorEEEvRKT_
000000000038eee6 W _ZN5Eigen12SparseMatrixIdLi1EiE19reserveInnerVectorsINS_14CwiseNullaryOpINS_8internal18scalar_constant_opIiEENS_5ArrayIiLin1ELi1ELi0ELin1ELi1EEEEEEEvRKT_
000000000039471c W _ZN5Eigen12SparseMatrixIdLi1EiE22insertBackByOuterInnerEll
000000000036d09a W _ZN5Eigen12SparseMatrixIdLi1EiE25check_template_parametersEv
00000000003a28d8 W _ZN5Eigen12SparseMatrixIdLi1EiE31insertBackByOuterInnerUnorderedEll
000000000038ce6a W _ZN5Eigen12SparseMatrixIdLi1EiE4dataEv
000000000036e97c W _ZN5Eigen12SparseMatrixIdLi1EiE4swapERS1_
000000000038aab0 W _ZN5Eigen12SparseMatrixIdLi1EiE6insertEll
000000000036f280 W _ZN5Eigen12SparseMatrixIdLi1EiE6resizeEll
00000000003945f0 W _ZN5Eigen12SparseMatrixIdLi1EiE7reserveEl
00000000003920f4 W _ZN5Eigen12SparseMatrixIdLi1EiE7reserveINS1_15SingletonVectorEEEvRKT_RKNS4_10value_typeE
0000000000394576 W _ZN5Eigen12SparseMatrixIdLi1EiE7setZeroEv
0000000000386ca8 W _ZN5Eigen12SparseMatrixIdLi1EiE8coeffRefEll
00000000003948a6 W _ZN5Eigen12SparseMatrixIdLi1EiE8finalizeEv
000000000039464c W _ZN5Eigen12SparseMatrixIdLi1EiE8startVecEl
000000000038cefa W _ZN5Eigen12SparseMatrixIdLi1EiE8valuePtrEv
000000000038b3be W _ZN5Eigen12SparseMatrixIdLi1EiEaSERKS1_
000000000042c8b4 W _ZN5Eigen12SparseMatrixIdLi1EiEaSINS0_IdLi0EiEEEERS1_RKNS_16SparseMatrixBaseIT_EE
000000000038701e W _ZN5Eigen12SparseMatrixIdLi1EiEaSINS_10SparseViewINS_6MatrixIdLi3ELi3ELi0ELi3ELi3EEEEEEERS1_RKNS_16SparseMatrixBaseIT_EE
000000000036d1a0 W _ZN5Eigen12SparseMatrixIdLi1EiEaSINS_10SparseViewINS_6MatrixIdLin1ELin1ELi0ELin1ELin1EEEEEEERS1_RKNS_16SparseMatrixBaseIT_EE
000000000038cb34 W _ZN5Eigen12SparseMatrixIdLi1EiEaSINS_13CwiseBinaryOpINS_8internal13scalar_sum_opIddEEKS1_S7_EEEERS1_RKNS_16SparseMatrixBaseIT_EE
000000000038dc9a W _ZN5Eigen12SparseMatrixIdLi1EiEaSINS_13CwiseBinaryOpINS_8internal20scalar_difference_opIddEEKNS_7ProductIS1_NS3_INS4_13scalar_sum_opIddEEKNS3_IS9_KS1_SA_EESA_EELi2EEEKNS7_IS1_S1_Li2EEEEEEERS1_RKNS_16SparseMatrixBaseIT_EE
000000000038e2c8 W _ZN5Eigen12SparseMatrixIdLi1EiEaSINS_7ProductINS_12CwiseUnaryOpINS_8internal18scalar_opposite_opIdEEKS1_EES1_Li2EEEEERS1_RKNS_16SparseMatrixBaseIT_EE
00000000003c53aa W _ZN5Eigen12SparseMatrixIdLi1EiEaSINS_7ProductINS_13CwiseBinaryOpINS_8internal17scalar_product_opIddEEKNS_14CwiseNullaryOpINS5_18scalar_constant_opIdEEKNS_6MatrixIdLin1ELin1ELi1ELin1ELin1EEEEEKS1_EES1_Li2EEEEERS1_RKNS_16SparseMatrixBaseIT_EE
000000000038e816 W _ZN5Eigen12SparseMatrixIdLi1EiEaSINS_7ProductIS1_NS_12CwiseUnaryOpINS_8internal18scalar_opposite_opIdEEKS1_EELi2EEEEERS1_RKNS_16SparseMatrixBaseIT_EE
000000000038c5fe W _ZN5Eigen12SparseMatrixIdLi1EiEaSINS_7ProductIS1_S1_Li2EEEEERS1_RKNS_16SparseMatrixBaseIT_EE
00000000003c4898 W _ZN5Eigen12SparseMatrixIdLi1EiEaSINS_9TransposeIS1_EEEERS1_RKNS_16SparseMatrixBaseIT_EE
000000000036e4c8 W _ZN5Eigen12SparseMatrixIdLi1EiEC1Ell
000000000040ce68 W _ZN5Eigen12SparseMatrixIdLi1EiEC1ERKS1_
0000000000386edc W _ZN5Eigen12SparseMatrixIdLi1EiEC1Ev
00000000003ca3ce W _ZN5Eigen12SparseMatrixIdLi1EiEC1INS_10SparseViewINS_6MatrixIdLi3ELi3ELi0ELi3ELi3EEEEEEERKNS_16SparseMatrixBaseIT_EE
000000000036c2e6 W _ZN5Eigen12SparseMatrixIdLi1EiEC1INS_10SparseViewINS_6MatrixIdLin1ELin1ELi0ELin1ELin1EEEEEEERKNS_16SparseMatrixBaseIT_EE
00000000003d9656 W _ZN5Eigen12SparseMatrixIdLi1EiEC1INS_10SparseViewINS_9TransposeINS_6MatrixIdLin1ELi1ELi0ELin1ELi1EEEEEEEEERKNS_16SparseMatrixBaseIT_EE
0000000000392e6c W _ZN5Eigen12SparseMatrixIdLi1EiEC1INS_12CwiseUnaryOpINS_8internal18scalar_opposite_opIdEEKS1_EEEERKNS_16SparseMatrixBaseIT_EE
0000000000423520 W _ZN5Eigen12SparseMatrixIdLi1EiEC1INS_13CwiseBinaryOpINS_8internal13scalar_sum_opIddEEKNS3_INS4_20scalar_difference_opIddEEKNS3_IS8_KNS3_IS8_KNS3_IS8_KNS3_INS4_17scalar_product_opIddEEKNS_14CwiseNullaryOpINS4_18scalar_constant_opIdEEKNS_6MatrixIdLi1ELin1ELi1ELi1ELin1EEEEEKNS_12SparseVectorIdLi1EiEEEESN_EESN_EESN_EESN_EEKNS3_ISA_SN_SI_EEEEEERKNS_16SparseMatrixBaseIT_EE
000000000042233a W _ZN5Eigen12SparseMatrixIdLi1EiEC1INS_13CwiseBinaryOpINS_8internal13scalar_sum_opIddEEKNS3_IS6_KNS3_IS6_KNS_7ProductINS_12SparseVectorIdLi1EiEES1_Li2EEEKNS7_INS_5BlockIS1_Li1ELin1ELb1EEES1_Li2EEEEESB_EESF_EEEERKNS_16SparseMatrixBaseIT_EE
0000000000389b0a W _ZN5Eigen12SparseMatrixIdLi1EiEC1INS_13CwiseBinaryOpINS_8internal13scalar_sum_opIddEEKNS3_IS6_KS1_S7_EES7_EEEERKNS_16SparseMatrixBaseIT_EE
0000000000424074 W _ZN5Eigen12SparseMatrixIdLi1EiEC1INS_13CwiseBinaryOpINS_8internal13scalar_sum_opIddEEKNS_5BlockIS1_Li1ELin1ELb1EEEKNS3_INS4_17scalar_product_opIddEEKNS_14CwiseNullaryOpINS4_18scalar_constant_opIdEEKNS_6MatrixIdLi1ELin1ELi1ELi1ELin1EEEEEKNS_12SparseVectorIdLi1EiEEEEEEEERKNS_16SparseMatrixBaseIT_EE
0000000000422232 W _ZN5Eigen12SparseMatrixIdLi1EiEC1INS_13CwiseBinaryOpINS_8internal13scalar_sum_opIddEEKNS_7ProductINS_12SparseVectorIdLi1EiEES1_Li2EEEKNS7_INS_5BlockIS1_Li1ELin1ELb1EEES1_Li2EEEEEEERKNS_16SparseMatrixBaseIT_EE
000000000039381c W _ZN5Eigen12SparseMatrixIdLi1EiEC1INS_13CwiseBinaryOpINS_8internal13scalar_sum_opIddEEKS1_S7_EEEERKNS_16SparseMatrixBaseIT_EE
0000000000422414 W _ZN5Eigen12SparseMatrixIdLi1EiEC1INS_13CwiseBinaryOpINS_8internal17scalar_product_opIddEEKNS_14CwiseNullaryOpINS4_18scalar_constant_opIdEEKNS_6MatrixIdLi1ELin1ELi1ELi1ELin1EEEEEKNS_12SparseVectorIdLi1EiEEEEEERKNS_16SparseMatrixBaseIT_EE
0000000000393398 W _ZN5Eigen12SparseMatrixIdLi1EiEC1INS_13CwiseBinaryOpINS_8internal17scalar_product_opIddEEKNS_14CwiseNullaryOpINS4_18scalar_constant_opIdEEKNS_6MatrixIdLin1ELin1ELi1ELin1ELin1EEEEEKS1_EEEERKNS_16SparseMatrixBaseIT_EE
00000000004224ee W _ZN5Eigen12SparseMatrixIdLi1EiEC1INS_13CwiseBinaryOpINS_8internal20scalar_difference_opIddEEKNS3_INS4_17scalar_product_opIddEEKNS_14CwiseNullaryOpINS4_18scalar_constant_opIdEEKNS_6MatrixIdLi1ELin1ELi1ELi1ELin1EEEEEKNS_12SparseVectorIdLi1EiEEEESL_EEEERKNS_16SparseMatrixBaseIT_EE
0000000000423628 W _ZN5Eigen12SparseMatrixIdLi1EiEC1INS_13CwiseBinaryOpINS_8internal20scalar_difference_opIddEEKNS3_IS6_KNS3_IS6_KNS3_IS6_KNS3_IS6_KNS3_INS4_17scalar_product_opIddEEKNS_14CwiseNullaryOpINS4_18scalar_constant_opIdEEKNS_6MatrixIdLi1ELin1ELi1ELi1ELin1EEEEEKNS_12SparseVectorIdLi1EiEEEESL_EESL_EESL_EEKNS3_IS8_SL_SG_EEEESL_EEEERKNS_16SparseMatrixBaseIT_EE
0000000000389d6e W _ZN5Eigen12SparseMatrixIdLi1EiEC1INS_13CwiseBinaryOpINS_8internal20scalar_difference_opIddEEKNS_7ProductIS1_NS3_INS4_13scalar_sum_opIddEEKNS3_IS9_KS1_SA_EESA_EELi2EEEKNS7_IS1_S1_Li2EEEEEEERKNS_16SparseMatrixBaseIT_EE
00000000003d2286 W _ZN5Eigen12SparseMatrixIdLi1EiEC1INS_13CwiseBinaryOpINS_8internal20scalar_difference_opIddEEKS1_S7_EEEERKNS_16SparseMatrixBaseIT_EE
000000000038a908 W _ZN5Eigen12SparseMatrixIdLi1EiEC1INS_7ProductINS_12CwiseUnaryOpINS_8internal18scalar_opposite_opIdEEKS1_EES1_Li2EEEEERKNS_16SparseMatrixBaseIT_EE
00000000003cca82 W _ZN5Eigen12SparseMatrixIdLi1EiEC1INS_7ProductINS_13CwiseBinaryOpINS_8internal17scalar_product_opIddEEKNS_14CwiseNullaryOpINS5_18scalar_constant_opIdEEKNS_6MatrixIdLin1ELin1ELi1ELin1ELin1EEEEEKS1_EENS3_ISH_S1_Li2EEELi2EEEEERKNS_16SparseMatrixBaseIT_EE
00000000003c52aa W _ZN5Eigen12SparseMatrixIdLi1EiEC1INS_7ProductINS_13CwiseBinaryOpINS_8internal17scalar_product_opIddEEKNS_14CwiseNullaryOpINS5_18scalar_constant_opIdEEKNS_6MatrixIdLin1ELin1ELi1ELin1ELin1EEEEEKS1_EES1_Li2EEEEERKNS_16SparseMatrixBaseIT_EE
000000000038792c W _ZN5Eigen12SparseMatrixIdLi1EiEC1INS_7ProductINS3_INS_10SparseViewINS_6MatrixIdLi3ELi3ELi0ELi3ELi3EEEEES1_Li2EEENS4_INS_9TransposeIKS6_EEEELi2EEEEERKNS_16SparseMatrixBaseIT_EE
00000000003898fa W _ZN5Eigen12SparseMatrixIdLi1EiEC1INS_7ProductINS3_INS_10SparseViewINS_6MatrixIdLi3ELi3ELi0ELi3ELi3EEEEES1_Li2EEES1_Li2EEEEERKNS_16SparseMatrixBaseIT_EE
00000000003ccb2e W _ZN5Eigen12SparseMatrixIdLi1EiEC1INS_7ProductINS3_INS_13CwiseBinaryOpINS_8internal17scalar_product_opIddEEKNS_14CwiseNullaryOpINS5_18scalar_constant_opIdEEKNS_6MatrixIdLin1ELin1ELi1ELin1ELin1EEEEEKS1_EES1_Li2EEES1_Li2EEEEERKNS_16SparseMatrixBaseIT_EE
000000000038aa04 W _ZN5Eigen12SparseMatrixIdLi1EiEC1INS_7ProductIS1_NS_12CwiseUnaryOpINS_8internal18scalar_opposite_opIdEEKS1_EELi2EEEEERKNS_16SparseMatrixBaseIT_EE
0000000000388048 W _ZN5Eigen12SparseMatrixIdLi1EiEC1INS_7ProductIS1_S1_Li2EEEEERKNS_16SparseMatrixBaseIT_EE
00000000003c30e6 W _ZN5Eigen12SparseMatrixIdLi1EiEC1INS_9TransposeIS1_EEEERKNS_16SparseMatrixBaseIT_EE
000000000036e4c8 W _ZN5Eigen12SparseMatrixIdLi1EiEC2Ell
000000000040ce68 W _ZN5Eigen12SparseMatrixIdLi1EiEC2ERKS1_
0000000000386edc W _ZN5Eigen12SparseMatrixIdLi1EiEC2Ev
00000000003ca3ce W _ZN5Eigen12SparseMatrixIdLi1EiEC2INS_10SparseViewINS_6MatrixIdLi3ELi3ELi0ELi3ELi3EEEEEEERKNS_16SparseMatrixBaseIT_EE
000000000036c2e6 W _ZN5Eigen12SparseMatrixIdLi1EiEC2INS_10SparseViewINS_6MatrixIdLin1ELin1ELi0ELin1ELin1EEEEEEERKNS_16SparseMatrixBaseIT_EE
00000000003d9656 W _ZN5Eigen12SparseMatrixIdLi1EiEC2INS_10SparseViewINS_9TransposeINS_6MatrixIdLin1ELi1ELi0ELin1ELi1EEEEEEEEERKNS_16SparseMatrixBaseIT_EE
0000000000392e6c W _ZN5Eigen12SparseMatrixIdLi1EiEC2INS_12CwiseUnaryOpINS_8internal18scalar_opposite_opIdEEKS1_EEEERKNS_16SparseMatrixBaseIT_EE
0000000000423520 W _ZN5Eigen12SparseMatrixIdLi1EiEC2INS_13CwiseBinaryOpINS_8internal13scalar_sum_opIddEEKNS3_INS4_20scalar_difference_opIddEEKNS3_IS8_KNS3_IS8_KNS3_IS8_KNS3_INS4_17scalar_product_opIddEEKNS_14CwiseNullaryOpINS4_18scalar_constant_opIdEEKNS_6MatrixIdLi1ELin1ELi1ELi1ELin1EEEEEKNS_12SparseVectorIdLi1EiEEEESN_EESN_EESN_EESN_EEKNS3_ISA_SN_SI_EEEEEERKNS_16SparseMatrixBaseIT_EE
000000000042233a W _ZN5Eigen12SparseMatrixIdLi1EiEC2INS_13CwiseBinaryOpINS_8internal13scalar_sum_opIddEEKNS3_IS6_KNS3_IS6_KNS_7ProductINS_12SparseVectorIdLi1EiEES1_Li2EEEKNS7_INS_5BlockIS1_Li1ELin1ELb1EEES1_Li2EEEEESB_EESF_EEEERKNS_16SparseMatrixBaseIT_EE
0000000000389b0a W _ZN5Eigen12SparseMatrixIdLi1EiEC2INS_13CwiseBinaryOpINS_8internal13scalar_sum_opIddEEKNS3_IS6_KS1_S7_EES7_EEEERKNS_16SparseMatrixBaseIT_EE
0000000000424074 W _ZN5Eigen12SparseMatrixIdLi1EiEC2INS_13CwiseBinaryOpINS_8internal13scalar_sum_opIddEEKNS_5BlockIS1_Li1ELin1ELb1EEEKNS3_INS4_17scalar_product_opIddEEKNS_14CwiseNullaryOpINS4_18scalar_constant_opIdEEKNS_6MatrixIdLi1ELin1ELi1ELi1ELin1EEEEEKNS_12SparseVectorIdLi1EiEEEEEEEERKNS_16SparseMatrixBaseIT_EE
0000000000422232 W _ZN5Eigen12SparseMatrixIdLi1EiEC2INS_13CwiseBinaryOpINS_8internal13scalar_sum_opIddEEKNS_7ProductINS_12SparseVectorIdLi1EiEES1_Li2EEEKNS7_INS_5BlockIS1_Li1ELin1ELb1EEES1_Li2EEEEEEERKNS_16SparseMatrixBaseIT_EE
000000000039381c W _ZN5Eigen12SparseMatrixIdLi1EiEC2INS_13CwiseBinaryOpINS_8internal13scalar_sum_opIddEEKS1_S7_EEEERKNS_16SparseMatrixBaseIT_EE
0000000000422414 W _ZN5Eigen12SparseMatrixIdLi1EiEC2INS_13CwiseBinaryOpINS_8internal17scalar_product_opIddEEKNS_14CwiseNullaryOpINS4_18scalar_constant_opIdEEKNS_6MatrixIdLi1ELin1ELi1ELi1ELin1EEEEEKNS_12SparseVectorIdLi1EiEEEEEERKNS_16SparseMatrixBaseIT_EE
0000000000393398 W _ZN5Eigen12SparseMatrixIdLi1EiEC2INS_13CwiseBinaryOpINS_8internal17scalar_product_opIddEEKNS_14CwiseNullaryOpINS4_18scalar_constant_opIdEEKNS_6MatrixIdLin1ELin1ELi1ELin1ELin1EEEEEKS1_EEEERKNS_16SparseMatrixBaseIT_EE
00000000004224ee W _ZN5Eigen12SparseMatrixIdLi1EiEC2INS_13CwiseBinaryOpINS_8internal20scalar_difference_opIddEEKNS3_INS4_17scalar_product_opIddEEKNS_14CwiseNullaryOpINS4_18scalar_constant_opIdEEKNS_6MatrixIdLi1ELin1ELi1ELi1ELin1EEEEEKNS_12SparseVectorIdLi1EiEEEESL_EEEERKNS_16SparseMatrixBaseIT_EE
0000000000423628 W _ZN5Eigen12SparseMatrixIdLi1EiEC2INS_13CwiseBinaryOpINS_8internal20scalar_difference_opIddEEKNS3_IS6_KNS3_IS6_KNS3_IS6_KNS3_IS6_KNS3_INS4_17scalar_product_opIddEEKNS_14CwiseNullaryOpINS4_18scalar_constant_opIdEEKNS_6MatrixIdLi1ELin1ELi1ELi1ELin1EEEEEKNS_12SparseVectorIdLi1EiEEEESL_EESL_EESL_EEKNS3_IS8_SL_SG_EEEESL_EEEERKNS_16SparseMatrixBaseIT_EE
0000000000389d6e W _ZN5Eigen12SparseMatrixIdLi1EiEC2INS_13CwiseBinaryOpINS_8internal20scalar_difference_opIddEEKNS_7ProductIS1_NS3_INS4_13scalar_sum_opIddEEKNS3_IS9_KS1_SA_EESA_EELi2EEEKNS7_IS1_S1_Li2EEEEEEERKNS_16SparseMatrixBaseIT_EE
00000000003d2286 W _ZN5Eigen12SparseMatrixIdLi1EiEC2INS_13CwiseBinaryOpINS_8internal20scalar_difference_opIddEEKS1_S7_EEEERKNS_16SparseMatrixBaseIT_EE
000000000038a908 W _ZN5Eigen12SparseMatrixIdLi1EiEC2INS_7ProductINS_12CwiseUnaryOpINS_8internal18scalar_opposite_opIdEEKS1_EES1_Li2EEEEERKNS_16SparseMatrixBaseIT_EE
00000000003cca82 W _ZN5Eigen12SparseMatrixIdLi1EiEC2INS_7ProductINS_13CwiseBinaryOpINS_8internal17scalar_product_opIddEEKNS_14CwiseNullaryOpINS5_18scalar_constant_opIdEEKNS_6MatrixIdLin1ELin1ELi1ELin1ELin1EEEEEKS1_EENS3_ISH_S1_Li2EEELi2EEEEERKNS_16SparseMatrixBaseIT_EE
00000000003c52aa W _ZN5Eigen12SparseMatrixIdLi1EiEC2INS_7ProductINS_13CwiseBinaryOpINS_8internal17scalar_product_opIddEEKNS_14CwiseNullaryOpINS5_18scalar_constant_opIdEEKNS_6MatrixIdLin1ELin1ELi1ELin1ELin1EEEEEKS1_EES1_Li2EEEEERKNS_16SparseMatrixBaseIT_EE
000000000038792c W _ZN5Eigen12SparseMatrixIdLi1EiEC2INS_7ProductINS3_INS_10SparseViewINS_6MatrixIdLi3ELi3ELi0ELi3ELi3EEEEES1_Li2EEENS4_INS_9TransposeIKS6_EEEELi2EEEEERKNS_16SparseMatrixBaseIT_EE
00000000003898fa W _ZN5Eigen12SparseMatrixIdLi1EiEC2INS_7ProductINS3_INS_10SparseViewINS_6MatrixIdLi3ELi3ELi0ELi3ELi3EEEEES1_Li2EEES1_Li2EEEEERKNS_16SparseMatrixBaseIT_EE
00000000003ccb2e W _ZN5Eigen12SparseMatrixIdLi1EiEC2INS_7ProductINS3_INS_13CwiseBinaryOpINS_8internal17scalar_product_opIddEEKNS_14CwiseNullaryOpINS5_18scalar_constant_opIdEEKNS_6MatrixIdLin1ELin1ELi1ELin1ELin1EEEEEKS1_EES1_Li2EEES1_Li2EEEEERKNS_16SparseMatrixBaseIT_EE
000000000038aa04 W _ZN5Eigen12SparseMatrixIdLi1EiEC2INS_7ProductIS1_NS_12CwiseUnaryOpINS_8internal18scalar_opposite_opIdEEKS1_EELi2EEEEERKNS_16SparseMatrixBaseIT_EE
0000000000388048 W _ZN5Eigen12SparseMatrixIdLi1EiEC2INS_7ProductIS1_S1_Li2EEEEERKNS_16SparseMatrixBaseIT_EE
00000000003c30e6 W _ZN5Eigen12SparseMatrixIdLi1EiEC2INS_9TransposeIS1_EEEERKNS_16SparseMatrixBaseIT_EE
0000000000339cc4 W _ZN5Eigen12SparseMatrixIdLi1EiED1Ev
0000000000339cc4 W _ZN5Eigen12SparseMatrixIdLi1EiED2Ev
00000000003c6cc2 W _ZN5Eigen12SparseMatrixIdLi1ElE14initAssignmentIS1_EEvRKT_
000000000039c21c W _ZN5Eigen12SparseMatrixIdLi1ElE22insertBackByOuterInnerEll
0000000000392413 W _ZN5Eigen12SparseMatrixIdLi1ElE25check_template_parametersEv
00000000003a900a W _ZN5Eigen12SparseMatrixIdLi1ElE31insertBackByOuterInnerUnorderedEll
0000000000394e4e W _ZN5Eigen12SparseMatrixIdLi1ElE4swapERS1_
00000000003974f6 W _ZN5Eigen12SparseMatrixIdLi1ElE6resizeEll
000000000039c0ee W _ZN5Eigen12SparseMatrixIdLi1ElE7reserveEl
000000000039c074 W _ZN5Eigen12SparseMatrixIdLi1ElE7setZeroEv
000000000039c3a8 W _ZN5Eigen12SparseMatrixIdLi1ElE8finalizeEv
000000000039c14a W _ZN5Eigen12SparseMatrixIdLi1ElE8startVecEl
00000000003c6be2 W _ZN5Eigen12SparseMatrixIdLi1ElEaSERKS1_
00000000003a0314 W _ZN5Eigen12SparseMatrixIdLi1ElEaSINS0_IdLi0ElEEEERS1_RKNS_16SparseMatrixBaseIT_EE
00000000003a8b86 W _ZN5Eigen12SparseMatrixIdLi1ElEaSINS_10SparseViewINS_6MatrixIdLi3ELi3ELi0ELi3ELi3EEEEEEERS1_RKNS_16SparseMatrixBaseIT_EE
0000000000394b18 W _ZN5Eigen12SparseMatrixIdLi1ElEC1Ell
00000000003a81b6 W _ZN5Eigen12SparseMatrixIdLi1ElEC1INS_10SparseViewINS_6MatrixIdLi3ELi3ELi0ELi3ELi3EEEEEEERKNS_16SparseMatrixBaseIT_EE
00000000003c656c W _ZN5Eigen12SparseMatrixIdLi1ElEC1INS_13CwiseBinaryOpINS_8internal17scalar_product_opIddEEKNS_14CwiseNullaryOpINS4_18scalar_constant_opIdEEKNS_6MatrixIdLin1ELin1ELi1ELin1ELin1EEEEEKNS0_IdLi1EiEEEEEERKNS_16SparseMatrixBaseIT_EE
0000000000394b18 W _ZN5Eigen12SparseMatrixIdLi1ElEC2Ell
00000000003a81b6 W _ZN5Eigen12SparseMatrixIdLi1ElEC2INS_10SparseViewINS_6MatrixIdLi3ELi3ELi0ELi3ELi3EEEEEEERKNS_16SparseMatrixBaseIT_EE
00000000003c656c W _ZN5Eigen12SparseMatrixIdLi1ElEC2INS_13CwiseBinaryOpINS_8internal17scalar_product_opIddEEKNS_14CwiseNullaryOpINS4_18scalar_constant_opIdEEKNS_6MatrixIdLin1ELin1ELi1ELin1ELin1EEEEEKNS0_IdLi1EiEEEEEERKNS_16SparseMatrixBaseIT_EE
000000000038fe92 W _ZN5Eigen12SparseMatrixIdLi1ElED1Ev
000000000038fe92 W _ZN5Eigen12SparseMatrixIdLi1ElED2Ev
000000000041c957 W _ZN5Eigen12SparseVectorIdLi1EiE25check_template_parametersEv
000000000041e0ac W _ZN5Eigen12SparseVectorIdLi1EiE4swapERS1_
00000000004209e4 W _ZN5Eigen12SparseVectorIdLi1EiE6insertEl
000000000041dd8e W _ZN5Eigen12SparseVectorIdLi1EiE6resizeEl
000000000041ca34 W _ZN5Eigen12SparseVectorIdLi1EiEaSERKS1_
000000000041c96c W _ZN5Eigen12SparseVectorIdLi1EiEaSINS_10SparseViewINS_9TransposeIKNS_6MatrixIdLin1ELi1ELi0ELin1ELi1EEEEEEEEERS1_RKNS_16SparseMatrixBaseIT_EE
000000000041ac6a W _ZN5Eigen12SparseVectorIdLi1EiEaSINS_13CwiseBinaryOpINS_8internal13scalar_sum_opIddEEKNS3_INS4_20scalar_difference_opIddEEKNS3_IS8_KNS3_IS6_KNS3_INS4_17scalar_product_opIddEEKNS_14CwiseNullaryOpINS4_18scalar_constant_opIdEEKNS_6MatrixIdLi1ELin1ELi1ELi1ELin1EEEEEKS1_EESL_EESL_EESL_EESL_EEEERS1_RKNS_16SparseMatrixBaseIT_EE
000000000041a83c W _ZN5Eigen12SparseVectorIdLi1EiEaSINS_13CwiseBinaryOpINS_8internal13scalar_sum_opIddEEKNS3_IS6_KNS3_INS4_20scalar_difference_opIddEEKNS3_IS8_KNS3_INS4_17scalar_product_opIddEEKNS_14CwiseNullaryOpINS4_18scalar_constant_opIdEEKNS_6MatrixIdLi1ELin1ELi1ELi1ELin1EEEEEKS1_EESL_EESL_EESL_EESL_EEEERS1_RKNS_16SparseMatrixBaseIT_EE
000000000041ad24 W _ZN5Eigen12SparseVectorIdLi1EiEaSINS_13CwiseBinaryOpINS_8internal17scalar_product_opIddEEKNS_14CwiseNullaryOpINS4_18scalar_constant_opIdEEKNS_6MatrixIdLi1ELin1ELi1ELi1ELin1EEEEEKS1_EEEERS1_RKNS_16SparseMatrixBaseIT_EE
000000000041a492 W _ZN5Eigen12SparseVectorIdLi1EiEaSINS_13CwiseBinaryOpINS_8internal20scalar_difference_opIddEEKNS3_INS4_17scalar_product_opIddEEKNS_14CwiseNullaryOpINS4_18scalar_constant_opIdEEKNS_6MatrixIdLi1ELin1ELi1ELi1ELin1EEEEEKS1_EESJ_EEEERS1_RKNS_16SparseMatrixBaseIT_EE
000000000041f618 W _ZN5Eigen12SparseVectorIdLi1EiEaSINS_5BlockINS_12SparseMatrixIdLi1EiEELi1ELin1ELb1EEEEERS1_RKNS_16SparseMatrixBaseIT_EE
000000000041ddf2 W _ZN5Eigen12SparseVectorIdLi1EiEC1El
00000000004176c8 W _ZN5Eigen12SparseVectorIdLi1EiEC1ERKS1_
000000000041a420 W _ZN5Eigen12SparseVectorIdLi1EiEC1Ev
0000000000417624 W _ZN5Eigen12SparseVectorIdLi1EiEC1INS_10SparseViewINS_9TransposeIKNS_6MatrixIdLin1ELi1ELi0ELin1ELi1EEEEEEEEERKNS_16SparseMatrixBaseIT_EE
000000000041c5cc W _ZN5Eigen12SparseVectorIdLi1EiEC1INS_5BlockINS_12SparseMatrixIdLi1EiEELi1ELin1ELb1EEEEERKNS_16SparseMatrixBaseIT_EE
000000000041ddf2 W _ZN5Eigen12SparseVectorIdLi1EiEC2El
00000000004176c8 W _ZN5Eigen12SparseVectorIdLi1EiEC2ERKS1_
000000000041a420 W _ZN5Eigen12SparseVectorIdLi1EiEC2Ev
0000000000417624 W _ZN5Eigen12SparseVectorIdLi1EiEC2INS_10SparseViewINS_9TransposeIKNS_6MatrixIdLin1ELi1ELi0ELin1ELi1EEEEEEEEERKNS_16SparseMatrixBaseIT_EE
000000000041c5cc W _ZN5Eigen12SparseVectorIdLi1EiEC2INS_5BlockINS_12SparseMatrixIdLi1EiEELi1ELin1ELb1EEEEERKNS_16SparseMatrixBaseIT_EE
00000000004176a8 W _ZN5Eigen12SparseVectorIdLi1EiED1Ev
00000000004176a8 W _ZN5Eigen12SparseVectorIdLi1EiED2Ev
00000000003cbaf8 W _ZN5Eigen12VectorwiseOpINS_6MatrixIdLi3ELi3ELi0ELi3ELi3EEELi1EEC1ERS2_
00000000003cbaf8 W _ZN5Eigen12VectorwiseOpINS_6MatrixIdLi3ELi3ELi0ELi3ELi3EEELi1EEC2ERS2_
00000000003ca1c8 W _ZN5Eigen12VectorwiseOpINS_6MatrixIdLi3ELi3ELi0ELi3ELi3EEELi1EEpLINS_9TransposeINS1_IdLi3ELi1ELi0ELi3ELi1EEEEEEERS2_RKNS_9DenseBaseIT_EE
000000000041a97a W _ZN5Eigen13CwiseBinaryOpINS_8internal13scalar_sum_opIddEEKNS0_INS1_17scalar_product_opIddEEKNS_14CwiseNullaryOpINS1_18scalar_constant_opIdEEKNS_6MatrixIdLi1ELin1ELi1ELi1ELin1EEEEEKNS_12SparseVectorIdLi1EiEEEESI_EC1ERKSJ_
000000000041e6bc W _ZN5Eigen13CwiseBinaryOpINS_8internal13scalar_sum_opIddEEKNS0_INS1_17scalar_product_opIddEEKNS_14CwiseNullaryOpINS1_18scalar_constant_opIdEEKNS_6MatrixIdLi1ELin1ELi1ELi1ELin1EEEEEKNS_12SparseVectorIdLi1EiEEEESI_EC1ERSI_SK_RKS3_
000000000041a97a W _ZN5Eigen13CwiseBinaryOpINS_8internal13scalar_sum_opIddEEKNS0_INS1_17scalar_product_opIddEEKNS_14CwiseNullaryOpINS1_18scalar_constant_opIdEEKNS_6MatrixIdLi1ELin1ELi1ELi1ELin1EEEEEKNS_12SparseVectorIdLi1EiEEEESI_EC2ERKSJ_
000000000041e6bc W _ZN5Eigen13CwiseBinaryOpINS_8internal13scalar_sum_opIddEEKNS0_INS1_17scalar_product_opIddEEKNS_14CwiseNullaryOpINS1_18scalar_constant_opIdEEKNS_6MatrixIdLi1ELin1ELi1ELi1ELin1EEEEEKNS_12SparseVectorIdLi1EiEEEESI_EC2ERSI_SK_RKS3_
00000000003fde5c W _ZN5Eigen13CwiseBinaryOpINS_8internal13scalar_sum_opIddEEKNS0_INS1_17scalar_product_opIddEEKNS_14CwiseNullaryOpINS1_18scalar_constant_opIdEEKNS_6MatrixIdLin1ELi1ELi0ELin1ELi1EEEEEKNS0_INS1_20scalar_difference_opIddEESB_SB_EEEEKNS0_IS5_SD_KNS0_IS3_KNS0_IS5_SD_SB_EESB_EEEEEC1ERKSQ_
00000000003ff778 W _ZN5Eigen13CwiseBinaryOpINS_8internal13scalar_sum_opIddEEKNS0_INS1_17scalar_product_opIddEEKNS_14CwiseNullaryOpINS1_18scalar_constant_opIdEEKNS_6MatrixIdLin1ELi1ELi0ELin1ELi1EEEEEKNS0_INS1_20scalar_difference_opIddEESB_SB_EEEEKNS0_IS5_SD_KNS0_IS3_KNS0_IS5_SD_SB_EESB_EEEEEC1ERSJ_RSP_RKS3_
00000000003fde5c W _ZN5Eigen13CwiseBinaryOpINS_8internal13scalar_sum_opIddEEKNS0_INS1_17scalar_product_opIddEEKNS_14CwiseNullaryOpINS1_18scalar_constant_opIdEEKNS_6MatrixIdLin1ELi1ELi0ELin1ELi1EEEEEKNS0_INS1_20scalar_difference_opIddEESB_SB_EEEEKNS0_IS5_SD_KNS0_IS3_KNS0_IS5_SD_SB_EESB_EEEEEC2ERKSQ_
00000000003ff778 W _ZN5Eigen13CwiseBinaryOpINS_8internal13scalar_sum_opIddEEKNS0_INS1_17scalar_product_opIddEEKNS_14CwiseNullaryOpINS1_18scalar_constant_opIdEEKNS_6MatrixIdLin1ELi1ELi0ELin1ELi1EEEEEKNS0_INS1_20scalar_difference_opIddEESB_SB_EEEEKNS0_IS5_SD_KNS0_IS3_KNS0_IS5_SD_SB_EESB_EEEEEC2ERSJ_RSP_RKS3_
00000000003fe30c W _ZN5Eigen13CwiseBinaryOpINS_8internal13scalar_sum_opIddEEKNS0_INS1_17scalar_product_opIddEEKNS_14CwiseNullaryOpINS1_18scalar_constant_opIdEEKNS_6MatrixIdLin1ELi1ELi0ELin1ELi1EEEEEKNS0_INS1_20scalar_difference_opIddEESB_SB_EEEEKNS0_IS5_SD_KNS0_IS3_SB_SB_EEEEEC1ERKSO_
00000000003ffcc6 W _ZN5Eigen13CwiseBinaryOpINS_8internal13scalar_sum_opIddEEKNS0_INS1_17scalar_product_opIddEEKNS_14CwiseNullaryOpINS1_18scalar_constant_opIdEEKNS_6MatrixIdLin1ELi1ELi0ELin1ELi1EEEEEKNS0_INS1_20scalar_difference_opIddEESB_SB_EEEEKNS0_IS5_SD_KNS0_IS3_SB_SB_EEEEEC1ERSJ_RSN_RKS3_
00000000003fe30c W _ZN5Eigen13CwiseBinaryOpINS_8internal13scalar_sum_opIddEEKNS0_INS1_17scalar_product_opIddEEKNS_14CwiseNullaryOpINS1_18scalar_constant_opIdEEKNS_6MatrixIdLin1ELi1ELi0ELin1ELi1EEEEEKNS0_INS1_20scalar_difference_opIddEESB_SB_EEEEKNS0_IS5_SD_KNS0_IS3_SB_SB_EEEEEC2ERKSO_
00000000003ffcc6 W _ZN5Eigen13CwiseBinaryOpINS_8internal13scalar_sum_opIddEEKNS0_INS1_17scalar_product_opIddEEKNS_14CwiseNullaryOpINS1_18scalar_constant_opIdEEKNS_6MatrixIdLin1ELi1ELi0ELin1ELi1EEEEEKNS0_INS1_20scalar_difference_opIddEESB_SB_EEEEKNS0_IS5_SD_KNS0_IS3_SB_SB_EEEEEC2ERSJ_RSN_RKS3_
00000000003fdbda W _ZN5Eigen13CwiseBinaryOpINS_8internal13scalar_sum_opIddEEKNS0_INS1_17scalar_product_opIddEEKNS_14CwiseNullaryOpINS1_18scalar_constant_opIdEEKNS_6MatrixIdLin1ELi1ELi0ELin1ELi1EEEEESB_EESB_EC1ERKSG_
00000000003ff52a W _ZN5Eigen13CwiseBinaryOpINS_8internal13scalar_sum_opIddEEKNS0_INS1_17scalar_product_opIddEEKNS_14CwiseNullaryOpINS1_18scalar_constant_opIdEEKNS_6MatrixIdLin1ELi1ELi0ELin1ELi1EEEEESB_EESB_EC1ERSF_RSB_RKS3_
00000000003fdbda W _ZN5Eigen13CwiseBinaryOpINS_8internal13scalar_sum_opIddEEKNS0_INS1_17scalar_product_opIddEEKNS_14CwiseNullaryOpINS1_18scalar_constant_opIdEEKNS_6MatrixIdLin1ELi1ELi0ELin1ELi1EEEEESB_EESB_EC2ERKSG_
00000000003ff52a W _ZN5Eigen13CwiseBinaryOpINS_8internal13scalar_sum_opIddEEKNS0_INS1_17scalar_product_opIddEEKNS_14CwiseNullaryOpINS1_18scalar_constant_opIdEEKNS_6MatrixIdLin1ELi1ELi0ELin1ELi1EEEEESB_EESB_EC2ERSF_RSB_RKS3_
00000000003fe8d6 W _ZN5Eigen13CwiseBinaryOpINS_8internal13scalar_sum_opIddEEKNS0_INS1_20scalar_difference_opIddEEKNS0_INS1_17scalar_product_opIddEEKNS_14CwiseNullaryOpINS1_18scalar_constant_opIdEEKNS_6MatrixIdLin1ELi1ELi0ELin1ELi1EEEEESD_EESH_EESH_EC1ERKSK_
00000000004003e4 W _ZN5Eigen13CwiseBinaryOpINS_8internal13scalar_sum_opIddEEKNS0_INS1_20scalar_difference_opIddEEKNS0_INS1_17scalar_product_opIddEEKNS_14CwiseNullaryOpINS1_18scalar_constant_opIdEEKNS_6MatrixIdLin1ELi1ELi0ELin1ELi1EEEEESD_EESH_EESH_EC1ERSJ_RSH_RKS3_
00000000003fe8d6 W _ZN5Eigen13CwiseBinaryOpINS_8internal13scalar_sum_opIddEEKNS0_INS1_20scalar_difference_opIddEEKNS0_INS1_17scalar_product_opIddEEKNS_14CwiseNullaryOpINS1_18scalar_constant_opIdEEKNS_6MatrixIdLin1ELi1ELi0ELin1ELi1EEEEESD_EESH_EESH_EC2ERKSK_
00000000004003e4 W _ZN5Eigen13CwiseBinaryOpINS_8internal13scalar_sum_opIddEEKNS0_INS1_20scalar_difference_opIddEEKNS0_INS1_17scalar_product_opIddEEKNS_14CwiseNullaryOpINS1_18scalar_constant_opIdEEKNS_6MatrixIdLin1ELi1ELi0ELin1ELi1EEEEESD_EESH_EESH_EC2ERSJ_RSH_RKS3_
000000000041a73c W _ZN5Eigen13CwiseBinaryOpINS_8internal13scalar_sum_opIddEEKNS0_INS1_20scalar_difference_opIddEEKNS0_IS5_KNS0_INS1_17scalar_product_opIddEEKNS_14CwiseNullaryOpINS1_18scalar_constant_opIdEEKNS_6MatrixIdLi1ELin1ELi1ELi1ELin1EEEEEKNS_12SparseVectorIdLi1EiEEEESK_EESK_EESK_EC1ERKSP_
000000000041e1e4 W _ZN5Eigen13CwiseBinaryOpINS_8internal13scalar_sum_opIddEEKNS0_INS1_20scalar_difference_opIddEEKNS0_IS5_KNS0_INS1_17scalar_product_opIddEEKNS_14CwiseNullaryOpINS1_18scalar_constant_opIdEEKNS_6MatrixIdLi1ELin1ELi1ELi1ELin1EEEEEKNS_12SparseVectorIdLi1EiEEEESK_EESK_EESK_EC1ERSO_RSK_RKS3_
000000000041a73c W _ZN5Eigen13CwiseBinaryOpINS_8internal13scalar_sum_opIddEEKNS0_INS1_20scalar_difference_opIddEEKNS0_IS5_KNS0_INS1_17scalar_product_opIddEEKNS_14CwiseNullaryOpINS1_18scalar_constant_opIdEEKNS_6MatrixIdLi1ELin1ELi1ELi1ELin1EEEEEKNS_12SparseVectorIdLi1EiEEEESK_EESK_EESK_EC2ERKSP_
000000000041e1e4 W _ZN5Eigen13CwiseBinaryOpINS_8internal13scalar_sum_opIddEEKNS0_INS1_20scalar_difference_opIddEEKNS0_IS5_KNS0_INS1_17scalar_product_opIddEEKNS_14CwiseNullaryOpINS1_18scalar_constant_opIdEEKNS_6MatrixIdLi1ELin1ELi1ELi1ELin1EEEEEKNS_12SparseVectorIdLi1EiEEEESK_EESK_EESK_EC2ERSO_RSK_RKS3_
00000000004009aa W _ZN5Eigen13CwiseBinaryOpINS_8internal13scalar_sum_opIddEEKNS0_INS1_20scalar_difference_opIddEEKNS0_IS5_KNS0_INS1_18scalar_quotient_opIddEEKNS0_INS1_17scalar_product_opIddEEKNS_14CwiseNullaryOpINS1_18scalar_constant_opIdEEKNS_6MatrixIdLin1ELi1ELi0ELin1ELi1EEEEEKNS0_IS3_SF_SF_EEEESH_EEKNS0_IS7_KNS0_IS9_SH_KNS0_IS3_KNS0_IS9_SH_SF_EESF_EEEESH_EEEEKNS0_IS7_KNS0_IS9_SH_KNS0_IS3_KNS0_IS3_KNS0_IS5_SP_SP_EESP_EESP_EEEESH_EEEES17_EC1ERS19_RS17_RKS3_
00000000004009aa W _ZN5Eigen13CwiseBinaryOpINS_8internal13scalar_sum_opIddEEKNS0_INS1_20scalar_difference_opIddEEKNS0_IS5_KNS0_INS1_18scalar_quotient_opIddEEKNS0_INS1_17scalar_product_opIddEEKNS_14CwiseNullaryOpINS1_18scalar_constant_opIdEEKNS_6MatrixIdLin1ELi1ELi0ELin1ELi1EEEEEKNS0_IS3_SF_SF_EEEESH_EEKNS0_IS7_KNS0_IS9_SH_KNS0_IS3_KNS0_IS9_SH_SF_EESF_EEEESH_EEEEKNS0_IS7_KNS0_IS9_SH_KNS0_IS3_KNS0_IS3_KNS0_IS5_SP_SP_EESP_EESP_EEEESH_EEEES17_EC2ERS19_RS17_RKS3_
000000000041e988 W _ZN5Eigen13CwiseBinaryOpINS_8internal13scalar_sum_opIddEEKNS0_INS1_20scalar_difference_opIddEEKNS0_IS5_KNS0_IS3_KNS0_INS1_17scalar_product_opIddEEKNS_14CwiseNullaryOpINS1_18scalar_constant_opIdEEKNS_6MatrixIdLi1ELin1ELi1ELi1ELin1EEEEEKNS_12SparseVectorIdLi1EiEEEESK_EESK_EESK_EESK_EC1ERSQ_RSK_RKS3_
000000000041e988 W _ZN5Eigen13CwiseBinaryOpINS_8internal13scalar_sum_opIddEEKNS0_INS1_20scalar_difference_opIddEEKNS0_IS5_KNS0_IS3_KNS0_INS1_17scalar_product_opIddEEKNS_14CwiseNullaryOpINS1_18scalar_constant_opIdEEKNS_6MatrixIdLi1ELin1ELi1ELi1ELin1EEEEEKNS_12SparseVectorIdLi1EiEEEESK_EESK_EESK_EESK_EC2ERSQ_RSK_RKS3_
000000000041f216 W _ZN5Eigen13CwiseBinaryOpINS_8internal13scalar_sum_opIddEEKNS0_INS1_20scalar_difference_opIddEEKNS0_IS5_KNS0_IS5_KNS0_IS5_KNS0_INS1_17scalar_product_opIddEEKNS_14CwiseNullaryOpINS1_18scalar_constant_opIdEEKNS_6MatrixIdLi1ELin1ELi1ELi1ELin1EEEEEKNS_12SparseVectorIdLi1EiEEEESK_EESK_EESK_EESK_EEKNS0_IS7_SK_SF_EEEC1ERSS_RSU_RKS3_
000000000041f216 W _ZN5Eigen13CwiseBinaryOpINS_8internal13scalar_sum_opIddEEKNS0_INS1_20scalar_difference_opIddEEKNS0_IS5_KNS0_IS5_KNS0_IS5_KNS0_INS1_17scalar_product_opIddEEKNS_14CwiseNullaryOpINS1_18scalar_constant_opIdEEKNS_6MatrixIdLi1ELin1ELi1ELi1ELin1EEEEEKNS_12SparseVectorIdLi1EiEEEESK_EESK_EESK_EESK_EEKNS0_IS7_SK_SF_EEEC2ERSS_RSU_RKS3_
00000000003fe9c4 W _ZN5Eigen13CwiseBinaryOpINS_8internal13scalar_sum_opIddEEKNS0_IS3_KNS0_INS1_20scalar_difference_opIddEEKNS0_INS1_17scalar_product_opIddEEKNS_14CwiseNullaryOpINS1_18scalar_constant_opIdEEKNS_6MatrixIdLin1ELi1ELi0ELin1ELi1EEEEESD_EESH_EESH_EESH_EC1ERKSM_
00000000004004ee W _ZN5Eigen13CwiseBinaryOpINS_8internal13scalar_sum_opIddEEKNS0_IS3_KNS0_INS1_20scalar_difference_opIddEEKNS0_INS1_17scalar_product_opIddEEKNS_14CwiseNullaryOpINS1_18scalar_constant_opIdEEKNS_6MatrixIdLin1ELi1ELi0ELin1ELi1EEEEESD_EESH_EESH_EESH_EC1ERSL_RSH_RKS3_
00000000003fe9c4 W _ZN5Eigen13CwiseBinaryOpINS_8internal13scalar_sum_opIddEEKNS0_IS3_KNS0_INS1_20scalar_difference_opIddEEKNS0_INS1_17scalar_product_opIddEEKNS_14CwiseNullaryOpINS1_18scalar_constant_opIdEEKNS_6MatrixIdLin1ELi1ELi0ELin1ELi1EEEEESD_EESH_EESH_EESH_EC2ERKSM_
00000000004004ee W _ZN5Eigen13CwiseBinaryOpINS_8internal13scalar_sum_opIddEEKNS0_IS3_KNS0_INS1_20scalar_difference_opIddEEKNS0_INS1_17scalar_product_opIddEEKNS_14CwiseNullaryOpINS1_18scalar_constant_opIdEEKNS_6MatrixIdLin1ELi1ELi0ELin1ELi1EEEEESD_EESH_EESH_EESH_EC2ERSL_RSH_RKS3_
000000000041e2d6 W _ZN5Eigen13CwiseBinaryOpINS_8internal13scalar_sum_opIddEEKNS0_IS3_KNS0_INS1_20scalar_difference_opIddEEKNS0_IS5_KNS0_INS1_17scalar_product_opIddEEKNS_14CwiseNullaryOpINS1_18scalar_constant_opIdEEKNS_6MatrixIdLi1ELin1ELi1ELi1ELin1EEEEEKNS_12SparseVectorIdLi1EiEEEESK_EESK_EESK_EESK_EC1ERSQ_RSK_RKS3_
000000000041e2d6 W _ZN5Eigen13CwiseBinaryOpINS_8internal13scalar_sum_opIddEEKNS0_IS3_KNS0_INS1_20scalar_difference_opIddEEKNS0_IS5_KNS0_INS1_17scalar_product_opIddEEKNS_14CwiseNullaryOpINS1_18scalar_constant_opIdEEKNS_6MatrixIdLi1ELin1ELi1ELi1ELin1EEEEEKNS_12SparseVectorIdLi1EiEEEESK_EESK_EESK_EESK_EC2ERSQ_RSK_RKS3_
000000000041cf18 W _ZN5Eigen13CwiseBinaryOpINS_8internal13scalar_sum_opIddEEKNS0_IS3_KNS0_IS3_KNS_7ProductINS_12SparseVectorIdLi1EiEENS_12SparseMatrixIdLi1EiEELi2EEEKNS4_INS_5BlockIS8_Li1ELin1ELb1EEES8_Li2EEEEESA_EESE_EC1ERSI_RSE_RKS3_
000000000041cf18 W _ZN5Eigen13CwiseBinaryOpINS_8internal13scalar_sum_opIddEEKNS0_IS3_KNS0_IS3_KNS_7ProductINS_12SparseVectorIdLi1EiEENS_12SparseMatrixIdLi1EiEELi2EEEKNS4_INS_5BlockIS8_Li1ELin1ELb1EEES8_Li2EEEEESA_EESE_EC2ERSI_RSE_RKS3_
0000000000389bb6 W _ZN5Eigen13CwiseBinaryOpINS_8internal13scalar_sum_opIddEEKNS0_IS3_KNS_12SparseMatrixIdLi1EiEES6_EES6_EC1ERKS9_
000000000038d7a8 W _ZN5Eigen13CwiseBinaryOpINS_8internal13scalar_sum_opIddEEKNS0_IS3_KNS_12SparseMatrixIdLi1EiEES6_EES6_EC1ERS8_RS6_RKS3_
0000000000389bb6 W _ZN5Eigen13CwiseBinaryOpINS_8internal13scalar_sum_opIddEEKNS0_IS3_KNS_12SparseMatrixIdLi1EiEES6_EES6_EC2ERKS9_
000000000038d7a8 W _ZN5Eigen13CwiseBinaryOpINS_8internal13scalar_sum_opIddEEKNS0_IS3_KNS_12SparseMatrixIdLi1EiEES6_EES6_EC2ERS8_RS6_RKS3_
00000000004183ee W _ZN5Eigen13CwiseBinaryOpINS_8internal13scalar_sum_opIddEEKNS0_IS3_KNS_7ProductINS_12SparseVectorIdLi1EiEENS_12SparseMatrixIdLi1EiEELi2EEEKNS4_INS_5BlockIS8_Li1ELin1ELb1EEES8_Li2EEEEESA_EC1ERKSH_
000000000041ce22 W _ZN5Eigen13CwiseBinaryOpINS_8internal13scalar_sum_opIddEEKNS0_IS3_KNS_7ProductINS_12SparseVectorIdLi1EiEENS_12SparseMatrixIdLi1EiEELi2EEEKNS4_INS_5BlockIS8_Li1ELin1ELb1EEES8_Li2EEEEESA_EC1ERSG_RSA_RKS3_
00000000004183ee W _ZN5Eigen13CwiseBinaryOpINS_8internal13scalar_sum_opIddEEKNS0_IS3_KNS_7ProductINS_12SparseVectorIdLi1EiEENS_12SparseMatrixIdLi1EiEELi2EEEKNS4_INS_5BlockIS8_Li1ELin1ELb1EEES8_Li2EEEEESA_EC2ERKSH_
000000000041ce22 W _ZN5Eigen13CwiseBinaryOpINS_8internal13scalar_sum_opIddEEKNS0_IS3_KNS_7ProductINS_12SparseVectorIdLi1EiEENS_12SparseMatrixIdLi1EiEELi2EEEKNS4_INS_5BlockIS8_Li1ELin1ELb1EEES8_Li2EEEEESA_EC2ERSG_RSA_RKS3_
0000000000389a2a W _ZN5Eigen13CwiseBinaryOpINS_8internal13scalar_sum_opIddEEKNS_12SparseMatrixIdLi1EiEES6_EC1ERKS7_
000000000038d6d2 W _ZN5Eigen13CwiseBinaryOpINS_8internal13scalar_sum_opIddEEKNS_12SparseMatrixIdLi1EiEES6_EC1ERS6_S8_RKS3_
0000000000389a2a W _ZN5Eigen13CwiseBinaryOpINS_8internal13scalar_sum_opIddEEKNS_12SparseMatrixIdLi1EiEES6_EC2ERKS7_
000000000038d6d2 W _ZN5Eigen13CwiseBinaryOpINS_8internal13scalar_sum_opIddEEKNS_12SparseMatrixIdLi1EiEES6_EC2ERS6_S8_RKS3_
000000000042045c W _ZN5Eigen13CwiseBinaryOpINS_8internal13scalar_sum_opIddEEKNS_5BlockINS_12SparseMatrixIdLi1EiEELi1ELin1ELb1EEEKNS0_INS1_17scalar_product_opIddEEKNS_14CwiseNullaryOpINS1_18scalar_constant_opIdEEKNS_6MatrixIdLi1ELin1ELi1ELi1ELin1EEEEEKNS_12SparseVectorIdLi1EiEEEEEC1ERS8_RSN_RKS3_
000000000042045c W _ZN5Eigen13CwiseBinaryOpINS_8internal13scalar_sum_opIddEEKNS_5BlockINS_12SparseMatrixIdLi1EiEELi1ELin1ELb1EEEKNS0_INS1_17scalar_product_opIddEEKNS_14CwiseNullaryOpINS1_18scalar_constant_opIdEEKNS_6MatrixIdLi1ELin1ELi1ELi1ELin1EEEEEKNS_12SparseVectorIdLi1EiEEEEEC2ERS8_RSN_RKS3_
00000000003b2a6a W _ZN5Eigen13CwiseBinaryOpINS_8internal13scalar_sum_opIddEEKNS_6MatrixIdLi2ELi1ELi0ELi2ELi1EEEKNS0_INS1_17scalar_product_opIddEEKNS_14CwiseNullaryOpINS1_18scalar_constant_opIdEES6_EES6_EEEC1ERS6_RSF_RKS3_
00000000003b2a6a W _ZN5Eigen13CwiseBinaryOpINS_8internal13scalar_sum_opIddEEKNS_6MatrixIdLi2ELi1ELi0ELi2ELi1EEEKNS0_INS1_17scalar_product_opIddEEKNS_14CwiseNullaryOpINS1_18scalar_constant_opIdEES6_EES6_EEEC2ERS6_RSF_RKS3_
00000000003b83f8 W _ZN5Eigen13CwiseBinaryOpINS_8internal13scalar_sum_opIddEEKNS_6MatrixIdLi3ELi1ELi0ELi3ELi1EEEKNS0_INS1_17scalar_product_opIddEEKNS_14CwiseNullaryOpINS1_18scalar_constant_opIdEES6_EES6_EEEC1ERKSG_
00000000003b89aa W _ZN5Eigen13CwiseBinaryOpINS_8internal13scalar_sum_opIddEEKNS_6MatrixIdLi3ELi1ELi0ELi3ELi1EEEKNS0_INS1_17scalar_product_opIddEEKNS_14CwiseNullaryOpINS1_18scalar_constant_opIdEES6_EES6_EEEC1ERS6_RSF_RKS3_
00000000003b83f8 W _ZN5Eigen13CwiseBinaryOpINS_8internal13scalar_sum_opIddEEKNS_6MatrixIdLi3ELi1ELi0ELi3ELi1EEEKNS0_INS1_17scalar_product_opIddEEKNS_14CwiseNullaryOpINS1_18scalar_constant_opIdEES6_EES6_EEEC2ERKSG_
00000000003b89aa W _ZN5Eigen13CwiseBinaryOpINS_8internal13scalar_sum_opIddEEKNS_6MatrixIdLi3ELi1ELi0ELi3ELi1EEEKNS0_INS1_17scalar_product_opIddEEKNS_14CwiseNullaryOpINS1_18scalar_constant_opIdEES6_EES6_EEEC2ERS6_RSF_RKS3_
000000000035d7c6 W _ZN5Eigen13CwiseBinaryOpINS_8internal13scalar_sum_opIddEEKNS_6MatrixIdLin1ELi1ELi0ELin1ELi1EEEKNS0_INS1_17scalar_product_opIddEEKNS_14CwiseNullaryOpINS1_18scalar_constant_opIdEES6_EES6_EEEC1ERS6_RSF_RKS3_
000000000035d7c6 W _ZN5Eigen13CwiseBinaryOpINS_8internal13scalar_sum_opIddEEKNS_6MatrixIdLin1ELi1ELi0ELin1ELi1EEEKNS0_INS1_17scalar_product_opIddEEKNS_14CwiseNullaryOpINS1_18scalar_constant_opIdEES6_EES6_EEEC2ERS6_RSF_RKS3_
000000000033d026 W _ZN5Eigen13CwiseBinaryOpINS_8internal13scalar_sum_opIddEEKNS_6MatrixIdLin1ELi1ELi0ELin1ELi1EEEKNS_7ProductINS4_IdLi3ELi3ELi0ELi3ELi3EEENS4_IdLi3ELi1ELi0ELi3ELi1EEELi0EEEEC1ERS6_RSB_RKS3_
000000000033d026 W _ZN5Eigen13CwiseBinaryOpINS_8internal13scalar_sum_opIddEEKNS_6MatrixIdLin1ELi1ELi0ELin1ELi1EEEKNS_7ProductINS4_IdLi3ELi3ELi0ELi3ELi3EEENS4_IdLi3ELi1ELi0ELi3ELi1EEELi0EEEEC2ERS6_RSB_RKS3_
00000000003fe0fa W _ZN5Eigen13CwiseBinaryOpINS_8internal13scalar_sum_opIddEEKNS_6MatrixIdLin1ELi1ELi0ELin1ELi1EEES6_EC1ERKS7_
00000000003ffa92 W _ZN5Eigen13CwiseBinaryOpINS_8internal13scalar_sum_opIddEEKNS_6MatrixIdLin1ELi1ELi0ELin1ELi1EEES6_EC1ERS6_S8_RKS3_
00000000003fe0fa W _ZN5Eigen13CwiseBinaryOpINS_8internal13scalar_sum_opIddEEKNS_6MatrixIdLin1ELi1ELi0ELin1ELi1EEES6_EC2ERKS7_
00000000003ffa92 W _ZN5Eigen13CwiseBinaryOpINS_8internal13scalar_sum_opIddEEKNS_6MatrixIdLin1ELi1ELi0ELin1ELi1EEES6_EC2ERS6_S8_RKS3_
0000000000387b82 W _ZN5Eigen13CwiseBinaryOpINS_8internal13scalar_sum_opIddEEKNS_7ProductINS_12SparseMatrixIdLi1EiEENS_6MatrixIdLi3ELi1ELi0ELi3ELi1EEELi0EEEKNS4_IS6_S9_Li0EEEEC1ERKSD_
000000000038bea4 W _ZN5Eigen13CwiseBinaryOpINS_8internal13scalar_sum_opIddEEKNS_7ProductINS_12SparseMatrixIdLi1EiEENS_6MatrixIdLi3ELi1ELi0ELi3ELi1EEELi0EEEKNS4_IS6_S9_Li0EEEEC1ERSA_RSC_RKS3_
0000000000387b82 W _ZN5Eigen13CwiseBinaryOpINS_8internal13scalar_sum_opIddEEKNS_7ProductINS_12SparseMatrixIdLi1EiEENS_6MatrixIdLi3ELi1ELi0ELi3ELi1EEELi0EEEKNS4_IS6_S9_Li0EEEEC2ERKSD_
000000000038bea4 W _ZN5Eigen13CwiseBinaryOpINS_8internal13scalar_sum_opIddEEKNS_7ProductINS_12SparseMatrixIdLi1EiEENS_6MatrixIdLi3ELi1ELi0ELi3ELi1EEELi0EEEKNS4_IS6_S9_Li0EEEEC2ERSA_RSC_RKS3_
000000000041c78e W _ZN5Eigen13CwiseBinaryOpINS_8internal13scalar_sum_opIddEEKNS_7ProductINS_12SparseMatrixIdLi1EiEENS_6MatrixIdLin1ELi1ELi0ELin1ELi1EEELi0EEESA_EC1ERSA_SC_RKS3_
000000000041c78e W _ZN5Eigen13CwiseBinaryOpINS_8internal13scalar_sum_opIddEEKNS_7ProductINS_12SparseMatrixIdLi1EiEENS_6MatrixIdLin1ELi1ELi0ELin1ELi1EEELi0EEESA_EC2ERSA_SC_RKS3_
00000000004182f0 W _ZN5Eigen13CwiseBinaryOpINS_8internal13scalar_sum_opIddEEKNS_7ProductINS_12SparseVectorIdLi1EiEENS_12SparseMatrixIdLi1EiEELi2EEEKNS4_INS_5BlockIS8_Li1ELin1ELb1EEES8_Li2EEEEC1ERKSF_
000000000041cc88 W _ZN5Eigen13CwiseBinaryOpINS_8internal13scalar_sum_opIddEEKNS_7ProductINS_12SparseVectorIdLi1EiEENS_12SparseMatrixIdLi1EiEELi2EEEKNS4_INS_5BlockIS8_Li1ELin1ELb1EEES8_Li2EEEEC1ERSA_RSE_RKS3_
00000000004182f0 W _ZN5Eigen13CwiseBinaryOpINS_8internal13scalar_sum_opIddEEKNS_7ProductINS_12SparseVectorIdLi1EiEENS_12SparseMatrixIdLi1EiEELi2EEEKNS4_INS_5BlockIS8_Li1ELin1ELb1EEES8_Li2EEEEC2ERKSF_
000000000041cc88 W _ZN5Eigen13CwiseBinaryOpINS_8internal13scalar_sum_opIddEEKNS_7ProductINS_12SparseVectorIdLi1EiEENS_12SparseMatrixIdLi1EiEELi2EEEKNS4_INS_5BlockIS8_Li1ELin1ELb1EEES8_Li2EEEEC2ERSA_RSE_RKS3_
000000000041b0b2 W _ZN5Eigen13CwiseBinaryOpINS_8internal17scalar_product_opIddEEKNS0_IS3_KNS_14CwiseNullaryOpINS1_18scalar_constant_opIdEEKNS_6MatrixIdLi1ELin1ELi1ELi1ELin1EEEEEKNS_12SparseVectorIdLi1EiEEEESB_EC1ERKSH_
000000000041f11c W _ZN5Eigen13CwiseBinaryOpINS_8internal17scalar_product_opIddEEKNS0_IS3_KNS_14CwiseNullaryOpINS1_18scalar_constant_opIdEEKNS_6MatrixIdLi1ELin1ELi1ELi1ELin1EEEEEKNS_12SparseVectorIdLi1EiEEEESB_EC1ERSG_RSB_RKS3_
000000000041b0b2 W _ZN5Eigen13CwiseBinaryOpINS_8internal17scalar_product_opIddEEKNS0_IS3_KNS_14CwiseNullaryOpINS1_18scalar_constant_opIdEEKNS_6MatrixIdLi1ELin1ELi1ELi1ELin1EEEEEKNS_12SparseVectorIdLi1EiEEEESB_EC2ERKSH_
000000000041f11c W _ZN5Eigen13CwiseBinaryOpINS_8internal17scalar_product_opIddEEKNS0_IS3_KNS_14CwiseNullaryOpINS1_18scalar_constant_opIdEEKNS_6MatrixIdLi1ELin1ELi1ELi1ELin1EEEEEKNS_12SparseVectorIdLi1EiEEEESB_EC2ERSG_RSB_RKS3_
00000000003cbc42 W _ZN5Eigen13CwiseBinaryOpINS_8internal17scalar_product_opIddEEKNS_12ArrayWrapperINS_6MatrixIdLi3ELi3ELi0ELi3ELi3EEEEES8_EC1ERS8_SA_RKS3_
00000000003cbc42 W _ZN5Eigen13CwiseBinaryOpINS_8internal17scalar_product_opIddEEKNS_12ArrayWrapperINS_6MatrixIdLi3ELi3ELi0ELi3ELi3EEEEES8_EC2ERS8_SA_RKS3_
00000000003a9d1c W _ZN5Eigen13CwiseBinaryOpINS_8internal17scalar_product_opIddEEKNS_14CwiseNullaryOpINS1_18scalar_constant_opIdEEKNS_6MatrixIdLi1ELi3ELi1ELi1ELi3EEEEEKNS_5BlockIKNS_9TransposeIKNS7_IdLi3ELi3ELi0ELi3ELi3EEEEELi1ELi3ELb1EEEEC1ERSB_RSJ_RKS3_
00000000003a9d1c W _ZN5Eigen13CwiseBinaryOpINS_8internal17scalar_product_opIddEEKNS_14CwiseNullaryOpINS1_18scalar_constant_opIdEEKNS_6MatrixIdLi1ELi3ELi1ELi1ELi3EEEEEKNS_5BlockIKNS_9TransposeIKNS7_IdLi3ELi3ELi0ELi3ELi3EEEEELi1ELi3ELb1EEEEC2ERSB_RSJ_RKS3_
0000000000419868 W _ZN5Eigen13CwiseBinaryOpINS_8internal17scalar_product_opIddEEKNS_14CwiseNullaryOpINS1_18scalar_constant_opIdEEKNS_6MatrixIdLi1ELin1ELi1ELi1ELin1EEEEEKNS_12SparseVectorIdLi1EiEEEC1ERKSF_
000000000041d0c2 W _ZN5Eigen13CwiseBinaryOpINS_8internal17scalar_product_opIddEEKNS_14CwiseNullaryOpINS1_18scalar_constant_opIdEEKNS_6MatrixIdLi1ELin1ELi1ELi1ELin1EEEEEKNS_12SparseVectorIdLi1EiEEEC1ERSB_RSE_RKS3_
0000000000419868 W _ZN5Eigen13CwiseBinaryOpINS_8internal17scalar_product_opIddEEKNS_14CwiseNullaryOpINS1_18scalar_constant_opIdEEKNS_6MatrixIdLi1ELin1ELi1ELi1ELin1EEEEEKNS_12SparseVectorIdLi1EiEEEC2ERKSF_
000000000041d0c2 W _ZN5Eigen13CwiseBinaryOpINS_8internal17scalar_product_opIddEEKNS_14CwiseNullaryOpINS1_18scalar_constant_opIdEEKNS_6MatrixIdLi1ELin1ELi1ELi1ELin1EEEEEKNS_12SparseVectorIdLi1EiEEEC2ERSB_RSE_RKS3_
00000000003d937e W _ZN5Eigen13CwiseBinaryOpINS_8internal17scalar_product_opIddEEKNS_14CwiseNullaryOpINS1_18scalar_constant_opIdEEKNS_6MatrixIdLi1ELin1ELi1ELi1ELin1EEEEEKNS_9TransposeIKNS0_INS1_20scalar_difference_opIddEEKNS7_IdLin1ELi1ELi0ELin1ELi1EEESG_EEEEEC1ERKSL_
00000000003d98c2 W _ZN5Eigen13CwiseBinaryOpINS_8internal17scalar_product_opIddEEKNS_14CwiseNullaryOpINS1_18scalar_constant_opIdEEKNS_6MatrixIdLi1ELin1ELi1ELi1ELin1EEEEEKNS_9TransposeIKNS0_INS1_20scalar_difference_opIddEEKNS7_IdLin1ELi1ELi0ELin1ELi1EEESG_EEEEEC1ERSB_RSK_RKS3_
00000000003d937e W _ZN5Eigen13CwiseBinaryOpINS_8internal17scalar_product_opIddEEKNS_14CwiseNullaryOpINS1_18scalar_constant_opIdEEKNS_6MatrixIdLi1ELin1ELi1ELi1ELin1EEEEEKNS_9TransposeIKNS0_INS1_20scalar_difference_opIddEEKNS7_IdLin1ELi1ELi0ELin1ELi1EEESG_EEEEEC2ERKSL_
00000000003d98c2 W _ZN5Eigen13CwiseBinaryOpINS_8internal17scalar_product_opIddEEKNS_14CwiseNullaryOpINS1_18scalar_constant_opIdEEKNS_6MatrixIdLi1ELin1ELi1ELi1ELin1EEEEEKNS_9TransposeIKNS0_INS1_20scalar_difference_opIddEEKNS7_IdLin1ELi1ELi0ELin1ELi1EEESG_EEEEEC2ERSB_RSK_RKS3_
00000000003b2292 W _ZN5Eigen13CwiseBinaryOpINS_8internal17scalar_product_opIddEEKNS_14CwiseNullaryOpINS1_18scalar_constant_opIdEEKNS_6MatrixIdLi2ELi1ELi0ELi2ELi1EEEEES9_EC1ERKSC_
00000000003b296e W _ZN5Eigen13CwiseBinaryOpINS_8internal17scalar_product_opIddEEKNS_14CwiseNullaryOpINS1_18scalar_constant_opIdEEKNS_6MatrixIdLi2ELi1ELi0ELi2ELi1EEEEES9_EC1ERSB_RS9_RKS3_
00000000003b2292 W _ZN5Eigen13CwiseBinaryOpINS_8internal17scalar_product_opIddEEKNS_14CwiseNullaryOpINS1_18scalar_constant_opIdEEKNS_6MatrixIdLi2ELi1ELi0ELi2ELi1EEEEES9_EC2ERKSC_
00000000003b296e W _ZN5Eigen13CwiseBinaryOpINS_8internal17scalar_product_opIddEEKNS_14CwiseNullaryOpINS1_18scalar_constant_opIdEEKNS_6MatrixIdLi2ELi1ELi0ELi2ELi1EEEEES9_EC2ERSB_RS9_RKS3_
00000000003f2d90 W _ZN5Eigen13CwiseBinaryOpINS_8internal17scalar_product_opIddEEKNS_14CwiseNullaryOpINS1_18scalar_constant_opIdEEKNS_6MatrixIdLi3ELi1ELi0ELi3ELi1EEEEEKNS0_INS1_20scalar_difference_opIddEEKNS0_IS3_SB_KNS_5BlockIKNS4_INS1_18scalar_identity_opIdEENS7_IdLi3ELi3ELi0ELi3ELi3EEEEELi3ELi1ELb0EEEEEKNS0_IS3_SB_S9_EEEEEC1ERSB_RSR_RKS3_
00000000003f2d90 W _ZN5Eigen13CwiseBinaryOpINS_8internal17scalar_product_opIddEEKNS_14CwiseNullaryOpINS1_18scalar_constant_opIdEEKNS_6MatrixIdLi3ELi1ELi0ELi3ELi1EEEEEKNS0_INS1_20scalar_difference_opIddEEKNS0_IS3_SB_KNS_5BlockIKNS4_INS1_18scalar_identity_opIdEENS7_IdLi3ELi3ELi0ELi3ELi3EEEEELi3ELi1ELb0EEEEEKNS0_IS3_SB_S9_EEEEEC2ERSB_RSR_RKS3_
00000000003f1b0a W _ZN5Eigen13CwiseBinaryOpINS_8internal17scalar_product_opIddEEKNS_14CwiseNullaryOpINS1_18scalar_constant_opIdEEKNS_6MatrixIdLi3ELi1ELi0ELi3ELi1EEEEEKNS_5BlockIKNS4_INS1_18scalar_identity_opIdEENS7_IdLi3ELi3ELi0ELi3ELi3EEEEELi3ELi1ELb0EEEEC1ERKSK_
00000000003f2b44 W _ZN5Eigen13CwiseBinaryOpINS_8internal17scalar_product_opIddEEKNS_14CwiseNullaryOpINS1_18scalar_constant_opIdEEKNS_6MatrixIdLi3ELi1ELi0ELi3ELi1EEEEEKNS_5BlockIKNS4_INS1_18scalar_identity_opIdEENS7_IdLi3ELi3ELi0ELi3ELi3EEEEELi3ELi1ELb0EEEEC1ERSB_RSJ_RKS3_
00000000003f1b0a W _ZN5Eigen13CwiseBinaryOpINS_8internal17scalar_product_opIddEEKNS_14CwiseNullaryOpINS1_18scalar_constant_opIdEEKNS_6MatrixIdLi3ELi1ELi0ELi3ELi1EEEEEKNS_5BlockIKNS4_INS1_18scalar_identity_opIdEENS7_IdLi3ELi3ELi0ELi3ELi3EEEEELi3ELi1ELb0EEEEC2ERKSK_
00000000003f2b44 W _ZN5Eigen13CwiseBinaryOpINS_8internal17scalar_product_opIddEEKNS_14CwiseNullaryOpINS1_18scalar_constant_opIdEEKNS_6MatrixIdLi3ELi1ELi0ELi3ELi1EEEEEKNS_5BlockIKNS4_INS1_18scalar_identity_opIdEENS7_IdLi3ELi3ELi0ELi3ELi3EEEEELi3ELi1ELb0EEEEC2ERSB_RSJ_RKS3_
0000000000387df2 W _ZN5Eigen13CwiseBinaryOpINS_8internal17scalar_product_opIddEEKNS_14CwiseNullaryOpINS1_18scalar_constant_opIdEEKNS_6MatrixIdLi3ELi1ELi0ELi3ELi1EEEEES9_EC1ERKSC_
000000000038c1cc W _ZN5Eigen13CwiseBinaryOpINS_8internal17scalar_product_opIddEEKNS_14CwiseNullaryOpINS1_18scalar_constant_opIdEEKNS_6MatrixIdLi3ELi1ELi0ELi3ELi1EEEEES9_EC1ERSB_RS9_RKS3_
0000000000387df2 W _ZN5Eigen13CwiseBinaryOpINS_8internal17scalar_product_opIddEEKNS_14CwiseNullaryOpINS1_18scalar_constant_opIdEEKNS_6MatrixIdLi3ELi1ELi0ELi3ELi1EEEEES9_EC2ERKSC_
000000000038c1cc W _ZN5Eigen13CwiseBinaryOpINS_8internal17scalar_product_opIddEEKNS_14CwiseNullaryOpINS1_18scalar_constant_opIdEEKNS_6MatrixIdLi3ELi1ELi0ELi3ELi1EEEEES9_EC2ERSB_RS9_RKS3_
00000000003fdd74 W _ZN5Eigen13CwiseBinaryOpINS_8internal17scalar_product_opIddEEKNS_14CwiseNullaryOpINS1_18scalar_constant_opIdEEKNS_6MatrixIdLin1ELi1ELi0ELin1ELi1EEEEEKNS0_INS1_13scalar_sum_opIddEEKNS0_IS3_SB_S9_EES9_EEEC1ERKSI_
00000000003ff662 W _ZN5Eigen13CwiseBinaryOpINS_8internal17scalar_product_opIddEEKNS_14CwiseNullaryOpINS1_18scalar_constant_opIdEEKNS_6MatrixIdLin1ELi1ELi0ELin1ELi1EEEEEKNS0_INS1_13scalar_sum_opIddEEKNS0_IS3_SB_S9_EES9_EEEC1ERSB_RSH_RKS3_
00000000003fdd74 W _ZN5Eigen13CwiseBinaryOpINS_8internal17scalar_product_opIddEEKNS_14CwiseNullaryOpINS1_18scalar_constant_opIdEEKNS_6MatrixIdLin1ELi1ELi0ELin1ELi1EEEEEKNS0_INS1_13scalar_sum_opIddEEKNS0_IS3_SB_S9_EES9_EEEC2ERKSI_
00000000003ff662 W _ZN5Eigen13CwiseBinaryOpINS_8internal17scalar_product_opIddEEKNS_14CwiseNullaryOpINS1_18scalar_constant_opIdEEKNS_6MatrixIdLin1ELi1ELi0ELin1ELi1EEEEEKNS0_INS1_13scalar_sum_opIddEEKNS0_IS3_SB_S9_EES9_EEEC2ERSB_RSH_RKS3_
00000000003feb10 W _ZN5Eigen13CwiseBinaryOpINS_8internal17scalar_product_opIddEEKNS_14CwiseNullaryOpINS1_18scalar_constant_opIdEEKNS_6MatrixIdLin1ELi1ELi0ELin1ELi1EEEEEKNS0_INS1_13scalar_sum_opIddEEKNS0_ISD_KNS0_INS1_20scalar_difference_opIddEEKNS0_IS3_SB_S9_EESH_EESH_EESH_EEEC1ERKSO_
000000000040063a W _ZN5Eigen13CwiseBinaryOpINS_8internal17scalar_product_opIddEEKNS_14CwiseNullaryOpINS1_18scalar_constant_opIdEEKNS_6MatrixIdLin1ELi1ELi0ELin1ELi1EEEEEKNS0_INS1_13scalar_sum_opIddEEKNS0_ISD_KNS0_INS1_20scalar_difference_opIddEEKNS0_IS3_SB_S9_EESH_EESH_EESH_EEEC1ERSB_RSN_RKS3_
00000000003feb10 W _ZN5Eigen13CwiseBinaryOpINS_8internal17scalar_product_opIddEEKNS_14CwiseNullaryOpINS1_18scalar_constant_opIdEEKNS_6MatrixIdLin1ELi1ELi0ELin1ELi1EEEEEKNS0_INS1_13scalar_sum_opIddEEKNS0_ISD_KNS0_INS1_20scalar_difference_opIddEEKNS0_IS3_SB_S9_EESH_EESH_EESH_EEEC2ERKSO_
000000000040063a W _ZN5Eigen13CwiseBinaryOpINS_8internal17scalar_product_opIddEEKNS_14CwiseNullaryOpINS1_18scalar_constant_opIdEEKNS_6MatrixIdLin1ELi1ELi0ELin1ELi1EEEEEKNS0_INS1_13scalar_sum_opIddEEKNS0_ISD_KNS0_INS1_20scalar_difference_opIddEEKNS0_IS3_SB_S9_EESH_EESH_EESH_EEEC2ERSB_RSN_RKS3_
00000000003fe224 W _ZN5Eigen13CwiseBinaryOpINS_8internal17scalar_product_opIddEEKNS_14CwiseNullaryOpINS1_18scalar_constant_opIdEEKNS_6MatrixIdLin1ELi1ELi0ELin1ELi1EEEEEKNS0_INS1_13scalar_sum_opIddEES9_S9_EEEC1ERKSG_
00000000003ffbbe W _ZN5Eigen13CwiseBinaryOpINS_8internal17scalar_product_opIddEEKNS_14CwiseNullaryOpINS1_18scalar_constant_opIdEEKNS_6MatrixIdLin1ELi1ELi0ELin1ELi1EEEEEKNS0_INS1_13scalar_sum_opIddEES9_S9_EEEC1ERSB_RSF_RKS3_
00000000003fe224 W _ZN5Eigen13CwiseBinaryOpINS_8internal17scalar_product_opIddEEKNS_14CwiseNullaryOpINS1_18scalar_constant_opIdEEKNS_6MatrixIdLin1ELi1ELi0ELin1ELi1EEEEEKNS0_INS1_13scalar_sum_opIddEES9_S9_EEEC2ERKSG_
00000000003ffbbe W _ZN5Eigen13CwiseBinaryOpINS_8internal17scalar_product_opIddEEKNS_14CwiseNullaryOpINS1_18scalar_constant_opIdEEKNS_6MatrixIdLin1ELi1ELi0ELin1ELi1EEEEEKNS0_INS1_13scalar_sum_opIddEES9_S9_EEEC2ERSB_RSF_RKS3_
000000000040b53c W _ZN5Eigen13CwiseBinaryOpINS_8internal17scalar_product_opIddEEKNS_14CwiseNullaryOpINS1_18scalar_constant_opIdEEKNS_6MatrixIdLin1ELi1ELi0ELin1ELi1EEEEEKNS0_INS1_20scalar_difference_opIddEES9_KNS0_IS3_SB_S9_EEEEEC1ERSB_RSH_RKS3_
000000000040b53c W _ZN5Eigen13CwiseBinaryOpINS_8internal17scalar_product_opIddEEKNS_14CwiseNullaryOpINS1_18scalar_constant_opIdEEKNS_6MatrixIdLin1ELi1ELi0ELin1ELi1EEEEEKNS0_INS1_20scalar_difference_opIddEES9_KNS0_IS3_SB_S9_EEEEEC2ERSB_RSH_RKS3_
00000000003fdd10 W _ZN5Eigen13CwiseBinaryOpINS_8internal17scalar_product_opIddEEKNS_14CwiseNullaryOpINS1_18scalar_constant_opIdEEKNS_6MatrixIdLin1ELi1ELi0ELin1ELi1EEEEEKNS0_INS1_20scalar_difference_opIddEES9_S9_EEEC1ERKSG_
00000000003ff430 W _ZN5Eigen13CwiseBinaryOpINS_8internal17scalar_product_opIddEEKNS_14CwiseNullaryOpINS1_18scalar_constant_opIdEEKNS_6MatrixIdLin1ELi1ELi0ELin1ELi1EEEEEKNS0_INS1_20scalar_difference_opIddEES9_S9_EEEC1ERSB_RSF_RKS3_
00000000003fdd10 W _ZN5Eigen13CwiseBinaryOpINS_8internal17scalar_product_opIddEEKNS_14CwiseNullaryOpINS1_18scalar_constant_opIdEEKNS_6MatrixIdLin1ELi1ELi0ELin1ELi1EEEEEKNS0_INS1_20scalar_difference_opIddEES9_S9_EEEC2ERKSG_
00000000003ff430 W _ZN5Eigen13CwiseBinaryOpINS_8internal17scalar_product_opIddEEKNS_14CwiseNullaryOpINS1_18scalar_constant_opIdEEKNS_6MatrixIdLin1ELi1ELi0ELin1ELi1EEEEEKNS0_INS1_20scalar_difference_opIddEES9_S9_EEEC2ERSB_RSF_RKS3_
000000000035c41e W _ZN5Eigen13CwiseBinaryOpINS_8internal17scalar_product_opIddEEKNS_14CwiseNullaryOpINS1_18scalar_constant_opIdEEKNS_6MatrixIdLin1ELi1ELi0ELin1ELi1EEEEES9_EC1ERKSC_
000000000035d6ca W _ZN5Eigen13CwiseBinaryOpINS_8internal17scalar_product_opIddEEKNS_14CwiseNullaryOpINS1_18scalar_constant_opIdEEKNS_6MatrixIdLin1ELi1ELi0ELin1ELi1EEEEES9_EC1ERSB_RS9_RKS3_
000000000035c41e W _ZN5Eigen13CwiseBinaryOpINS_8internal17scalar_product_opIddEEKNS_14CwiseNullaryOpINS1_18scalar_constant_opIdEEKNS_6MatrixIdLin1ELi1ELi0ELin1ELi1EEEEES9_EC2ERKSC_
000000000035d6ca W _ZN5Eigen13CwiseBinaryOpINS_8internal17scalar_product_opIddEEKNS_14CwiseNullaryOpINS1_18scalar_constant_opIdEEKNS_6MatrixIdLin1ELi1ELi0ELin1ELi1EEEEES9_EC2ERSB_RS9_RKS3_
00000000003c32cc W _ZN5Eigen13CwiseBinaryOpINS_8internal17scalar_product_opIddEEKNS_14CwiseNullaryOpINS1_18scalar_constant_opIdEEKNS_6MatrixIdLin1ELin1ELi1ELin1ELin1EEEEEKNS_12SparseMatrixIdLi1EiEEEC1ERKSF_
000000000038d238 W _ZN5Eigen13CwiseBinaryOpINS_8internal17scalar_product_opIddEEKNS_14CwiseNullaryOpINS1_18scalar_constant_opIdEEKNS_6MatrixIdLin1ELin1ELi1ELin1ELin1EEEEEKNS_12SparseMatrixIdLi1EiEEEC1ERSB_RSE_RKS3_
00000000003c32cc W _ZN5Eigen13CwiseBinaryOpINS_8internal17scalar_product_opIddEEKNS_14CwiseNullaryOpINS1_18scalar_constant_opIdEEKNS_6MatrixIdLin1ELin1ELi1ELin1ELin1EEEEEKNS_12SparseMatrixIdLi1EiEEEC2ERKSF_
000000000038d238 W _ZN5Eigen13CwiseBinaryOpINS_8internal17scalar_product_opIddEEKNS_14CwiseNullaryOpINS1_18scalar_constant_opIdEEKNS_6MatrixIdLin1ELin1ELi1ELin1ELin1EEEEEKNS_12SparseMatrixIdLi1EiEEEC2ERSB_RSE_RKS3_
00000000003f273c W _ZN5Eigen13CwiseBinaryOpINS_8internal17scalar_product_opIddEEKNS_6MatrixIdLi3ELi1ELi0ELi3ELi1EEES6_EC1ERS6_S8_RKS3_
00000000003f273c W _ZN5Eigen13CwiseBinaryOpINS_8internal17scalar_product_opIddEEKNS_6MatrixIdLi3ELi1ELi0ELi3ELi1EEES6_EC2ERS6_S8_RKS3_
00000000003ba4da W _ZN5Eigen13CwiseBinaryOpINS_8internal17scalar_product_opIddEEKNS_9TransposeIKNS4_INS_6MatrixIdLi3ELi1ELi0ELi3ELi1EEEEEEEKNS0_INS1_13scalar_sum_opIddEEKS6_KNS0_IS3_KNS_14CwiseNullaryOpINS1_18scalar_constant_opIdEESD_EESD_EEEEEC1ERSA_RSM_RKS3_
00000000003ba4da W _ZN5Eigen13CwiseBinaryOpINS_8internal17scalar_product_opIddEEKNS_9TransposeIKNS4_INS_6MatrixIdLi3ELi1ELi0ELi3ELi1EEEEEEEKNS0_INS1_13scalar_sum_opIddEEKS6_KNS0_IS3_KNS_14CwiseNullaryOpINS1_18scalar_constant_opIdEESD_EESD_EEEEEC2ERSA_RSM_RKS3_
00000000003ba1ae W _ZN5Eigen13CwiseBinaryOpINS_8internal17scalar_product_opIddEEKNS_9TransposeIKNS4_INS_6MatrixIdLi3ELi1ELi0ELi3ELi1EEEEEEEKNS0_INS1_20scalar_difference_opIddEEKS6_KNS0_IS3_KNS_14CwiseNullaryOpINS1_18scalar_constant_opIdEESD_EESD_EEEEEC1ERSA_RSM_RKS3_
00000000003ba1ae W _ZN5Eigen13CwiseBinaryOpINS_8internal17scalar_product_opIddEEKNS_9TransposeIKNS4_INS_6MatrixIdLi3ELi1ELi0ELi3ELi1EEEEEEEKNS0_INS1_20scalar_difference_opIddEEKS6_KNS0_IS3_KNS_14CwiseNullaryOpINS1_18scalar_constant_opIdEESD_EESD_EEEEEC2ERSA_RSM_RKS3_
00000000003b9e46 W _ZN5Eigen13CwiseBinaryOpINS_8internal17scalar_product_opIddEEKNS_9TransposeIKNS4_INS_6MatrixIdLi3ELi1ELi0ELi3ELi1EEEEEEEKS6_EC1ERSA_RSB_RKS3_
00000000003b9e46 W _ZN5Eigen13CwiseBinaryOpINS_8internal17scalar_product_opIddEEKNS_9TransposeIKNS4_INS_6MatrixIdLi3ELi1ELi0ELi3ELi1EEEEEEEKS6_EC2ERSA_RSB_RKS3_
0000000000353734 W _ZN5Eigen13CwiseBinaryOpINS_8internal17scalar_product_opIddEEKNS_9TransposeIKNS_5BlockIKNS_6MatrixIdLi3ELi3ELi0ELi3ELi3EEELi1ELi3ELb0EEEEEKNS5_IKNS6_IdLi3ELi1ELi0ELi3ELi1EEELi3ELi1ELb1EEEEC1ERSC_RSG_RKS3_
0000000000353734 W _ZN5Eigen13CwiseBinaryOpINS_8internal17scalar_product_opIddEEKNS_9TransposeIKNS_5BlockIKNS_6MatrixIdLi3ELi3ELi0ELi3ELi3EEELi1ELi3ELb0EEEEEKNS5_IKNS6_IdLi3ELi1ELi0ELi3ELi1EEELi3ELi1ELb1EEEEC2ERSC_RSG_RKS3_
00000000003a6294 W _ZN5Eigen13CwiseBinaryOpINS_8internal17scalar_product_opIddEEKNS_9TransposeIKNS_5BlockIKNS_6MatrixIdLin1ELi3ELi0ELin1ELi3EEELi1ELi3ELb0EEEEEKNS5_IKNS6_IdLi3ELi1ELi0ELi3ELi1EEELi3ELi1ELb1EEEEC1ERSC_RSG_RKS3_
00000000003a6294 W _ZN5Eigen13CwiseBinaryOpINS_8internal17scalar_product_opIddEEKNS_9TransposeIKNS_5BlockIKNS_6MatrixIdLin1ELi3ELi0ELin1ELi3EEELi1ELi3ELb0EEEEEKNS5_IKNS6_IdLi3ELi1ELi0ELi3ELi1EEELi3ELi1ELb1EEEEC2ERSC_RSG_RKS3_
00000000003db91c W _ZN5Eigen13CwiseBinaryOpINS_8internal17scalar_product_opIddEEKNS_9TransposeIKNS_7ProductINS0_IS3_KNS_14CwiseNullaryOpINS1_18scalar_constant_opIdEEKNS_6MatrixIdLi1ELin1ELi1ELi1ELin1EEEEEKNS4_IKNS0_INS1_20scalar_difference_opIddEEKNS9_IdLin1ELi1ELi0ELin1ELi1EEESH_EEEEEENS_15DiagonalWrapperISH_EELi1EEEEESJ_EC1ERSS_RSJ_RKS3_
00000000003db91c W _ZN5Eigen13CwiseBinaryOpINS_8internal17scalar_product_opIddEEKNS_9TransposeIKNS_7ProductINS0_IS3_KNS_14CwiseNullaryOpINS1_18scalar_constant_opIdEEKNS_6MatrixIdLi1ELin1ELi1ELi1ELin1EEEEEKNS4_IKNS0_INS1_20scalar_difference_opIddEEKNS9_IdLin1ELi1ELi0ELin1ELi1EEESH_EEEEEENS_15DiagonalWrapperISH_EELi1EEEEESJ_EC2ERSS_RSJ_RKS3_
00000000003ffe0c W _ZN5Eigen13CwiseBinaryOpINS_8internal18scalar_quotient_opIddEEKNS0_INS1_13scalar_sum_opIddEEKNS0_INS1_17scalar_product_opIddEEKNS_14CwiseNullaryOpINS1_18scalar_constant_opIdEEKNS_6MatrixIdLin1ELi1ELi0ELin1ELi1EEEEEKNS0_INS1_20scalar_difference_opIddEESD_SD_EEEEKNS0_IS7_SF_KNS0_IS5_SD_SD_EEEEEESF_EC1ERSR_RSF_RKS3_
00000000003ffe0c W _ZN5Eigen13CwiseBinaryOpINS_8internal18scalar_quotient_opIddEEKNS0_INS1_13scalar_sum_opIddEEKNS0_INS1_17scalar_product_opIddEEKNS_14CwiseNullaryOpINS1_18scalar_constant_opIdEEKNS_6MatrixIdLin1ELi1ELi0ELin1ELi1EEEEEKNS0_INS1_20scalar_difference_opIddEESD_SD_EEEEKNS0_IS7_SF_KNS0_IS5_SD_SD_EEEEEESF_EC2ERSR_RSF_RKS3_
00000000003fe67c W _ZN5Eigen13CwiseBinaryOpINS_8internal18scalar_quotient_opIddEEKNS0_INS1_17scalar_product_opIddEEKNS_14CwiseNullaryOpINS1_18scalar_constant_opIdEEKNS_6MatrixIdLin1ELi1ELi0ELin1ELi1EEEEEKNS0_INS1_13scalar_sum_opIddEEKNS0_IS5_SD_SB_EESB_EEEESD_EC1ERKSM_
00000000004000c8 W _ZN5Eigen13CwiseBinaryOpINS_8internal18scalar_quotient_opIddEEKNS0_INS1_17scalar_product_opIddEEKNS_14CwiseNullaryOpINS1_18scalar_constant_opIdEEKNS_6MatrixIdLin1ELi1ELi0ELin1ELi1EEEEEKNS0_INS1_13scalar_sum_opIddEEKNS0_IS5_SD_SB_EESB_EEEESD_EC1ERSL_RSD_RKS3_
00000000003fe67c W _ZN5Eigen13CwiseBinaryOpINS_8internal18scalar_quotient_opIddEEKNS0_INS1_17scalar_product_opIddEEKNS_14CwiseNullaryOpINS1_18scalar_constant_opIdEEKNS_6MatrixIdLin1ELi1ELi0ELin1ELi1EEEEEKNS0_INS1_13scalar_sum_opIddEEKNS0_IS5_SD_SB_EESB_EEEESD_EC2ERKSM_
00000000004000c8 W _ZN5Eigen13CwiseBinaryOpINS_8internal18scalar_quotient_opIddEEKNS0_INS1_17scalar_product_opIddEEKNS_14CwiseNullaryOpINS1_18scalar_constant_opIdEEKNS_6MatrixIdLin1ELi1ELi0ELin1ELi1EEEEEKNS0_INS1_13scalar_sum_opIddEEKNS0_IS5_SD_SB_EESB_EEEESD_EC2ERSL_RSD_RKS3_
00000000003fecb8 W _ZN5Eigen13CwiseBinaryOpINS_8internal18scalar_quotient_opIddEEKNS0_INS1_17scalar_product_opIddEEKNS_14CwiseNullaryOpINS1_18scalar_constant_opIdEEKNS_6MatrixIdLin1ELi1ELi0ELin1ELi1EEEEEKNS0_INS1_13scalar_sum_opIddEEKNS0_ISF_KNS0_INS1_20scalar_difference_opIddEEKNS0_IS5_SD_SB_EESJ_EESJ_EESJ_EEEESD_EC1ERKSS_
0000000000400780 W _ZN5Eigen13CwiseBinaryOpINS_8internal18scalar_quotient_opIddEEKNS0_INS1_17scalar_product_opIddEEKNS_14CwiseNullaryOpINS1_18scalar_constant_opIdEEKNS_6MatrixIdLin1ELi1ELi0ELin1ELi1EEEEEKNS0_INS1_13scalar_sum_opIddEEKNS0_ISF_KNS0_INS1_20scalar_difference_opIddEEKNS0_IS5_SD_SB_EESJ_EESJ_EESJ_EEEESD_EC1ERSR_RSD_RKS3_
00000000003fecb8 W _ZN5Eigen13CwiseBinaryOpINS_8internal18scalar_quotient_opIddEEKNS0_INS1_17scalar_product_opIddEEKNS_14CwiseNullaryOpINS1_18scalar_constant_opIdEEKNS_6MatrixIdLin1ELi1ELi0ELin1ELi1EEEEEKNS0_INS1_13scalar_sum_opIddEEKNS0_ISF_KNS0_INS1_20scalar_difference_opIddEEKNS0_IS5_SD_SB_EESJ_EESJ_EESJ_EEEESD_EC2ERKSS_
0000000000400780 W _ZN5Eigen13CwiseBinaryOpINS_8internal18scalar_quotient_opIddEEKNS0_INS1_17scalar_product_opIddEEKNS_14CwiseNullaryOpINS1_18scalar_constant_opIdEEKNS_6MatrixIdLin1ELi1ELi0ELin1ELi1EEEEEKNS0_INS1_13scalar_sum_opIddEEKNS0_ISF_KNS0_INS1_20scalar_difference_opIddEEKNS0_IS5_SD_SB_EESJ_EESJ_EESJ_EEEESD_EC2ERSR_RSD_RKS3_
00000000003fe618 W _ZN5Eigen13CwiseBinaryOpINS_8internal18scalar_quotient_opIddEEKNS0_INS1_17scalar_product_opIddEEKNS_14CwiseNullaryOpINS1_18scalar_constant_opIdEEKNS_6MatrixIdLin1ELi1ELi0ELin1ELi1EEEEEKNS0_INS1_13scalar_sum_opIddEESB_SB_EEEESD_EC1ERKSK_
00000000003fff92 W _ZN5Eigen13CwiseBinaryOpINS_8internal18scalar_quotient_opIddEEKNS0_INS1_17scalar_product_opIddEEKNS_14CwiseNullaryOpINS1_18scalar_constant_opIdEEKNS_6MatrixIdLin1ELi1ELi0ELin1ELi1EEEEEKNS0_INS1_13scalar_sum_opIddEESB_SB_EEEESD_EC1ERSJ_RSD_RKS3_
00000000003fe618 W _ZN5Eigen13CwiseBinaryOpINS_8internal18scalar_quotient_opIddEEKNS0_INS1_17scalar_product_opIddEEKNS_14CwiseNullaryOpINS1_18scalar_constant_opIdEEKNS_6MatrixIdLin1ELi1ELi0ELin1ELi1EEEEEKNS0_INS1_13scalar_sum_opIddEESB_SB_EEEESD_EC2ERKSK_
00000000003fff92 W _ZN5Eigen13CwiseBinaryOpINS_8internal18scalar_quotient_opIddEEKNS0_INS1_17scalar_product_opIddEEKNS_14CwiseNullaryOpINS1_18scalar_constant_opIdEEKNS_6MatrixIdLin1ELi1ELi0ELin1ELi1EEEEEKNS0_INS1_13scalar_sum_opIddEESB_SB_EEEESD_EC2ERSJ_RSD_RKS3_
00000000003ff948 W _ZN5Eigen13CwiseBinaryOpINS_8internal18scalar_quotient_opIddEEKNS_12CwiseUnaryOpINS1_18scalar_opposite_opIdEEKNS0_INS1_13scalar_sum_opIddEEKNS0_INS1_17scalar_product_opIddEEKNS_14CwiseNullaryOpINS1_18scalar_constant_opIdEEKNS_6MatrixIdLin1ELi1ELi0ELin1ELi1EEEEEKNS0_INS1_20scalar_difference_opIddEESG_SG_EEEEKNS0_ISA_SI_KNS0_IS8_KNS0_ISA_SI_SG_EESG_EEEEEEEESI_EC1ERSY_RSI_RKS3_
00000000003ff948 W _ZN5Eigen13CwiseBinaryOpINS_8internal18scalar_quotient_opIddEEKNS_12CwiseUnaryOpINS1_18scalar_opposite_opIdEEKNS0_INS1_13scalar_sum_opIddEEKNS0_INS1_17scalar_product_opIddEEKNS_14CwiseNullaryOpINS1_18scalar_constant_opIdEEKNS_6MatrixIdLin1ELi1ELi0ELin1ELi1EEEEEKNS0_INS1_20scalar_difference_opIddEESG_SG_EEEEKNS0_ISA_SI_KNS0_IS8_KNS0_ISA_SI_SG_EESG_EEEEEEEESI_EC2ERSY_RSI_RKS3_
00000000003b2bbc W _ZN5Eigen13CwiseBinaryOpINS_8internal18scalar_quotient_opIddEEKNS_6MatrixIdLi2ELi1ELi0ELi2ELi1EEEKNS_14CwiseNullaryOpINS1_18scalar_constant_opIdEES6_EEEC1ERS6_RSB_RKS3_
00000000003b2bbc W _ZN5Eigen13CwiseBinaryOpINS_8internal18scalar_quotient_opIddEEKNS_6MatrixIdLi2ELi1ELi0ELi2ELi1EEEKNS_14CwiseNullaryOpINS1_18scalar_constant_opIdEES6_EEEC2ERS6_RSB_RKS3_
00000000003f31ca W _ZN5Eigen13CwiseBinaryOpINS_8internal18scalar_quotient_opIddEEKNS_6MatrixIdLi3ELi1ELi0ELi3ELi1EEEKNS_14CwiseNullaryOpINS1_18scalar_constant_opIdEES6_EEEC1ERS6_RSB_RKS3_
00000000003f31ca W _ZN5Eigen13CwiseBinaryOpINS_8internal18scalar_quotient_opIddEEKNS_6MatrixIdLi3ELi1ELi0ELi3ELi1EEEKNS_14CwiseNullaryOpINS1_18scalar_constant_opIdEES6_EEEC2ERS6_RSB_RKS3_
000000000035d536 W _ZN5Eigen13CwiseBinaryOpINS_8internal18scalar_quotient_opIddEEKNS_6MatrixIdLin1ELi1ELi0ELin1ELi1EEEKNS_14CwiseNullaryOpINS1_18scalar_constant_opIdEES6_EEEC1ERS6_RSB_RKS3_
000000000035d536 W _ZN5Eigen13CwiseBinaryOpINS_8internal18scalar_quotient_opIddEEKNS_6MatrixIdLin1ELi1ELi0ELin1ELi1EEEKNS_14CwiseNullaryOpINS1_18scalar_constant_opIdEES6_EEEC2ERS6_RSB_RKS3_
000000000041aa70 W _ZN5Eigen13CwiseBinaryOpINS_8internal20scalar_difference_opIddEEKNS0_INS1_13scalar_sum_opIddEEKNS0_INS1_17scalar_product_opIddEEKNS_14CwiseNullaryOpINS1_18scalar_constant_opIdEEKNS_6MatrixIdLi1ELin1ELi1ELi1ELin1EEEEEKNS_12SparseVectorIdLi1EiEEEESK_EESK_EC1ERKSN_
000000000041e7a8 W _ZN5Eigen13CwiseBinaryOpINS_8internal20scalar_difference_opIddEEKNS0_INS1_13scalar_sum_opIddEEKNS0_INS1_17scalar_product_opIddEEKNS_14CwiseNullaryOpINS1_18scalar_constant_opIdEEKNS_6MatrixIdLi1ELin1ELi1ELi1ELin1EEEEEKNS_12SparseVectorIdLi1EiEEEESK_EESK_EC1ERSM_RSK_RKS3_
000000000041aa70 W _ZN5Eigen13CwiseBinaryOpINS_8internal20scalar_difference_opIddEEKNS0_INS1_13scalar_sum_opIddEEKNS0_INS1_17scalar_product_opIddEEKNS_14CwiseNullaryOpINS1_18scalar_constant_opIdEEKNS_6MatrixIdLi1ELin1ELi1ELi1ELin1EEEEEKNS_12SparseVectorIdLi1EiEEEESK_EESK_EC2ERKSN_
000000000041e7a8 W _ZN5Eigen13CwiseBinaryOpINS_8internal20scalar_difference_opIddEEKNS0_INS1_13scalar_sum_opIddEEKNS0_INS1_17scalar_product_opIddEEKNS_14CwiseNullaryOpINS1_18scalar_constant_opIdEEKNS_6MatrixIdLi1ELin1ELi1ELi1ELin1EEEEEKNS_12SparseVectorIdLi1EiEEEESK_EESK_EC2ERSM_RSK_RKS3_
000000000038bfb6 W _ZN5Eigen13CwiseBinaryOpINS_8internal20scalar_difference_opIddEEKNS0_INS1_13scalar_sum_opIddEEKNS_7ProductINS_12SparseMatrixIdLi1EiEENS_6MatrixIdLi3ELi1ELi0ELi3ELi1EEELi0EEEKNS6_IS8_SB_Li0EEEEEKSA_EC1ERSG_RSH_RKS3_
000000000038bfb6 W _ZN5Eigen13CwiseBinaryOpINS_8internal20scalar_difference_opIddEEKNS0_INS1_13scalar_sum_opIddEEKNS_7ProductINS_12SparseMatrixIdLi1EiEENS_6MatrixIdLi3ELi1ELi0ELi3ELi1EEELi0EEEKNS6_IS8_SB_Li0EEEEEKSA_EC2ERSG_RSH_RKS3_
000000000041a54c W _ZN5Eigen13CwiseBinaryOpINS_8internal20scalar_difference_opIddEEKNS0_INS1_17scalar_product_opIddEEKNS_14CwiseNullaryOpINS1_18scalar_constant_opIdEEKNS_6MatrixIdLi1ELin1ELi1ELi1ELin1EEEEEKNS_12SparseVectorIdLi1EiEEEESI_EC1ERKSJ_
000000000041d238 W _ZN5Eigen13CwiseBinaryOpINS_8internal20scalar_difference_opIddEEKNS0_INS1_17scalar_product_opIddEEKNS_14CwiseNullaryOpINS1_18scalar_constant_opIdEEKNS_6MatrixIdLi1ELin1ELi1ELi1ELin1EEEEEKNS_12SparseVectorIdLi1EiEEEESI_EC1ERSI_SK_RKS3_
000000000041a54c W _ZN5Eigen13CwiseBinaryOpINS_8internal20scalar_difference_opIddEEKNS0_INS1_17scalar_product_opIddEEKNS_14CwiseNullaryOpINS1_18scalar_constant_opIdEEKNS_6MatrixIdLi1ELin1ELi1ELi1ELin1EEEEEKNS_12SparseVectorIdLi1EiEEEESI_EC2ERKSJ_
000000000041d238 W _ZN5Eigen13CwiseBinaryOpINS_8internal20scalar_difference_opIddEEKNS0_INS1_17scalar_product_opIddEEKNS_14CwiseNullaryOpINS1_18scalar_constant_opIdEEKNS_6MatrixIdLi1ELin1ELi1ELi1ELin1EEEEEKNS_12SparseVectorIdLi1EiEEEESI_EC2ERSI_SK_RKS3_
00000000003f1bf2 W _ZN5Eigen13CwiseBinaryOpINS_8internal20scalar_difference_opIddEEKNS0_INS1_17scalar_product_opIddEEKNS_14CwiseNullaryOpINS1_18scalar_constant_opIdEEKNS_6MatrixIdLi3ELi1ELi0ELi3ELi1EEEEEKNS_5BlockIKNS6_INS1_18scalar_identity_opIdEENS9_IdLi3ELi3ELi0ELi3ELi3EEEEELi3ELi1ELb0EEEEEKNS0_IS5_SD_SB_EEEC1ERKSQ_
00000000003f2c4c W _ZN5Eigen13CwiseBinaryOpINS_8internal20scalar_difference_opIddEEKNS0_INS1_17scalar_product_opIddEEKNS_14CwiseNullaryOpINS1_18scalar_constant_opIdEEKNS_6MatrixIdLi3ELi1ELi0ELi3ELi1EEEEEKNS_5BlockIKNS6_INS1_18scalar_identity_opIdEENS9_IdLi3ELi3ELi0ELi3ELi3EEEEELi3ELi1ELb0EEEEEKNS0_IS5_SD_SB_EEEC1ERSN_RSP_RKS3_
00000000003f1bf2 W _ZN5Eigen13CwiseBinaryOpINS_8internal20scalar_difference_opIddEEKNS0_INS1_17scalar_product_opIddEEKNS_14CwiseNullaryOpINS1_18scalar_constant_opIdEEKNS_6MatrixIdLi3ELi1ELi0ELi3ELi1EEEEEKNS_5BlockIKNS6_INS1_18scalar_identity_opIdEENS9_IdLi3ELi3ELi0ELi3ELi3EEEEELi3ELi1ELb0EEEEEKNS0_IS5_SD_SB_EEEC2ERKSQ_
00000000003f2c4c W _ZN5Eigen13CwiseBinaryOpINS_8internal20scalar_difference_opIddEEKNS0_INS1_17scalar_product_opIddEEKNS_14CwiseNullaryOpINS1_18scalar_constant_opIdEEKNS_6MatrixIdLi3ELi1ELi0ELi3ELi1EEEEEKNS_5BlockIKNS6_INS1_18scalar_identity_opIdEENS9_IdLi3ELi3ELi0ELi3ELi3EEEEELi3ELi1ELb0EEEEEKNS0_IS5_SD_SB_EEEC2ERSN_RSP_RKS3_
0000000000387ed0 W _ZN5Eigen13CwiseBinaryOpINS_8internal20scalar_difference_opIddEEKNS0_INS1_17scalar_product_opIddEEKNS_14CwiseNullaryOpINS1_18scalar_constant_opIdEEKNS_6MatrixIdLi3ELi1ELi0ELi3ELi1EEEEESB_EESB_EC1ERKSG_
000000000038c2c8 W _ZN5Eigen13CwiseBinaryOpINS_8internal20scalar_difference_opIddEEKNS0_INS1_17scalar_product_opIddEEKNS_14CwiseNullaryOpINS1_18scalar_constant_opIdEEKNS_6MatrixIdLi3ELi1ELi0ELi3ELi1EEEEESB_EESB_EC1ERSF_RSB_RKS3_
0000000000387ed0 W _ZN5Eigen13CwiseBinaryOpINS_8internal20scalar_difference_opIddEEKNS0_INS1_17scalar_product_opIddEEKNS_14CwiseNullaryOpINS1_18scalar_constant_opIdEEKNS_6MatrixIdLi3ELi1ELi0ELi3ELi1EEEEESB_EESB_EC2ERKSG_
000000000038c2c8 W _ZN5Eigen13CwiseBinaryOpINS_8internal20scalar_difference_opIddEEKNS0_INS1_17scalar_product_opIddEEKNS_14CwiseNullaryOpINS1_18scalar_constant_opIdEEKNS_6MatrixIdLi3ELi1ELi0ELi3ELi1EEEEESB_EESB_EC2ERSF_RSB_RKS3_
00000000003fe7ee W _ZN5Eigen13CwiseBinaryOpINS_8internal20scalar_difference_opIddEEKNS0_INS1_17scalar_product_opIddEEKNS_14CwiseNullaryOpINS1_18scalar_constant_opIdEEKNS_6MatrixIdLin1ELi1ELi0ELin1ELi1EEEEESB_EESF_EC1ERKSG_
00000000004002dc W _ZN5Eigen13CwiseBinaryOpINS_8internal20scalar_difference_opIddEEKNS0_INS1_17scalar_product_opIddEEKNS_14CwiseNullaryOpINS1_18scalar_constant_opIdEEKNS_6MatrixIdLin1ELi1ELi0ELin1ELi1EEEEESB_EESF_EC1ERSF_SH_RKS3_
00000000003fe7ee W _ZN5Eigen13CwiseBinaryOpINS_8internal20scalar_difference_opIddEEKNS0_INS1_17scalar_product_opIddEEKNS_14CwiseNullaryOpINS1_18scalar_constant_opIdEEKNS_6MatrixIdLin1ELi1ELi0ELin1ELi1EEEEESB_EESF_EC2ERKSG_
00000000004002dc W _ZN5Eigen13CwiseBinaryOpINS_8internal20scalar_difference_opIddEEKNS0_INS1_17scalar_product_opIddEEKNS_14CwiseNullaryOpINS1_18scalar_constant_opIdEEKNS_6MatrixIdLin1ELi1ELi0ELin1ELi1EEEEESB_EESF_EC2ERSF_SH_RKS3_
00000000003fec4e W _ZN5Eigen13CwiseBinaryOpINS_8internal20scalar_difference_opIddEEKNS0_INS1_18scalar_quotient_opIddEEKNS0_INS1_17scalar_product_opIddEEKNS_14CwiseNullaryOpINS1_18scalar_constant_opIdEEKNS_6MatrixIdLin1ELi1ELi0ELin1ELi1EEEEEKNS0_INS1_13scalar_sum_opIddEESD_SD_EEEESF_EEKNS0_IS5_KNS0_IS7_SF_KNS0_ISH_KNS0_IS7_SF_SD_EESD_EEEESF_EEEC1ERKSW_
00000000004001e0 W _ZN5Eigen13CwiseBinaryOpINS_8internal20scalar_difference_opIddEEKNS0_INS1_18scalar_quotient_opIddEEKNS0_INS1_17scalar_product_opIddEEKNS_14CwiseNullaryOpINS1_18scalar_constant_opIdEEKNS_6MatrixIdLin1ELi1ELi0ELin1ELi1EEEEEKNS0_INS1_13scalar_sum_opIddEESD_SD_EEEESF_EEKNS0_IS5_KNS0_IS7_SF_KNS0_ISH_KNS0_IS7_SF_SD_EESD_EEEESF_EEEC1ERSN_RSV_RKS3_
00000000003fec4e W _ZN5Eigen13CwiseBinaryOpINS_8internal20scalar_difference_opIddEEKNS0_INS1_18scalar_quotient_opIddEEKNS0_INS1_17scalar_product_opIddEEKNS_14CwiseNullaryOpINS1_18scalar_constant_opIdEEKNS_6MatrixIdLin1ELi1ELi0ELin1ELi1EEEEEKNS0_INS1_13scalar_sum_opIddEESD_SD_EEEESF_EEKNS0_IS5_KNS0_IS7_SF_KNS0_ISH_KNS0_IS7_SF_SD_EESD_EEEESF_EEEC2ERKSW_
00000000004001e0 W _ZN5Eigen13CwiseBinaryOpINS_8internal20scalar_difference_opIddEEKNS0_INS1_18scalar_quotient_opIddEEKNS0_INS1_17scalar_product_opIddEEKNS_14CwiseNullaryOpINS1_18scalar_constant_opIdEEKNS_6MatrixIdLin1ELi1ELi0ELin1ELi1EEEEEKNS0_INS1_13scalar_sum_opIddEESD_SD_EEEESF_EEKNS0_IS5_KNS0_IS7_SF_KNS0_ISH_KNS0_IS7_SF_SD_EESD_EEEESF_EEEC2ERSN_RSV_RKS3_
000000000041ab6a W _ZN5Eigen13CwiseBinaryOpINS_8internal20scalar_difference_opIddEEKNS0_IS3_KNS0_INS1_13scalar_sum_opIddEEKNS0_INS1_17scalar_product_opIddEEKNS_14CwiseNullaryOpINS1_18scalar_constant_opIdEEKNS_6MatrixIdLi1ELin1ELi1ELi1ELin1EEEEEKNS_12SparseVectorIdLi1EiEEEESK_EESK_EESK_EC1ERKSP_
000000000041e896 W _ZN5Eigen13CwiseBinaryOpINS_8internal20scalar_difference_opIddEEKNS0_IS3_KNS0_INS1_13scalar_sum_opIddEEKNS0_INS1_17scalar_product_opIddEEKNS_14CwiseNullaryOpINS1_18scalar_constant_opIdEEKNS_6MatrixIdLi1ELin1ELi1ELi1ELin1EEEEEKNS_12SparseVectorIdLi1EiEEEESK_EESK_EESK_EC1ERSO_RSK_RKS3_
000000000041ab6a W _ZN5Eigen13CwiseBinaryOpINS_8internal20scalar_difference_opIddEEKNS0_IS3_KNS0_INS1_13scalar_sum_opIddEEKNS0_INS1_17scalar_product_opIddEEKNS_14CwiseNullaryOpINS1_18scalar_constant_opIdEEKNS_6MatrixIdLi1ELin1ELi1ELi1ELin1EEEEEKNS_12SparseVectorIdLi1EiEEEESK_EESK_EESK_EC2ERKSP_
000000000041e896 W _ZN5Eigen13CwiseBinaryOpINS_8internal20scalar_difference_opIddEEKNS0_IS3_KNS0_INS1_13scalar_sum_opIddEEKNS0_INS1_17scalar_product_opIddEEKNS_14CwiseNullaryOpINS1_18scalar_constant_opIdEEKNS_6MatrixIdLi1ELin1ELi1ELi1ELin1EEEEEKNS_12SparseVectorIdLi1EiEEEESK_EESK_EESK_EC2ERSO_RSK_RKS3_
000000000041a642 W _ZN5Eigen13CwiseBinaryOpINS_8internal20scalar_difference_opIddEEKNS0_IS3_KNS0_INS1_17scalar_product_opIddEEKNS_14CwiseNullaryOpINS1_18scalar_constant_opIdEEKNS_6MatrixIdLi1ELin1ELi1ELi1ELin1EEEEEKNS_12SparseVectorIdLi1EiEEEESI_EESI_EC1ERKSL_
000000000041e0f6 W _ZN5Eigen13CwiseBinaryOpINS_8internal20scalar_difference_opIddEEKNS0_IS3_KNS0_INS1_17scalar_product_opIddEEKNS_14CwiseNullaryOpINS1_18scalar_constant_opIdEEKNS_6MatrixIdLi1ELin1ELi1ELi1ELin1EEEEEKNS_12SparseVectorIdLi1EiEEEESI_EESI_EC1ERSK_RSI_RKS3_
000000000041a642 W _ZN5Eigen13CwiseBinaryOpINS_8internal20scalar_difference_opIddEEKNS0_IS3_KNS0_INS1_17scalar_product_opIddEEKNS_14CwiseNullaryOpINS1_18scalar_constant_opIdEEKNS_6MatrixIdLi1ELin1ELi1ELi1ELin1EEEEEKNS_12SparseVectorIdLi1EiEEEESI_EESI_EC2ERKSL_
000000000041e0f6 W _ZN5Eigen13CwiseBinaryOpINS_8internal20scalar_difference_opIddEEKNS0_IS3_KNS0_INS1_17scalar_product_opIddEEKNS_14CwiseNullaryOpINS1_18scalar_constant_opIdEEKNS_6MatrixIdLi1ELin1ELi1ELi1ELin1EEEEEKNS_12SparseVectorIdLi1EiEEEESI_EESI_EC2ERSK_RSI_RKS3_
000000000038c3c4 W _ZN5Eigen13CwiseBinaryOpINS_8internal20scalar_difference_opIddEEKNS0_IS3_KNS0_INS1_17scalar_product_opIddEEKNS_14CwiseNullaryOpINS1_18scalar_constant_opIdEEKNS_6MatrixIdLi3ELi1ELi0ELi3ELi1EEEEESB_EESB_EESB_EC1ERSH_RSB_RKS3_
000000000038c3c4 W _ZN5Eigen13CwiseBinaryOpINS_8internal20scalar_difference_opIddEEKNS0_IS3_KNS0_INS1_17scalar_product_opIddEEKNS_14CwiseNullaryOpINS1_18scalar_constant_opIdEEKNS_6MatrixIdLi3ELi1ELi0ELi3ELi1EEEEESB_EESB_EESB_EC2ERSH_RSB_RKS3_
00000000003fedaa W _ZN5Eigen13CwiseBinaryOpINS_8internal20scalar_difference_opIddEEKNS0_IS3_KNS0_INS1_18scalar_quotient_opIddEEKNS0_INS1_17scalar_product_opIddEEKNS_14CwiseNullaryOpINS1_18scalar_constant_opIdEEKNS_6MatrixIdLin1ELi1ELi0ELin1ELi1EEEEEKNS0_INS1_13scalar_sum_opIddEESD_SD_EEEESF_EEKNS0_IS5_KNS0_IS7_SF_KNS0_ISH_KNS0_IS7_SF_SD_EESD_EEEESF_EEEEKNS0_IS5_KNS0_IS7_SF_KNS0_ISH_KNS0_ISH_KNS0_IS3_SP_SP_EESP_EESP_EEEESF_EEEC1ERKS18_
000000000040089c W _ZN5Eigen13CwiseBinaryOpINS_8internal20scalar_difference_opIddEEKNS0_IS3_KNS0_INS1_18scalar_quotient_opIddEEKNS0_INS1_17scalar_product_opIddEEKNS_14CwiseNullaryOpINS1_18scalar_constant_opIdEEKNS_6MatrixIdLin1ELi1ELi0ELin1ELi1EEEEEKNS0_INS1_13scalar_sum_opIddEESD_SD_EEEESF_EEKNS0_IS5_KNS0_IS7_SF_KNS0_ISH_KNS0_IS7_SF_SD_EESD_EEEESF_EEEEKNS0_IS5_KNS0_IS7_SF_KNS0_ISH_KNS0_ISH_KNS0_IS3_SP_SP_EESP_EESP_EEEESF_EEEC1ERSX_RS17_RKS3_
00000000003fedaa W _ZN5Eigen13CwiseBinaryOpINS_8internal20scalar_difference_opIddEEKNS0_IS3_KNS0_INS1_18scalar_quotient_opIddEEKNS0_INS1_17scalar_product_opIddEEKNS_14CwiseNullaryOpINS1_18scalar_constant_opIdEEKNS_6MatrixIdLin1ELi1ELi0ELin1ELi1EEEEEKNS0_INS1_13scalar_sum_opIddEESD_SD_EEEESF_EEKNS0_IS5_KNS0_IS7_SF_KNS0_ISH_KNS0_IS7_SF_SD_EESD_EEEESF_EEEEKNS0_IS5_KNS0_IS7_SF_KNS0_ISH_KNS0_ISH_KNS0_IS3_SP_SP_EESP_EESP_EEEESF_EEEC2ERKS18_
000000000040089c W _ZN5Eigen13CwiseBinaryOpINS_8internal20scalar_difference_opIddEEKNS0_IS3_KNS0_INS1_18scalar_quotient_opIddEEKNS0_INS1_17scalar_product_opIddEEKNS_14CwiseNullaryOpINS1_18scalar_constant_opIdEEKNS_6MatrixIdLin1ELi1ELi0ELin1ELi1EEEEEKNS0_INS1_13scalar_sum_opIddEESD_SD_EEEESF_EEKNS0_IS5_KNS0_IS7_SF_KNS0_ISH_KNS0_IS7_SF_SD_EESD_EEEESF_EEEEKNS0_IS5_KNS0_IS7_SF_KNS0_ISH_KNS0_ISH_KNS0_IS3_SP_SP_EESP_EESP_EEEESF_EEEC2ERSX_RS17_RKS3_
000000000041ae62 W _ZN5Eigen13CwiseBinaryOpINS_8internal20scalar_difference_opIddEEKNS0_IS3_KNS0_IS3_KNS0_INS1_17scalar_product_opIddEEKNS_14CwiseNullaryOpINS1_18scalar_constant_opIdEEKNS_6MatrixIdLi1ELin1ELi1ELi1ELin1EEEEEKNS_12SparseVectorIdLi1EiEEEESI_EESI_EESI_EC1ERKSN_
000000000041ef0a W _ZN5Eigen13CwiseBinaryOpINS_8internal20scalar_difference_opIddEEKNS0_IS3_KNS0_IS3_KNS0_INS1_17scalar_product_opIddEEKNS_14CwiseNullaryOpINS1_18scalar_constant_opIdEEKNS_6MatrixIdLi1ELin1ELi1ELi1ELin1EEEEEKNS_12SparseVectorIdLi1EiEEEESI_EESI_EESI_EC1ERSM_RSI_RKS3_
000000000041ae62 W _ZN5Eigen13CwiseBinaryOpINS_8internal20scalar_difference_opIddEEKNS0_IS3_KNS0_IS3_KNS0_INS1_17scalar_product_opIddEEKNS_14CwiseNullaryOpINS1_18scalar_constant_opIdEEKNS_6MatrixIdLi1ELin1ELi1ELi1ELin1EEEEEKNS_12SparseVectorIdLi1EiEEEESI_EESI_EESI_EC2ERKSN_
000000000041ef0a W _ZN5Eigen13CwiseBinaryOpINS_8internal20scalar_difference_opIddEEKNS0_IS3_KNS0_IS3_KNS0_INS1_17scalar_product_opIddEEKNS_14CwiseNullaryOpINS1_18scalar_constant_opIdEEKNS_6MatrixIdLi1ELin1ELi1ELi1ELin1EEEEEKNS_12SparseVectorIdLi1EiEEEESI_EESI_EESI_EC2ERSM_RSI_RKS3_
000000000041bb7c W _ZN5Eigen13CwiseBinaryOpINS_8internal20scalar_difference_opIddEEKNS0_IS3_KNS0_IS3_KNS0_IS3_KNS0_INS1_17scalar_product_opIddEEKNS_14CwiseNullaryOpINS1_18scalar_constant_opIdEEKNS_6MatrixIdLi1ELin1ELi1ELi1ELin1EEEEEKNS_12SparseVectorIdLi1EiEEEESI_EESI_EESI_EEKNS0_IS5_SI_SD_EEEC1ERKSR_
000000000041f39e W _ZN5Eigen13CwiseBinaryOpINS_8internal20scalar_difference_opIddEEKNS0_IS3_KNS0_IS3_KNS0_IS3_KNS0_INS1_17scalar_product_opIddEEKNS_14CwiseNullaryOpINS1_18scalar_constant_opIdEEKNS_6MatrixIdLi1ELin1ELi1ELi1ELin1EEEEEKNS_12SparseVectorIdLi1EiEEEESI_EESI_EESI_EEKNS0_IS5_SI_SD_EEEC1ERSO_RSQ_RKS3_
000000000041bb7c W _ZN5Eigen13CwiseBinaryOpINS_8internal20scalar_difference_opIddEEKNS0_IS3_KNS0_IS3_KNS0_IS3_KNS0_INS1_17scalar_product_opIddEEKNS_14CwiseNullaryOpINS1_18scalar_constant_opIdEEKNS_6MatrixIdLi1ELin1ELi1ELi1ELin1EEEEEKNS_12SparseVectorIdLi1EiEEEESI_EESI_EESI_EEKNS0_IS5_SI_SD_EEEC2ERKSR_
000000000041f39e W _ZN5Eigen13CwiseBinaryOpINS_8internal20scalar_difference_opIddEEKNS0_IS3_KNS0_IS3_KNS0_IS3_KNS0_INS1_17scalar_product_opIddEEKNS_14CwiseNullaryOpINS1_18scalar_constant_opIdEEKNS_6MatrixIdLi1ELin1ELi1ELi1ELin1EEEEEKNS_12SparseVectorIdLi1EiEEEESI_EESI_EESI_EEKNS0_IS5_SI_SD_EEEC2ERSO_RSQ_RKS3_
000000000041b036 W _ZN5Eigen13CwiseBinaryOpINS_8internal20scalar_difference_opIddEEKNS0_IS3_KNS0_IS3_KNS0_IS3_KNS0_INS1_17scalar_product_opIddEEKNS_14CwiseNullaryOpINS1_18scalar_constant_opIdEEKNS_6MatrixIdLi1ELin1ELi1ELi1ELin1EEEEEKNS_12SparseVectorIdLi1EiEEEESI_EESI_EESI_EESI_EC1ERKSP_
000000000041effc W _ZN5Eigen13CwiseBinaryOpINS_8internal20scalar_difference_opIddEEKNS0_IS3_KNS0_IS3_KNS0_IS3_KNS0_INS1_17scalar_product_opIddEEKNS_14CwiseNullaryOpINS1_18scalar_constant_opIdEEKNS_6MatrixIdLi1ELin1ELi1ELi1ELin1EEEEEKNS_12SparseVectorIdLi1EiEEEESI_EESI_EESI_EESI_EC1ERSO_RSI_RKS3_
000000000041b036 W _ZN5Eigen13CwiseBinaryOpINS_8internal20scalar_difference_opIddEEKNS0_IS3_KNS0_IS3_KNS0_IS3_KNS0_INS1_17scalar_product_opIddEEKNS_14CwiseNullaryOpINS1_18scalar_constant_opIdEEKNS_6MatrixIdLi1ELin1ELi1ELi1ELin1EEEEEKNS_12SparseVectorIdLi1EiEEEESI_EESI_EESI_EESI_EC2ERKSP_
000000000041effc W _ZN5Eigen13CwiseBinaryOpINS_8internal20scalar_difference_opIddEEKNS0_IS3_KNS0_IS3_KNS0_IS3_KNS0_INS1_17scalar_product_opIddEEKNS_14CwiseNullaryOpINS1_18scalar_constant_opIdEEKNS_6MatrixIdLi1ELin1ELi1ELi1ELin1EEEEEKNS_12SparseVectorIdLi1EiEEEESI_EESI_EESI_EESI_EC2ERSO_RSI_RKS3_
000000000041f490 W _ZN5Eigen13CwiseBinaryOpINS_8internal20scalar_difference_opIddEEKNS0_IS3_KNS0_IS3_KNS0_IS3_KNS0_IS3_KNS0_INS1_17scalar_product_opIddEEKNS_14CwiseNullaryOpINS1_18scalar_constant_opIdEEKNS_6MatrixIdLi1ELin1ELi1ELi1ELin1EEEEEKNS_12SparseVectorIdLi1EiEEEESI_EESI_EESI_EEKNS0_IS5_SI_SD_EEEESI_EC1ERSS_RSI_RKS3_
000000000041f490 W _ZN5Eigen13CwiseBinaryOpINS_8internal20scalar_difference_opIddEEKNS0_IS3_KNS0_IS3_KNS0_IS3_KNS0_IS3_KNS0_INS1_17scalar_product_opIddEEKNS_14CwiseNullaryOpINS1_18scalar_constant_opIdEEKNS_6MatrixIdLi1ELin1ELi1ELi1ELin1EEEEEKNS_12SparseVectorIdLi1EiEEEESI_EESI_EESI_EEKNS0_IS5_SI_SD_EEEESI_EC2ERSS_RSI_RKS3_
00000000003d1e7e W _ZN5Eigen13CwiseBinaryOpINS_8internal20scalar_difference_opIddEEKNS_12SparseMatrixIdLi1EiEES6_EC1ERS6_S8_RKS3_
00000000003d1e7e W _ZN5Eigen13CwiseBinaryOpINS_8internal20scalar_difference_opIddEEKNS_12SparseMatrixIdLi1EiEES6_EC2ERS6_S8_RKS3_
00000000003b2750 W _ZN5Eigen13CwiseBinaryOpINS_8internal20scalar_difference_opIddEEKNS_6MatrixIdLi2ELi1ELi0ELi2ELi1EEES6_EC1ERS6_S8_RKS3_
00000000003b2750 W _ZN5Eigen13CwiseBinaryOpINS_8internal20scalar_difference_opIddEEKNS_6MatrixIdLi2ELi1ELi0ELi2ELi1EEES6_EC2ERS6_S8_RKS3_
00000000003b81f2 W _ZN5Eigen13CwiseBinaryOpINS_8internal20scalar_difference_opIddEEKNS_6MatrixIdLi3ELi1ELi0ELi3ELi1EEEKNS0_INS1_17scalar_product_opIddEEKNS_14CwiseNullaryOpINS1_18scalar_constant_opIdEES6_EES6_EEEC1ERKSG_
00000000003b87b4 W _ZN5Eigen13CwiseBinaryOpINS_8internal20scalar_difference_opIddEEKNS_6MatrixIdLi3ELi1ELi0ELi3ELi1EEEKNS0_INS1_17scalar_product_opIddEEKNS_14CwiseNullaryOpINS1_18scalar_constant_opIdEES6_EES6_EEEC1ERS6_RSF_RKS3_
00000000003b81f2 W _ZN5Eigen13CwiseBinaryOpINS_8internal20scalar_difference_opIddEEKNS_6MatrixIdLi3ELi1ELi0ELi3ELi1EEEKNS0_INS1_17scalar_product_opIddEEKNS_14CwiseNullaryOpINS1_18scalar_constant_opIdEES6_EES6_EEEC2ERKSG_
00000000003b87b4 W _ZN5Eigen13CwiseBinaryOpINS_8internal20scalar_difference_opIddEEKNS_6MatrixIdLi3ELi1ELi0ELi3ELi1EEEKNS0_INS1_17scalar_product_opIddEEKNS_14CwiseNullaryOpINS1_18scalar_constant_opIdEES6_EES6_EEEC2ERS6_RSF_RKS3_
00000000003874e8 W _ZN5Eigen13CwiseBinaryOpINS_8internal20scalar_difference_opIddEEKNS_6MatrixIdLi3ELi1ELi0ELi3ELi1EEES6_EC1ERKS7_
000000000038b6bc W _ZN5Eigen13CwiseBinaryOpINS_8internal20scalar_difference_opIddEEKNS_6MatrixIdLi3ELi1ELi0ELi3ELi1EEES6_EC1ERS6_S8_RKS3_
00000000003874e8 W _ZN5Eigen13CwiseBinaryOpINS_8internal20scalar_difference_opIddEEKNS_6MatrixIdLi3ELi1ELi0ELi3ELi1EEES6_EC2ERKS7_
000000000038b6bc W _ZN5Eigen13CwiseBinaryOpINS_8internal20scalar_difference_opIddEEKNS_6MatrixIdLi3ELi1ELi0ELi3ELi1EEES6_EC2ERS6_S8_RKS3_
000000000040b282 W _ZN5Eigen13CwiseBinaryOpINS_8internal20scalar_difference_opIddEEKNS_6MatrixIdLin1ELi1ELi0ELin1ELi1EEEKNS0_INS1_17scalar_product_opIddEEKNS_14CwiseNullaryOpINS1_18scalar_constant_opIdEES6_EES6_EEEC1ERKSG_
000000000040b404 W _ZN5Eigen13CwiseBinaryOpINS_8internal20scalar_difference_opIddEEKNS_6MatrixIdLin1ELi1ELi0ELin1ELi1EEEKNS0_INS1_17scalar_product_opIddEEKNS_14CwiseNullaryOpINS1_18scalar_constant_opIdEES6_EES6_EEEC1ERS6_RSF_RKS3_
000000000040b282 W _ZN5Eigen13CwiseBinaryOpINS_8internal20scalar_difference_opIddEEKNS_6MatrixIdLin1ELi1ELi0ELin1ELi1EEEKNS0_INS1_17scalar_product_opIddEEKNS_14CwiseNullaryOpINS1_18scalar_constant_opIdEES6_EES6_EEEC2ERKSG_
000000000040b404 W _ZN5Eigen13CwiseBinaryOpINS_8internal20scalar_difference_opIddEEKNS_6MatrixIdLin1ELi1ELi0ELin1ELi1EEEKNS0_INS1_17scalar_product_opIddEEKNS_14CwiseNullaryOpINS1_18scalar_constant_opIdEES6_EES6_EEEC2ERS6_RSF_RKS3_
00000000003d9152 W _ZN5Eigen13CwiseBinaryOpINS_8internal20scalar_difference_opIddEEKNS_6MatrixIdLin1ELi1ELi0ELin1ELi1EEES6_EC1ERKS7_
000000000035d2ea W _ZN5Eigen13CwiseBinaryOpINS_8internal20scalar_difference_opIddEEKNS_6MatrixIdLin1ELi1ELi0ELin1ELi1EEES6_EC1ERS6_S8_RKS3_
00000000003d9152 W _ZN5Eigen13CwiseBinaryOpINS_8internal20scalar_difference_opIddEEKNS_6MatrixIdLin1ELi1ELi0ELin1ELi1EEES6_EC2ERKS7_
000000000035d2ea W _ZN5Eigen13CwiseBinaryOpINS_8internal20scalar_difference_opIddEEKNS_6MatrixIdLin1ELi1ELi0ELin1ELi1EEES6_EC2ERS6_S8_RKS3_
000000000038dae4 W _ZN5Eigen13CwiseBinaryOpINS_8internal20scalar_difference_opIddEEKNS_7ProductINS_12SparseMatrixIdLi1EiEENS0_INS1_13scalar_sum_opIddEEKNS0_IS8_KS6_S9_EES9_EELi2EEEKNS4_IS6_S6_Li2EEEEC1ERKSH_
000000000038d9ee W _ZN5Eigen13CwiseBinaryOpINS_8internal20scalar_difference_opIddEEKNS_7ProductINS_12SparseMatrixIdLi1EiEENS0_INS1_13scalar_sum_opIddEEKNS0_IS8_KS6_S9_EES9_EELi2EEEKNS4_IS6_S6_Li2EEEEC1ERSE_RSG_RKS3_
000000000038dae4 W _ZN5Eigen13CwiseBinaryOpINS_8internal20scalar_difference_opIddEEKNS_7ProductINS_12SparseMatrixIdLi1EiEENS0_INS1_13scalar_sum_opIddEEKNS0_IS8_KS6_S9_EES9_EELi2EEEKNS4_IS6_S6_Li2EEEEC2ERKSH_
000000000038d9ee W _ZN5Eigen13CwiseBinaryOpINS_8internal20scalar_difference_opIddEEKNS_7ProductINS_12SparseMatrixIdLi1EiEENS0_INS1_13scalar_sum_opIddEEKNS0_IS8_KS6_S9_EES9_EELi2EEEKNS4_IS6_S6_Li2EEEEC2ERSE_RSG_RKS3_
0000000000392d90 W _ZN5Eigen13SparseMapBaseINS_3RefIKNS_12SparseMatrixIdLi1EiEELi0ENS_11OuterStrideILin1EEEEELi0EEC1ElllPKiSA_PKdSA_
0000000000395e62 W _ZN5Eigen13SparseMapBaseINS_3RefIKNS_12SparseMatrixIdLi1EiEELi0ENS_11OuterStrideILin1EEEEELi0EEC1EllPKiPKd
0000000000392d90 W _ZN5Eigen13SparseMapBaseINS_3RefIKNS_12SparseMatrixIdLi1EiEELi0ENS_11OuterStrideILin1EEEEELi0EEC2ElllPKiSA_PKdSA_
0000000000395e62 W _ZN5Eigen13SparseMapBaseINS_3RefIKNS_12SparseMatrixIdLi1EiEELi0ENS_11OuterStrideILin1EEEEELi0EEC2EllPKiPKd
0000000000390d12 W _ZN5Eigen13SparseMapBaseINS_3RefIKNS_12SparseMatrixIdLi1EiEELi0ENS_11OuterStrideILin1EEEEELi0EED1Ev
0000000000390d12 W _ZN5Eigen13SparseMapBaseINS_3RefIKNS_12SparseMatrixIdLi1EiEELi0ENS_11OuterStrideILin1EEEEELi0EED2Ev
00000000003d976e W _ZN5Eigen13TransposeImplIKNS_13CwiseBinaryOpINS_8internal20scalar_difference_opIddEEKNS_6MatrixIdLin1ELi1ELi0ELin1ELi1EEES7_EENS_5DenseEEC1Ev
00000000003d976e W _ZN5Eigen13TransposeImplIKNS_13CwiseBinaryOpINS_8internal20scalar_difference_opIddEEKNS_6MatrixIdLin1ELi1ELi0ELin1ELi1EEES7_EENS_5DenseEEC2Ev
000000000035361c W _ZN5Eigen13TransposeImplIKNS_5BlockIKNS_6MatrixIdLi3ELi3ELi0ELi3ELi3EEELi1ELi3ELb0EEENS_5DenseEEC1Ev
000000000035361c W _ZN5Eigen13TransposeImplIKNS_5BlockIKNS_6MatrixIdLi3ELi3ELi0ELi3ELi3EEELi1ELi3ELb0EEENS_5DenseEEC2Ev
00000000003a621c W _ZN5Eigen13TransposeImplIKNS_5BlockIKNS_6MatrixIdLin1ELi3ELi0ELin1ELi3EEELi1ELi3ELb0EEENS_5DenseEEC1Ev
00000000003a621c W _ZN5Eigen13TransposeImplIKNS_5BlockIKNS_6MatrixIdLin1ELi3ELi0ELin1ELi3EEELi1ELi3ELb0EEENS_5DenseEEC2Ev
000000000038ba02 W _ZN5Eigen13TransposeImplIKNS_6MatrixIdLi3ELi3ELi0ELi3ELi3EEENS_5DenseEEC1Ev
000000000038ba02 W _ZN5Eigen13TransposeImplIKNS_6MatrixIdLi3ELi3ELi0ELi3ELi3EEENS_5DenseEEC2Ev
00000000003dd07a W _ZN5Eigen13TransposeImplIKNS_6MatrixIdLin1ELi1ELi0ELin1ELi1EEENS_5DenseEEC1Ev
00000000003dd07a W _ZN5Eigen13TransposeImplIKNS_6MatrixIdLin1ELi1ELi0ELin1ELi1EEENS_5DenseEEC2Ev
00000000003db8a4 W _ZN5Eigen13TransposeImplIKNS_7ProductINS_13CwiseBinaryOpINS_8internal17scalar_product_opIddEEKNS_14CwiseNullaryOpINS3_18scalar_constant_opIdEEKNS_6MatrixIdLi1ELin1ELi1ELi1ELin1EEEEEKNS_9TransposeIKNS2_INS3_20scalar_difference_opIddEEKNS9_IdLin1ELi1ELi0ELin1ELi1EEESI_EEEEEENS_15DiagonalWrapperISI_EELi1EEENS_5DenseEEC1Ev
00000000003db8a4 W _ZN5Eigen13TransposeImplIKNS_7ProductINS_13CwiseBinaryOpINS_8internal17scalar_product_opIddEEKNS_14CwiseNullaryOpINS3_18scalar_constant_opIdEEKNS_6MatrixIdLi1ELin1ELi1ELi1ELin1EEEEEKNS_9TransposeIKNS2_INS3_20scalar_difference_opIddEEKNS9_IdLin1ELi1ELi0ELin1ELi1EEESI_EEEEEENS_15DiagonalWrapperISI_EELi1EEENS_5DenseEEC2Ev
00000000003b9dd2 W _ZN5Eigen13TransposeImplIKNS_9TransposeINS_6MatrixIdLi3ELi1ELi0ELi3ELi1EEEEENS_5DenseEEC1Ev
00000000003b9dd2 W _ZN5Eigen13TransposeImplIKNS_9TransposeINS_6MatrixIdLi3ELi1ELi0ELi3ELi1EEEEENS_5DenseEEC2Ev
00000000003c47de W _ZN5Eigen13TransposeImplINS_12SparseMatrixIdLi1EiEENS_6SparseEEC1Ev
00000000003c47de W _ZN5Eigen13TransposeImplINS_12SparseMatrixIdLi1EiEENS_6SparseEEC2Ev
00000000003b8618 W _ZN5Eigen13TransposeImplINS_6MatrixIdLi3ELi1ELi0ELi3ELi1EEENS_5DenseEEC1Ev
00000000003b8618 W _ZN5Eigen13TransposeImplINS_6MatrixIdLi3ELi1ELi0ELi3ELi1EEENS_5DenseEEC2Ev
00000000003d9e60 W _ZN5Eigen13TransposeImplINS_6MatrixIdLin1ELi1ELi0ELin1ELi1EEENS_5DenseEEC1Ev
00000000003d9e60 W _ZN5Eigen13TransposeImplINS_6MatrixIdLin1ELi1ELi0ELin1ELi1EEENS_5DenseEEC2Ev
00000000003a9c50 W _ZN5Eigen14CwiseNullaryOpINS_8internal18scalar_constant_opIdEEKNS_6MatrixIdLi1ELi3ELi1ELi1ELi3EEEEC1EllRKS3_
00000000003a9868 W _ZN5Eigen14CwiseNullaryOpINS_8internal18scalar_constant_opIdEEKNS_6MatrixIdLi1ELi3ELi1ELi1ELi3EEEEC1ERKS7_
00000000003a9c50 W _ZN5Eigen14CwiseNullaryOpINS_8internal18scalar_constant_opIdEEKNS_6MatrixIdLi1ELi3ELi1ELi1ELi3EEEEC2EllRKS3_
00000000003a9868 W _ZN5Eigen14CwiseNullaryOpINS_8internal18scalar_constant_opIdEEKNS_6MatrixIdLi1ELi3ELi1ELi1ELi3EEEEC2ERKS7_
00000000003d97fe W _ZN5Eigen14CwiseNullaryOpINS_8internal18scalar_constant_opIdEEKNS_6MatrixIdLi1ELin1ELi1ELi1ELin1EEEEC1EllRKS3_
00000000003d91f8 W _ZN5Eigen14CwiseNullaryOpINS_8internal18scalar_constant_opIdEEKNS_6MatrixIdLi1ELin1ELi1ELi1ELin1EEEEC1ERKS7_
00000000003d97fe W _ZN5Eigen14CwiseNullaryOpINS_8internal18scalar_constant_opIdEEKNS_6MatrixIdLi1ELin1ELi1ELi1ELin1EEEEC2EllRKS3_
00000000003d91f8 W _ZN5Eigen14CwiseNullaryOpINS_8internal18scalar_constant_opIdEEKNS_6MatrixIdLi1ELin1ELi1ELi1ELin1EEEEC2ERKS7_
00000000003b28a2 W _ZN5Eigen14CwiseNullaryOpINS_8internal18scalar_constant_opIdEEKNS_6MatrixIdLi2ELi1ELi0ELi2ELi1EEEEC1EllRKS3_
00000000003b2158 W _ZN5Eigen14CwiseNullaryOpINS_8internal18scalar_constant_opIdEEKNS_6MatrixIdLi2ELi1ELi0ELi2ELi1EEEEC1ERKS7_
00000000003b28a2 W _ZN5Eigen14CwiseNullaryOpINS_8internal18scalar_constant_opIdEEKNS_6MatrixIdLi2ELi1ELi0ELi2ELi1EEEEC2EllRKS3_
00000000003b2158 W _ZN5Eigen14CwiseNullaryOpINS_8internal18scalar_constant_opIdEEKNS_6MatrixIdLi2ELi1ELi0ELi2ELi1EEEEC2ERKS7_
000000000038c100 W _ZN5Eigen14CwiseNullaryOpINS_8internal18scalar_constant_opIdEEKNS_6MatrixIdLi3ELi1ELi0ELi3ELi1EEEEC1EllRKS3_
0000000000387cb8 W _ZN5Eigen14CwiseNullaryOpINS_8internal18scalar_constant_opIdEEKNS_6MatrixIdLi3ELi1ELi0ELi3ELi1EEEEC1ERKS7_
000000000038c100 W _ZN5Eigen14CwiseNullaryOpINS_8internal18scalar_constant_opIdEEKNS_6MatrixIdLi3ELi1ELi0ELi3ELi1EEEEC2EllRKS3_
0000000000387cb8 W _ZN5Eigen14CwiseNullaryOpINS_8internal18scalar_constant_opIdEEKNS_6MatrixIdLi3ELi1ELi0ELi3ELi1EEEEC2ERKS7_
000000000035d456 W _ZN5Eigen14CwiseNullaryOpINS_8internal18scalar_constant_opIdEEKNS_6MatrixIdLin1ELi1ELi0ELin1ELi1EEEEC1EllRKS3_
000000000035c1e4 W _ZN5Eigen14CwiseNullaryOpINS_8internal18scalar_constant_opIdEEKNS_6MatrixIdLin1ELi1ELi0ELin1ELi1EEEEC1ERKS7_
000000000035d456 W _ZN5Eigen14CwiseNullaryOpINS_8internal18scalar_constant_opIdEEKNS_6MatrixIdLin1ELi1ELi0ELin1ELi1EEEEC2EllRKS3_
000000000035c1e4 W _ZN5Eigen14CwiseNullaryOpINS_8internal18scalar_constant_opIdEEKNS_6MatrixIdLin1ELi1ELi0ELin1ELi1EEEEC2ERKS7_
000000000038d196 W _ZN5Eigen14CwiseNullaryOpINS_8internal18scalar_constant_opIdEEKNS_6MatrixIdLin1ELin1ELi1ELin1ELin1EEEEC1EllRKS3_
0000000000388c68 W _ZN5Eigen14CwiseNullaryOpINS_8internal18scalar_constant_opIdEEKNS_6MatrixIdLin1ELin1ELi1ELin1ELin1EEEEC1ERKS7_
000000000038d196 W _ZN5Eigen14CwiseNullaryOpINS_8internal18scalar_constant_opIdEEKNS_6MatrixIdLin1ELin1ELi1ELin1ELin1EEEEC2EllRKS3_
0000000000388c68 W _ZN5Eigen14CwiseNullaryOpINS_8internal18scalar_constant_opIdEEKNS_6MatrixIdLin1ELin1ELi1ELin1ELin1EEEEC2ERKS7_
0000000000379baa W _ZN5Eigen14CwiseNullaryOpINS_8internal18scalar_constant_opIdEENS_6MatrixIdLi3ELi1ELi0ELi3ELi1EEEEC1EllRKS3_
0000000000379baa W _ZN5Eigen14CwiseNullaryOpINS_8internal18scalar_constant_opIdEENS_6MatrixIdLi3ELi1ELi0ELi3ELi1EEEEC2EllRKS3_
00000000003522f6 W _ZN5Eigen14CwiseNullaryOpINS_8internal18scalar_constant_opIdEENS_6MatrixIdLi3ELi3ELi0ELi3ELi3EEEEC1EllRKS3_
00000000003522f6 W _ZN5Eigen14CwiseNullaryOpINS_8internal18scalar_constant_opIdEENS_6MatrixIdLi3ELi3ELi0ELi3ELi3EEEEC2EllRKS3_
000000000036949e W _ZN5Eigen14CwiseNullaryOpINS_8internal18scalar_constant_opIdEENS_6MatrixIdLin1ELi1ELi0ELin1ELi1EEEEC1EllRKS3_
000000000036949e W _ZN5Eigen14CwiseNullaryOpINS_8internal18scalar_constant_opIdEENS_6MatrixIdLin1ELi1ELi0ELin1ELi1EEEEC2EllRKS3_
00000000003a95ca W _ZN5Eigen14CwiseNullaryOpINS_8internal18scalar_constant_opIdEENS_6MatrixIdLin1ELi3ELi0ELin1ELi3EEEEC1EllRKS3_
00000000003a95ca W _ZN5Eigen14CwiseNullaryOpINS_8internal18scalar_constant_opIdEENS_6MatrixIdLin1ELi3ELi0ELin1ELi3EEEEC2EllRKS3_
000000000036edee W _ZN5Eigen14CwiseNullaryOpINS_8internal18scalar_constant_opIdEENS_6MatrixIdLin1ELin1ELi0ELin1ELin1EEEEC1EllRKS3_
000000000036edee W _ZN5Eigen14CwiseNullaryOpINS_8internal18scalar_constant_opIdEENS_6MatrixIdLin1ELin1ELi0ELin1ELin1EEEEC2EllRKS3_
0000000000393c50 W _ZN5Eigen14CwiseNullaryOpINS_8internal18scalar_constant_opIiEENS_5ArrayIiLin1ELi1ELi0ELin1ELi1EEEEC1EllRKS3_
0000000000393c50 W _ZN5Eigen14CwiseNullaryOpINS_8internal18scalar_constant_opIiEENS_5ArrayIiLin1ELi1ELi0ELin1ELi1EEEEC2EllRKS3_
0000000000371c82 W _ZN5Eigen14CwiseNullaryOpINS_8internal18scalar_constant_opIiEENS_6MatrixIiLin1ELi1ELi0ELin1ELi1EEEEC1EllRKS3_
0000000000371c82 W _ZN5Eigen14CwiseNullaryOpINS_8internal18scalar_constant_opIiEENS_6MatrixIiLin1ELi1ELi0ELin1ELi1EEEEC2EllRKS3_
000000000039e13a W _ZN5Eigen14CwiseNullaryOpINS_8internal18scalar_constant_opIlEENS_6MatrixIlLin1ELi1ELi0ELin1ELi1EEEEC1EllRKS3_
000000000039e13a W _ZN5Eigen14CwiseNullaryOpINS_8internal18scalar_constant_opIlEENS_6MatrixIlLin1ELi1ELi0ELin1ELi1EEEEC2EllRKS3_
0000000000381be0 W _ZN5Eigen14CwiseNullaryOpINS_8internal18scalar_identity_opIdEENS_6MatrixIdLi3ELi3ELi0ELi3ELi3EEEEC1EllRKS3_
00000000003f18a6 W _ZN5Eigen14CwiseNullaryOpINS_8internal18scalar_identity_opIdEENS_6MatrixIdLi3ELi3ELi0ELi3ELi3EEEEC1ERKS6_
0000000000381be0 W _ZN5Eigen14CwiseNullaryOpINS_8internal18scalar_identity_opIdEENS_6MatrixIdLi3ELi3ELi0ELi3ELi3EEEEC2EllRKS3_
00000000003f18a6 W _ZN5Eigen14CwiseNullaryOpINS_8internal18scalar_identity_opIdEENS_6MatrixIdLi3ELi3ELi0ELi3ELi3EEEEC2ERKS6_
0000000000421d94 W _ZN5Eigen14QuaternionBaseINS_10QuaternionIdLi0EEEE1wEv
0000000000421dbe W _ZN5Eigen14QuaternionBaseINS_10QuaternionIdLi0EEEE1xEv
0000000000421e2e W _ZN5Eigen14QuaternionBaseINS_10QuaternionIdLi0EEEE1yEv
0000000000421e58 W _ZN5Eigen14QuaternionBaseINS_10QuaternionIdLi0EEEE1zEv
0000000000421e82 W _ZN5Eigen14QuaternionBaseINS_10QuaternionIdLi0EEEE6coeffsEv
000000000041c670 W _ZN5Eigen14QuaternionBaseINS_10QuaternionIdLi0EEEEaSINS_6MatrixIdLi3ELi3ELi0ELi3ELi3EEEEERS2_RKNS_10MatrixBaseIT_EE
000000000041745e W _ZN5Eigen14QuaternionBaseINS_10QuaternionIdLi0EEEEC1Ev
000000000041745e W _ZN5Eigen14QuaternionBaseINS_10QuaternionIdLi0EEEEC2Ev
00000000003cc8f4 W _ZN5Eigen15DenseCoeffsBaseINS_12ArrayWrapperINS_6MatrixIdLi3ELi3ELi0ELi3ELi3EEEEELi0EEC1Ev
00000000003cc8f4 W _ZN5Eigen15DenseCoeffsBaseINS_12ArrayWrapperINS_6MatrixIdLi3ELi3ELi0ELi3ELi3EEEEELi0EEC2Ev
00000000003cc910 W _ZN5Eigen15DenseCoeffsBaseINS_12ArrayWrapperINS_6MatrixIdLi3ELi3ELi0ELi3ELi3EEEEELi1EEC1Ev
00000000003cc910 W _ZN5Eigen15DenseCoeffsBaseINS_12ArrayWrapperINS_6MatrixIdLi3ELi3ELi0ELi3ELi3EEEEELi1EEC2Ev
00000000003cc92c W _ZN5Eigen15DenseCoeffsBaseINS_12ArrayWrapperINS_6MatrixIdLi3ELi3ELi0ELi3ELi3EEEEELi3EEC1Ev
00000000003cc92c W _ZN5Eigen15DenseCoeffsBaseINS_12ArrayWrapperINS_6MatrixIdLi3ELi3ELi0ELi3ELi3EEEEELi3EEC2Ev
00000000003f5192 W _ZN5Eigen15DenseCoeffsBaseINS_12CwiseUnaryOpINS_8internal14scalar_abs2_opIdEEKNS_6MatrixIdLi3ELi1ELi0ELi3ELi1EEEEELi0EEC1Ev
00000000003f5192 W _ZN5Eigen15DenseCoeffsBaseINS_12CwiseUnaryOpINS_8internal14scalar_abs2_opIdEEKNS_6MatrixIdLi3ELi1ELi0ELi3ELi1EEEEELi0EEC2Ev
00000000004020c0 W _ZN5Eigen15DenseCoeffsBaseINS_12CwiseUnaryOpINS_8internal18scalar_opposite_opIdEEKNS_13CwiseBinaryOpINS2_13scalar_sum_opIddEEKNS5_INS2_17scalar_product_opIddEEKNS_14CwiseNullaryOpINS2_18scalar_constant_opIdEEKNS_6MatrixIdLin1ELi1ELi0ELin1ELi1EEEEEKNS5_INS2_20scalar_difference_opIddEESF_SF_EEEEKNS5_IS9_SH_KNS5_IS7_KNS5_IS9_SH_SF_EESF_EEEEEEEELi0EEC1Ev
00000000004020c0 W _ZN5Eigen15DenseCoeffsBaseINS_12CwiseUnaryOpINS_8internal18scalar_opposite_opIdEEKNS_13CwiseBinaryOpINS2_13scalar_sum_opIddEEKNS5_INS2_17scalar_product_opIddEEKNS_14CwiseNullaryOpINS2_18scalar_constant_opIdEEKNS_6MatrixIdLin1ELi1ELi0ELin1ELi1EEEEEKNS5_INS2_20scalar_difference_opIddEESF_SF_EEEEKNS5_IS9_SH_KNS5_IS7_KNS5_IS9_SH_SF_EESF_EEEEEEEELi0EEC2Ev
00000000003cc7ec W _ZN5Eigen15DenseCoeffsBaseINS_12CwiseUnaryOpINS_8internal18scalar_opposite_opIdEEKNS_6MatrixIdLi3ELi3ELi0ELi3ELi3EEEEELi0EEC1Ev
00000000003cc7ec W _ZN5Eigen15DenseCoeffsBaseINS_12CwiseUnaryOpINS_8internal18scalar_opposite_opIdEEKNS_6MatrixIdLi3ELi3ELi0ELi3ELi3EEEEELi0EEC2Ev
000000000040207c W _ZN5Eigen15DenseCoeffsBaseINS_13CwiseBinaryOpINS_8internal13scalar_sum_opIddEEKNS1_INS2_17scalar_product_opIddEEKNS_14CwiseNullaryOpINS2_18scalar_constant_opIdEEKNS_6MatrixIdLin1ELi1ELi0ELin1ELi1EEEEEKNS1_INS2_20scalar_difference_opIddEESC_SC_EEEEKNS1_IS6_SE_KNS1_IS4_KNS1_IS6_SE_SC_EESC_EEEEEELi0EEC1Ev
000000000040207c W _ZN5Eigen15DenseCoeffsBaseINS_13CwiseBinaryOpINS_8internal13scalar_sum_opIddEEKNS1_INS2_17scalar_product_opIddEEKNS_14CwiseNullaryOpINS2_18scalar_constant_opIdEEKNS_6MatrixIdLin1ELi1ELi0ELin1ELi1EEEEEKNS1_INS2_20scalar_difference_opIddEESC_SC_EEEEKNS1_IS6_SE_KNS1_IS4_KNS1_IS6_SE_SC_EESC_EEEEEELi0EEC2Ev
0000000000402202 W _ZN5Eigen15DenseCoeffsBaseINS_13CwiseBinaryOpINS_8internal13scalar_sum_opIddEEKNS1_INS2_17scalar_product_opIddEEKNS_14CwiseNullaryOpINS2_18scalar_constant_opIdEEKNS_6MatrixIdLin1ELi1ELi0ELin1ELi1EEEEEKNS1_INS2_20scalar_difference_opIddEESC_SC_EEEEKNS1_IS6_SE_KNS1_IS4_SC_SC_EEEEEELi0EEC1Ev
0000000000402202 W _ZN5Eigen15DenseCoeffsBaseINS_13CwiseBinaryOpINS_8internal13scalar_sum_opIddEEKNS1_INS2_17scalar_product_opIddEEKNS_14CwiseNullaryOpINS2_18scalar_constant_opIdEEKNS_6MatrixIdLin1ELi1ELi0ELin1ELi1EEEEEKNS1_INS2_20scalar_difference_opIddEESC_SC_EEEEKNS1_IS6_SE_KNS1_IS4_SC_SC_EEEEEELi0EEC2Ev
0000000000401ff4 W _ZN5Eigen15DenseCoeffsBaseINS_13CwiseBinaryOpINS_8internal13scalar_sum_opIddEEKNS1_INS2_17scalar_product_opIddEEKNS_14CwiseNullaryOpINS2_18scalar_constant_opIdEEKNS_6MatrixIdLin1ELi1ELi0ELin1ELi1EEEEESC_EESC_EELi0EEC1Ev
0000000000401ff4 W _ZN5Eigen15DenseCoeffsBaseINS_13CwiseBinaryOpINS_8internal13scalar_sum_opIddEEKNS1_INS2_17scalar_product_opIddEEKNS_14CwiseNullaryOpINS2_18scalar_constant_opIdEEKNS_6MatrixIdLin1ELi1ELi0ELin1ELi1EEEEESC_EESC_EELi0EEC2Ev
00000000004023cc W _ZN5Eigen15DenseCoeffsBaseINS_13CwiseBinaryOpINS_8internal13scalar_sum_opIddEEKNS1_INS2_20scalar_difference_opIddEEKNS1_INS2_17scalar_product_opIddEEKNS_14CwiseNullaryOpINS2_18scalar_constant_opIdEEKNS_6MatrixIdLin1ELi1ELi0ELin1ELi1EEEEESE_EESI_EESI_EELi0EEC1Ev
00000000004023cc W _ZN5Eigen15DenseCoeffsBaseINS_13CwiseBinaryOpINS_8internal13scalar_sum_opIddEEKNS1_INS2_20scalar_difference_opIddEEKNS1_INS2_17scalar_product_opIddEEKNS_14CwiseNullaryOpINS2_18scalar_constant_opIdEEKNS_6MatrixIdLin1ELi1ELi0ELin1ELi1EEEEESE_EESI_EESI_EELi0EEC2Ev
0000000000402520 W _ZN5Eigen15DenseCoeffsBaseINS_13CwiseBinaryOpINS_8internal13scalar_sum_opIddEEKNS1_INS2_20scalar_difference_opIddEEKNS1_IS6_KNS1_INS2_18scalar_quotient_opIddEEKNS1_INS2_17scalar_product_opIddEEKNS_14CwiseNullaryOpINS2_18scalar_constant_opIdEEKNS_6MatrixIdLin1ELi1ELi0ELin1ELi1EEEEEKNS1_IS4_SG_SG_EEEESI_EEKNS1_IS8_KNS1_ISA_SI_KNS1_IS4_KNS1_ISA_SI_SG_EESG_EEEESI_EEEEKNS1_IS8_KNS1_ISA_SI_KNS1_IS4_KNS1_IS4_KNS1_IS6_SQ_SQ_EESQ_EESQ_EEEESI_EEEES18_EELi0EEC1Ev
0000000000402520 W _ZN5Eigen15DenseCoeffsBaseINS_13CwiseBinaryOpINS_8internal13scalar_sum_opIddEEKNS1_INS2_20scalar_difference_opIddEEKNS1_IS6_KNS1_INS2_18scalar_quotient_opIddEEKNS1_INS2_17scalar_product_opIddEEKNS_14CwiseNullaryOpINS2_18scalar_constant_opIdEEKNS_6MatrixIdLin1ELi1ELi0ELin1ELi1EEEEEKNS1_IS4_SG_SG_EEEESI_EEKNS1_IS8_KNS1_ISA_SI_KNS1_IS4_KNS1_ISA_SI_SG_EESG_EEEESI_EEEEKNS1_IS8_KNS1_ISA_SI_KNS1_IS4_KNS1_IS4_KNS1_IS6_SQ_SQ_EESQ_EESQ_EEEESI_EEEES18_EELi0EEC2Ev
0000000000402410 W _ZN5Eigen15DenseCoeffsBaseINS_13CwiseBinaryOpINS_8internal13scalar_sum_opIddEEKNS1_IS4_KNS1_INS2_20scalar_difference_opIddEEKNS1_INS2_17scalar_product_opIddEEKNS_14CwiseNullaryOpINS2_18scalar_constant_opIdEEKNS_6MatrixIdLin1ELi1ELi0ELin1ELi1EEEEESE_EESI_EESI_EESI_EELi0EEC1Ev
0000000000402410 W _ZN5Eigen15DenseCoeffsBaseINS_13CwiseBinaryOpINS_8internal13scalar_sum_opIddEEKNS1_IS4_KNS1_INS2_20scalar_difference_opIddEEKNS1_INS2_17scalar_product_opIddEEKNS_14CwiseNullaryOpINS2_18scalar_constant_opIdEEKNS_6MatrixIdLin1ELi1ELi0ELin1ELi1EEEEESE_EESI_EESI_EESI_EELi0EEC2Ev
00000000003b3a7e W _ZN5Eigen15DenseCoeffsBaseINS_13CwiseBinaryOpINS_8internal13scalar_sum_opIddEEKNS_6MatrixIdLi2ELi1ELi0ELi2ELi1EEEKNS1_INS2_17scalar_product_opIddEEKNS_14CwiseNullaryOpINS2_18scalar_constant_opIdEES7_EES7_EEEELi0EEC1Ev
00000000003b3a7e W _ZN5Eigen15DenseCoeffsBaseINS_13CwiseBinaryOpINS_8internal13scalar_sum_opIddEEKNS_6MatrixIdLi2ELi1ELi0ELi2ELi1EEEKNS1_INS2_17scalar_product_opIddEEKNS_14CwiseNullaryOpINS2_18scalar_constant_opIdEES7_EES7_EEEELi0EEC2Ev
00000000003b963a W _ZN5Eigen15DenseCoeffsBaseINS_13CwiseBinaryOpINS_8internal13scalar_sum_opIddEEKNS_6MatrixIdLi3ELi1ELi0ELi3ELi1EEEKNS1_INS2_17scalar_product_opIddEEKNS_14CwiseNullaryOpINS2_18scalar_constant_opIdEES7_EES7_EEEELi0EEC1Ev
00000000003b963a W _ZN5Eigen15DenseCoeffsBaseINS_13CwiseBinaryOpINS_8internal13scalar_sum_opIddEEKNS_6MatrixIdLi3ELi1ELi0ELi3ELi1EEEKNS1_INS2_17scalar_product_opIddEEKNS_14CwiseNullaryOpINS2_18scalar_constant_opIdEES7_EES7_EEEELi0EEC2Ev
000000000035f09c W _ZN5Eigen15DenseCoeffsBaseINS_13CwiseBinaryOpINS_8internal13scalar_sum_opIddEEKNS_6MatrixIdLin1ELi1ELi0ELin1ELi1EEEKNS1_INS2_17scalar_product_opIddEEKNS_14CwiseNullaryOpINS2_18scalar_constant_opIdEES7_EES7_EEEELi0EEC1Ev
000000000035f09c W _ZN5Eigen15DenseCoeffsBaseINS_13CwiseBinaryOpINS_8internal13scalar_sum_opIddEEKNS_6MatrixIdLin1ELi1ELi0ELin1ELi1EEEKNS1_INS2_17scalar_product_opIddEEKNS_14CwiseNullaryOpINS2_18scalar_constant_opIdEES7_EES7_EEEELi0EEC2Ev
0000000000344a0e W _ZN5Eigen15DenseCoeffsBaseINS_13CwiseBinaryOpINS_8internal13scalar_sum_opIddEEKNS_6MatrixIdLin1ELi1ELi0ELin1ELi1EEEKNS_7ProductINS5_IdLi3ELi3ELi0ELi3ELi3EEENS5_IdLi3ELi1ELi0ELi3ELi1EEELi0EEEEELi0EEC1Ev
0000000000344a0e W _ZN5Eigen15DenseCoeffsBaseINS_13CwiseBinaryOpINS_8internal13scalar_sum_opIddEEKNS_6MatrixIdLin1ELi1ELi0ELin1ELi1EEEKNS_7ProductINS5_IdLi3ELi3ELi0ELi3ELi3EEENS5_IdLi3ELi1ELi0ELi3ELi1EEELi0EEEEELi0EEC2Ev
000000000040217a W _ZN5Eigen15DenseCoeffsBaseINS_13CwiseBinaryOpINS_8internal13scalar_sum_opIddEEKNS_6MatrixIdLin1ELi1ELi0ELin1ELi1EEES7_EELi0EEC1Ev
000000000040217a W _ZN5Eigen15DenseCoeffsBaseINS_13CwiseBinaryOpINS_8internal13scalar_sum_opIddEEKNS_6MatrixIdLin1ELi1ELi0ELin1ELi1EEES7_EELi0EEC2Ev
0000000000392876 W _ZN5Eigen15DenseCoeffsBaseINS_13CwiseBinaryOpINS_8internal13scalar_sum_opIddEEKNS_7ProductINS_12SparseMatrixIdLi1EiEENS_6MatrixIdLi3ELi1ELi0ELi3ELi1EEELi0EEEKNS5_IS7_SA_Li0EEEEELi0EEC1Ev
0000000000392876 W _ZN5Eigen15DenseCoeffsBaseINS_13CwiseBinaryOpINS_8internal13scalar_sum_opIddEEKNS_7ProductINS_12SparseMatrixIdLi1EiEENS_6MatrixIdLi3ELi1ELi0ELi3ELi1EEELi0EEEKNS5_IS7_SA_Li0EEEEELi0EEC2Ev
0000000000421f20 W _ZN5Eigen15DenseCoeffsBaseINS_13CwiseBinaryOpINS_8internal13scalar_sum_opIddEEKNS_7ProductINS_12SparseMatrixIdLi1EiEENS_6MatrixIdLin1ELi1ELi0ELin1ELi1EEELi0EEESB_EELi0EEC1Ev
0000000000421f20 W _ZN5Eigen15DenseCoeffsBaseINS_13CwiseBinaryOpINS_8internal13scalar_sum_opIddEEKNS_7ProductINS_12SparseMatrixIdLi1EiEENS_6MatrixIdLin1ELi1ELi0ELin1ELi1EEELi0EEESB_EELi0EEC2Ev
00000000003cc970 W _ZN5Eigen15DenseCoeffsBaseINS_13CwiseBinaryOpINS_8internal17scalar_product_opIddEEKNS_12ArrayWrapperINS_6MatrixIdLi3ELi3ELi0ELi3ELi3EEEEES9_EELi0EEC1Ev
00000000003cc970 W _ZN5Eigen15DenseCoeffsBaseINS_13CwiseBinaryOpINS_8internal17scalar_product_opIddEEKNS_12ArrayWrapperINS_6MatrixIdLi3ELi3ELi0ELi3ELi3EEEEES9_EELi0EEC2Ev
00000000003aa238 W _ZN5Eigen15DenseCoeffsBaseINS_13CwiseBinaryOpINS_8internal17scalar_product_opIddEEKNS_14CwiseNullaryOpINS2_18scalar_constant_opIdEEKNS_6MatrixIdLi1ELi3ELi1ELi1ELi3EEEEEKNS_5BlockIKNS_9TransposeIKNS8_IdLi3ELi3ELi0ELi3ELi3EEEEELi1ELi3ELb1EEEEELi0EEC1Ev
00000000003aa238 W _ZN5Eigen15DenseCoeffsBaseINS_13CwiseBinaryOpINS_8internal17scalar_product_opIddEEKNS_14CwiseNullaryOpINS2_18scalar_constant_opIdEEKNS_6MatrixIdLi1ELi3ELi1ELi1ELi3EEEEEKNS_5BlockIKNS_9TransposeIKNS8_IdLi3ELi3ELi0ELi3ELi3EEEEELi1ELi3ELb1EEEEELi0EEC2Ev
00000000003da7c0 W _ZN5Eigen15DenseCoeffsBaseINS_13CwiseBinaryOpINS_8internal17scalar_product_opIddEEKNS_14CwiseNullaryOpINS2_18scalar_constant_opIdEEKNS_6MatrixIdLi1ELin1ELi1ELi1ELin1EEEEEKNS_9TransposeIKNS1_INS2_20scalar_difference_opIddEEKNS8_IdLin1ELi1ELi0ELin1ELi1EEESH_EEEEEELi0EEC1Ev
00000000003da7c0 W _ZN5Eigen15DenseCoeffsBaseINS_13CwiseBinaryOpINS_8internal17scalar_product_opIddEEKNS_14CwiseNullaryOpINS2_18scalar_constant_opIdEEKNS_6MatrixIdLi1ELin1ELi1ELi1ELin1EEEEEKNS_9TransposeIKNS1_INS2_20scalar_difference_opIddEEKNS8_IdLin1ELi1ELi0ELin1ELi1EEESH_EEEEEELi0EEC2Ev
00000000003b3a30 W _ZN5Eigen15DenseCoeffsBaseINS_13CwiseBinaryOpINS_8internal17scalar_product_opIddEEKNS_14CwiseNullaryOpINS2_18scalar_constant_opIdEEKNS_6MatrixIdLi2ELi1ELi0ELi2ELi1EEEEESA_EELi0EEC1Ev
00000000003b3a30 W _ZN5Eigen15DenseCoeffsBaseINS_13CwiseBinaryOpINS_8internal17scalar_product_opIddEEKNS_14CwiseNullaryOpINS2_18scalar_constant_opIdEEKNS_6MatrixIdLi2ELi1ELi0ELi2ELi1EEEEESA_EELi0EEC2Ev
00000000003f43f2 W _ZN5Eigen15DenseCoeffsBaseINS_13CwiseBinaryOpINS_8internal17scalar_product_opIddEEKNS_14CwiseNullaryOpINS2_18scalar_constant_opIdEEKNS_6MatrixIdLi3ELi1ELi0ELi3ELi1EEEEEKNS1_INS2_20scalar_difference_opIddEEKNS1_IS4_SC_KNS_5BlockIKNS5_INS2_18scalar_identity_opIdEENS8_IdLi3ELi3ELi0ELi3ELi3EEEEELi3ELi1ELb0EEEEEKNS1_IS4_SC_SA_EEEEEELi0EEC1Ev
00000000003f43f2 W _ZN5Eigen15DenseCoeffsBaseINS_13CwiseBinaryOpINS_8internal17scalar_product_opIddEEKNS_14CwiseNullaryOpINS2_18scalar_constant_opIdEEKNS_6MatrixIdLi3ELi1ELi0ELi3ELi1EEEEEKNS1_INS2_20scalar_difference_opIddEEKNS1_IS4_SC_KNS_5BlockIKNS5_INS2_18scalar_identity_opIdEENS8_IdLi3ELi3ELi0ELi3ELi3EEEEELi3ELi1ELb0EEEEEKNS1_IS4_SC_SA_EEEEEELi0EEC2Ev
00000000003f436a W _ZN5Eigen15DenseCoeffsBaseINS_13CwiseBinaryOpINS_8internal17scalar_product_opIddEEKNS_14CwiseNullaryOpINS2_18scalar_constant_opIdEEKNS_6MatrixIdLi3ELi1ELi0ELi3ELi1EEEEEKNS_5BlockIKNS5_INS2_18scalar_identity_opIdEENS8_IdLi3ELi3ELi0ELi3ELi3EEEEELi3ELi1ELb0EEEEELi0EEC1Ev
00000000003f436a W _ZN5Eigen15DenseCoeffsBaseINS_13CwiseBinaryOpINS_8internal17scalar_product_opIddEEKNS_14CwiseNullaryOpINS2_18scalar_constant_opIdEEKNS_6MatrixIdLi3ELi1ELi0ELi3ELi1EEEEEKNS_5BlockIKNS5_INS2_18scalar_identity_opIdEENS8_IdLi3ELi3ELi0ELi3ELi3EEEEELi3ELi1ELb0EEEEELi0EEC2Ev
0000000000392978 W _ZN5Eigen15DenseCoeffsBaseINS_13CwiseBinaryOpINS_8internal17scalar_product_opIddEEKNS_14CwiseNullaryOpINS2_18scalar_constant_opIdEEKNS_6MatrixIdLi3ELi1ELi0ELi3ELi1EEEEESA_EELi0EEC1Ev
0000000000392978 W _ZN5Eigen15DenseCoeffsBaseINS_13CwiseBinaryOpINS_8internal17scalar_product_opIddEEKNS_14CwiseNullaryOpINS2_18scalar_constant_opIdEEKNS_6MatrixIdLi3ELi1ELi0ELi3ELi1EEEEESA_EELi0EEC2Ev
0000000000402038 W _ZN5Eigen15DenseCoeffsBaseINS_13CwiseBinaryOpINS_8internal17scalar_product_opIddEEKNS_14CwiseNullaryOpINS2_18scalar_constant_opIdEEKNS_6MatrixIdLin1ELi1ELi0ELin1ELi1EEEEEKNS1_INS2_13scalar_sum_opIddEEKNS1_IS4_SC_SA_EESA_EEEELi0EEC1Ev
0000000000402038 W _ZN5Eigen15DenseCoeffsBaseINS_13CwiseBinaryOpINS_8internal17scalar_product_opIddEEKNS_14CwiseNullaryOpINS2_18scalar_constant_opIdEEKNS_6MatrixIdLin1ELi1ELi0ELin1ELi1EEEEEKNS1_INS2_13scalar_sum_opIddEEKNS1_IS4_SC_SA_EESA_EEEELi0EEC2Ev
0000000000402454 W _ZN5Eigen15DenseCoeffsBaseINS_13CwiseBinaryOpINS_8internal17scalar_product_opIddEEKNS_14CwiseNullaryOpINS2_18scalar_constant_opIdEEKNS_6MatrixIdLin1ELi1ELi0ELin1ELi1EEEEEKNS1_INS2_13scalar_sum_opIddEEKNS1_ISE_KNS1_INS2_20scalar_difference_opIddEEKNS1_IS4_SC_SA_EESI_EESI_EESI_EEEELi0EEC1Ev
0000000000402454 W _ZN5Eigen15DenseCoeffsBaseINS_13CwiseBinaryOpINS_8internal17scalar_product_opIddEEKNS_14CwiseNullaryOpINS2_18scalar_constant_opIdEEKNS_6MatrixIdLin1ELi1ELi0ELin1ELi1EEEEEKNS1_INS2_13scalar_sum_opIddEEKNS1_ISE_KNS1_INS2_20scalar_difference_opIddEEKNS1_IS4_SC_SA_EESI_EESI_EESI_EEEELi0EEC2Ev
00000000004021be W _ZN5Eigen15DenseCoeffsBaseINS_13CwiseBinaryOpINS_8internal17scalar_product_opIddEEKNS_14CwiseNullaryOpINS2_18scalar_constant_opIdEEKNS_6MatrixIdLin1ELi1ELi0ELin1ELi1EEEEEKNS1_INS2_13scalar_sum_opIddEESA_SA_EEEELi0EEC1Ev
00000000004021be W _ZN5Eigen15DenseCoeffsBaseINS_13CwiseBinaryOpINS_8internal17scalar_product_opIddEEKNS_14CwiseNullaryOpINS2_18scalar_constant_opIdEEKNS_6MatrixIdLin1ELi1ELi0ELin1ELi1EEEEEKNS1_INS2_13scalar_sum_opIddEESA_SA_EEEELi0EEC2Ev
000000000040b8c0 W _ZN5Eigen15DenseCoeffsBaseINS_13CwiseBinaryOpINS_8internal17scalar_product_opIddEEKNS_14CwiseNullaryOpINS2_18scalar_constant_opIdEEKNS_6MatrixIdLin1ELi1ELi0ELin1ELi1EEEEEKNS1_INS2_20scalar_difference_opIddEESA_KNS1_IS4_SC_SA_EEEEEELi0EEC1Ev
000000000040b8c0 W _ZN5Eigen15DenseCoeffsBaseINS_13CwiseBinaryOpINS_8internal17scalar_product_opIddEEKNS_14CwiseNullaryOpINS2_18scalar_constant_opIdEEKNS_6MatrixIdLin1ELi1ELi0ELin1ELi1EEEEEKNS1_INS2_20scalar_difference_opIddEESA_KNS1_IS4_SC_SA_EEEEEELi0EEC2Ev
0000000000401fb0 W _ZN5Eigen15DenseCoeffsBaseINS_13CwiseBinaryOpINS_8internal17scalar_product_opIddEEKNS_14CwiseNullaryOpINS2_18scalar_constant_opIdEEKNS_6MatrixIdLin1ELi1ELi0ELin1ELi1EEEEEKNS1_INS2_20scalar_difference_opIddEESA_SA_EEEELi0EEC1Ev
0000000000401fb0 W _ZN5Eigen15DenseCoeffsBaseINS_13CwiseBinaryOpINS_8internal17scalar_product_opIddEEKNS_14CwiseNullaryOpINS2_18scalar_constant_opIdEEKNS_6MatrixIdLin1ELi1ELi0ELin1ELi1EEEEEKNS1_INS2_20scalar_difference_opIddEESA_SA_EEEELi0EEC2Ev
000000000035f058 W _ZN5Eigen15DenseCoeffsBaseINS_13CwiseBinaryOpINS_8internal17scalar_product_opIddEEKNS_14CwiseNullaryOpINS2_18scalar_constant_opIdEEKNS_6MatrixIdLin1ELi1ELi0ELin1ELi1EEEEESA_EELi0EEC1Ev
000000000035f058 W _ZN5Eigen15DenseCoeffsBaseINS_13CwiseBinaryOpINS_8internal17scalar_product_opIddEEKNS_14CwiseNullaryOpINS2_18scalar_constant_opIdEEKNS_6MatrixIdLin1ELi1ELi0ELin1ELi1EEEEESA_EELi0EEC2Ev
00000000003f409e W _ZN5Eigen15DenseCoeffsBaseINS_13CwiseBinaryOpINS_8internal17scalar_product_opIddEEKNS_6MatrixIdLi3ELi1ELi0ELi3ELi1EEES7_EELi0EEC1Ev
00000000003f409e W _ZN5Eigen15DenseCoeffsBaseINS_13CwiseBinaryOpINS_8internal17scalar_product_opIddEEKNS_6MatrixIdLi3ELi1ELi0ELi3ELi1EEES7_EELi0EEC2Ev
000000000035413a W _ZN5Eigen15DenseCoeffsBaseINS_13CwiseBinaryOpINS_8internal17scalar_product_opIddEEKNS_9TransposeIKNS_5BlockIKNS_6MatrixIdLi3ELi3ELi0ELi3ELi3EEELi1ELi3ELb0EEEEEKNS6_IKNS7_IdLi3ELi1ELi0ELi3ELi1EEELi3ELi1ELb1EEEEELi0EEC1Ev
000000000035413a W _ZN5Eigen15DenseCoeffsBaseINS_13CwiseBinaryOpINS_8internal17scalar_product_opIddEEKNS_9TransposeIKNS_5BlockIKNS_6MatrixIdLi3ELi3ELi0ELi3ELi3EEELi1ELi3ELb0EEEEEKNS6_IKNS7_IdLi3ELi1ELi0ELi3ELi1EEELi3ELi1ELb1EEEEELi0EEC2Ev
00000000003a7830 W _ZN5Eigen15DenseCoeffsBaseINS_13CwiseBinaryOpINS_8internal17scalar_product_opIddEEKNS_9TransposeIKNS_5BlockIKNS_6MatrixIdLin1ELi3ELi0ELin1ELi3EEELi1ELi3ELb0EEEEEKNS6_IKNS7_IdLi3ELi1ELi0ELi3ELi1EEELi3ELi1ELb1EEEEELi0EEC1Ev
00000000003a7830 W _ZN5Eigen15DenseCoeffsBaseINS_13CwiseBinaryOpINS_8internal17scalar_product_opIddEEKNS_9TransposeIKNS_5BlockIKNS_6MatrixIdLin1ELi3ELi0ELin1ELi3EEELi1ELi3ELb0EEEEEKNS6_IKNS7_IdLi3ELi1ELi0ELi3ELi1EEELi3ELi1ELb1EEEEELi0EEC2Ev
00000000003bb048 W _ZN5Eigen15DenseCoeffsBaseINS_13CwiseBinaryOpINS_8internal17scalar_product_opIddEEKNS_9TransposeIKNS5_INS_6MatrixIdLi3ELi1ELi0ELi3ELi1EEEEEEEKNS1_INS2_13scalar_sum_opIddEEKS7_KNS1_IS4_KNS_14CwiseNullaryOpINS2_18scalar_constant_opIdEESE_EESE_EEEEEELi0EEC1Ev
00000000003bb048 W _ZN5Eigen15DenseCoeffsBaseINS_13CwiseBinaryOpINS_8internal17scalar_product_opIddEEKNS_9TransposeIKNS5_INS_6MatrixIdLi3ELi1ELi0ELi3ELi1EEEEEEEKNS1_INS2_13scalar_sum_opIddEEKS7_KNS1_IS4_KNS_14CwiseNullaryOpINS2_18scalar_constant_opIdEESE_EESE_EEEEEELi0EEC2Ev
00000000003baf10 W _ZN5Eigen15DenseCoeffsBaseINS_13CwiseBinaryOpINS_8internal17scalar_product_opIddEEKNS_9TransposeIKNS5_INS_6MatrixIdLi3ELi1ELi0ELi3ELi1EEEEEEEKNS1_INS2_20scalar_difference_opIddEEKS7_KNS1_IS4_KNS_14CwiseNullaryOpINS2_18scalar_constant_opIdEESE_EESE_EEEEEELi0EEC1Ev
00000000003baf10 W _ZN5Eigen15DenseCoeffsBaseINS_13CwiseBinaryOpINS_8internal17scalar_product_opIddEEKNS_9TransposeIKNS5_INS_6MatrixIdLi3ELi1ELi0ELi3ELi1EEEEEEEKNS1_INS2_20scalar_difference_opIddEEKS7_KNS1_IS4_KNS_14CwiseNullaryOpINS2_18scalar_constant_opIdEESE_EESE_EEEEEELi0EEC2Ev
00000000003badd8 W _ZN5Eigen15DenseCoeffsBaseINS_13CwiseBinaryOpINS_8internal17scalar_product_opIddEEKNS_9TransposeIKNS5_INS_6MatrixIdLi3ELi1ELi0ELi3ELi1EEEEEEEKS7_EELi0EEC1Ev
00000000003badd8 W _ZN5Eigen15DenseCoeffsBaseINS_13CwiseBinaryOpINS_8internal17scalar_product_opIddEEKNS_9TransposeIKNS5_INS_6MatrixIdLi3ELi1ELi0ELi3ELi1EEEEEEEKS7_EELi0EEC2Ev
00000000003dc436 W _ZN5Eigen15DenseCoeffsBaseINS_13CwiseBinaryOpINS_8internal17scalar_product_opIddEEKNS_9TransposeIKNS_7ProductINS1_IS4_KNS_14CwiseNullaryOpINS2_18scalar_constant_opIdEEKNS_6MatrixIdLi1ELin1ELi1ELi1ELin1EEEEEKNS5_IKNS1_INS2_20scalar_difference_opIddEEKNSA_IdLin1ELi1ELi0ELin1ELi1EEESI_EEEEEENS_15DiagonalWrapperISI_EELi1EEEEESK_EELi0EEC1Ev
00000000003dc436 W _ZN5Eigen15DenseCoeffsBaseINS_13CwiseBinaryOpINS_8internal17scalar_product_opIddEEKNS_9TransposeIKNS_7ProductINS1_IS4_KNS_14CwiseNullaryOpINS2_18scalar_constant_opIdEEKNS_6MatrixIdLi1ELin1ELi1ELi1ELin1EEEEEKNS5_IKNS1_INS2_20scalar_difference_opIddEEKNSA_IdLin1ELi1ELi0ELin1ELi1EEESI_EEEEEENS_15DiagonalWrapperISI_EELi1EEEEESK_EELi0EEC2Ev
0000000000402104 W _ZN5Eigen15DenseCoeffsBaseINS_13CwiseBinaryOpINS_8internal18scalar_quotient_opIddEEKNS_12CwiseUnaryOpINS2_18scalar_opposite_opIdEEKNS1_INS2_13scalar_sum_opIddEEKNS1_INS2_17scalar_product_opIddEEKNS_14CwiseNullaryOpINS2_18scalar_constant_opIdEEKNS_6MatrixIdLin1ELi1ELi0ELin1ELi1EEEEEKNS1_INS2_20scalar_difference_opIddEESH_SH_EEEEKNS1_ISB_SJ_KNS1_IS9_KNS1_ISB_SJ_SH_EESH_EEEEEEEESJ_EELi0EEC1Ev
0000000000402104 W _ZN5Eigen15DenseCoeffsBaseINS_13CwiseBinaryOpINS_8internal18scalar_quotient_opIddEEKNS_12CwiseUnaryOpINS2_18scalar_opposite_opIdEEKNS1_INS2_13scalar_sum_opIddEEKNS1_INS2_17scalar_product_opIddEEKNS_14CwiseNullaryOpINS2_18scalar_constant_opIdEEKNS_6MatrixIdLin1ELi1ELi0ELin1ELi1EEEEEKNS1_INS2_20scalar_difference_opIddEESH_SH_EEEEKNS1_ISB_SJ_KNS1_IS9_KNS1_ISB_SJ_SH_EESH_EEEEEEEESJ_EELi0EEC2Ev
0000000000402246 W _ZN5Eigen15DenseCoeffsBaseINS_13CwiseBinaryOpINS_8internal18scalar_quotient_opIddEEKNS1_INS2_13scalar_sum_opIddEEKNS1_INS2_17scalar_product_opIddEEKNS_14CwiseNullaryOpINS2_18scalar_constant_opIdEEKNS_6MatrixIdLin1ELi1ELi0ELin1ELi1EEEEEKNS1_INS2_20scalar_difference_opIddEESE_SE_EEEEKNS1_IS8_SG_KNS1_IS6_SE_SE_EEEEEESG_EELi0EEC1Ev
0000000000402246 W _ZN5Eigen15DenseCoeffsBaseINS_13CwiseBinaryOpINS_8internal18scalar_quotient_opIddEEKNS1_INS2_13scalar_sum_opIddEEKNS1_INS2_17scalar_product_opIddEEKNS_14CwiseNullaryOpINS2_18scalar_constant_opIdEEKNS_6MatrixIdLin1ELi1ELi0ELin1ELi1EEEEEKNS1_INS2_20scalar_difference_opIddEESE_SE_EEEEKNS1_IS8_SG_KNS1_IS6_SE_SE_EEEEEESG_EELi0EEC2Ev
0000000000402300 W _ZN5Eigen15DenseCoeffsBaseINS_13CwiseBinaryOpINS_8internal18scalar_quotient_opIddEEKNS1_INS2_17scalar_product_opIddEEKNS_14CwiseNullaryOpINS2_18scalar_constant_opIdEEKNS_6MatrixIdLin1ELi1ELi0ELin1ELi1EEEEEKNS1_INS2_13scalar_sum_opIddEEKNS1_IS6_SE_SC_EESC_EEEESE_EELi0EEC1Ev
0000000000402300 W _ZN5Eigen15DenseCoeffsBaseINS_13CwiseBinaryOpINS_8internal18scalar_quotient_opIddEEKNS1_INS2_17scalar_product_opIddEEKNS_14CwiseNullaryOpINS2_18scalar_constant_opIdEEKNS_6MatrixIdLin1ELi1ELi0ELin1ELi1EEEEEKNS1_INS2_13scalar_sum_opIddEEKNS1_IS6_SE_SC_EESC_EEEESE_EELi0EEC2Ev
0000000000402498 W _ZN5Eigen15DenseCoeffsBaseINS_13CwiseBinaryOpINS_8internal18scalar_quotient_opIddEEKNS1_INS2_17scalar_product_opIddEEKNS_14CwiseNullaryOpINS2_18scalar_constant_opIdEEKNS_6MatrixIdLin1ELi1ELi0ELin1ELi1EEEEEKNS1_INS2_13scalar_sum_opIddEEKNS1_ISG_KNS1_INS2_20scalar_difference_opIddEEKNS1_IS6_SE_SC_EESK_EESK_EESK_EEEESE_EELi0EEC1Ev
0000000000402498 W _ZN5Eigen15DenseCoeffsBaseINS_13CwiseBinaryOpINS_8internal18scalar_quotient_opIddEEKNS1_INS2_17scalar_product_opIddEEKNS_14CwiseNullaryOpINS2_18scalar_constant_opIdEEKNS_6MatrixIdLin1ELi1ELi0ELin1ELi1EEEEEKNS1_INS2_13scalar_sum_opIddEEKNS1_ISG_KNS1_INS2_20scalar_difference_opIddEEKNS1_IS6_SE_SC_EESK_EESK_EESK_EEEESE_EELi0EEC2Ev
00000000004022bc W _ZN5Eigen15DenseCoeffsBaseINS_13CwiseBinaryOpINS_8internal18scalar_quotient_opIddEEKNS1_INS2_17scalar_product_opIddEEKNS_14CwiseNullaryOpINS2_18scalar_constant_opIdEEKNS_6MatrixIdLin1ELi1ELi0ELin1ELi1EEEEEKNS1_INS2_13scalar_sum_opIddEESC_SC_EEEESE_EELi0EEC1Ev
00000000004022bc W _ZN5Eigen15DenseCoeffsBaseINS_13CwiseBinaryOpINS_8internal18scalar_quotient_opIddEEKNS1_INS2_17scalar_product_opIddEEKNS_14CwiseNullaryOpINS2_18scalar_constant_opIdEEKNS_6MatrixIdLin1ELi1ELi0ELin1ELi1EEEEEKNS1_INS2_13scalar_sum_opIddEESC_SC_EEEESE_EELi0EEC2Ev
00000000003b3b34 W _ZN5Eigen15DenseCoeffsBaseINS_13CwiseBinaryOpINS_8internal18scalar_quotient_opIddEEKNS_6MatrixIdLi2ELi1ELi0ELi2ELi1EEEKNS_14CwiseNullaryOpINS2_18scalar_constant_opIdEES7_EEEELi0EEC1Ev
00000000003b3b34 W _ZN5Eigen15DenseCoeffsBaseINS_13CwiseBinaryOpINS_8internal18scalar_quotient_opIddEEKNS_6MatrixIdLi2ELi1ELi0ELi2ELi1EEEKNS_14CwiseNullaryOpINS2_18scalar_constant_opIdEES7_EEEELi0EEC2Ev
00000000003f501c W _ZN5Eigen15DenseCoeffsBaseINS_13CwiseBinaryOpINS_8internal18scalar_quotient_opIddEEKNS_6MatrixIdLi3ELi1ELi0ELi3ELi1EEEKNS_14CwiseNullaryOpINS2_18scalar_constant_opIdEES7_EEEELi0EEC1Ev
00000000003f501c W _ZN5Eigen15DenseCoeffsBaseINS_13CwiseBinaryOpINS_8internal18scalar_quotient_opIddEEKNS_6MatrixIdLi3ELi1ELi0ELi3ELi1EEEKNS_14CwiseNullaryOpINS2_18scalar_constant_opIdEES7_EEEELi0EEC2Ev
000000000035efa2 W _ZN5Eigen15DenseCoeffsBaseINS_13CwiseBinaryOpINS_8internal18scalar_quotient_opIddEEKNS_6MatrixIdLin1ELi1ELi0ELin1ELi1EEEKNS_14CwiseNullaryOpINS2_18scalar_constant_opIdEES7_EEEELi0EEC1Ev
000000000035efa2 W _ZN5Eigen15DenseCoeffsBaseINS_13CwiseBinaryOpINS_8internal18scalar_quotient_opIddEEKNS_6MatrixIdLin1ELi1ELi0ELin1ELi1EEEKNS_14CwiseNullaryOpINS2_18scalar_constant_opIdEES7_EEEELi0EEC2Ev
00000000003928ba W _ZN5Eigen15DenseCoeffsBaseINS_13CwiseBinaryOpINS_8internal20scalar_difference_opIddEEKNS1_INS2_13scalar_sum_opIddEEKNS_7ProductINS_12SparseMatrixIdLi1EiEENS_6MatrixIdLi3ELi1ELi0ELi3ELi1EEELi0EEEKNS7_IS9_SC_Li0EEEEEKSB_EELi0EEC1Ev
00000000003928ba W _ZN5Eigen15DenseCoeffsBaseINS_13CwiseBinaryOpINS_8internal20scalar_difference_opIddEEKNS1_INS2_13scalar_sum_opIddEEKNS_7ProductINS_12SparseMatrixIdLi1EiEENS_6MatrixIdLi3ELi1ELi0ELi3ELi1EEELi0EEEKNS7_IS9_SC_Li0EEEEEKSB_EELi0EEC2Ev
00000000003f43ae W _ZN5Eigen15DenseCoeffsBaseINS_13CwiseBinaryOpINS_8internal20scalar_difference_opIddEEKNS1_INS2_17scalar_product_opIddEEKNS_14CwiseNullaryOpINS2_18scalar_constant_opIdEEKNS_6MatrixIdLi3ELi1ELi0ELi3ELi1EEEEEKNS_5BlockIKNS7_INS2_18scalar_identity_opIdEENSA_IdLi3ELi3ELi0ELi3ELi3EEEEELi3ELi1ELb0EEEEEKNS1_IS6_SE_SC_EEEELi0EEC1Ev
00000000003f43ae W _ZN5Eigen15DenseCoeffsBaseINS_13CwiseBinaryOpINS_8internal20scalar_difference_opIddEEKNS1_INS2_17scalar_product_opIddEEKNS_14CwiseNullaryOpINS2_18scalar_constant_opIdEEKNS_6MatrixIdLi3ELi1ELi0ELi3ELi1EEEEEKNS_5BlockIKNS7_INS2_18scalar_identity_opIdEENSA_IdLi3ELi3ELi0ELi3ELi3EEEEELi3ELi1ELb0EEEEEKNS1_IS6_SE_SC_EEEELi0EEC2Ev
00000000003929bc W _ZN5Eigen15DenseCoeffsBaseINS_13CwiseBinaryOpINS_8internal20scalar_difference_opIddEEKNS1_INS2_17scalar_product_opIddEEKNS_14CwiseNullaryOpINS2_18scalar_constant_opIdEEKNS_6MatrixIdLi3ELi1ELi0ELi3ELi1EEEEESC_EESC_EELi0EEC1Ev
00000000003929bc W _ZN5Eigen15DenseCoeffsBaseINS_13CwiseBinaryOpINS_8internal20scalar_difference_opIddEEKNS1_INS2_17scalar_product_opIddEEKNS_14CwiseNullaryOpINS2_18scalar_constant_opIdEEKNS_6MatrixIdLi3ELi1ELi0ELi3ELi1EEEEESC_EESC_EELi0EEC2Ev
0000000000402388 W _ZN5Eigen15DenseCoeffsBaseINS_13CwiseBinaryOpINS_8internal20scalar_difference_opIddEEKNS1_INS2_17scalar_product_opIddEEKNS_14CwiseNullaryOpINS2_18scalar_constant_opIdEEKNS_6MatrixIdLin1ELi1ELi0ELin1ELi1EEEEESC_EESG_EELi0EEC1Ev
0000000000402388 W _ZN5Eigen15DenseCoeffsBaseINS_13CwiseBinaryOpINS_8internal20scalar_difference_opIddEEKNS1_INS2_17scalar_product_opIddEEKNS_14CwiseNullaryOpINS2_18scalar_constant_opIdEEKNS_6MatrixIdLin1ELi1ELi0ELin1ELi1EEEEESC_EESG_EELi0EEC2Ev
0000000000402344 W _ZN5Eigen15DenseCoeffsBaseINS_13CwiseBinaryOpINS_8internal20scalar_difference_opIddEEKNS1_INS2_18scalar_quotient_opIddEEKNS1_INS2_17scalar_product_opIddEEKNS_14CwiseNullaryOpINS2_18scalar_constant_opIdEEKNS_6MatrixIdLin1ELi1ELi0ELin1ELi1EEEEEKNS1_INS2_13scalar_sum_opIddEESE_SE_EEEESG_EEKNS1_IS6_KNS1_IS8_SG_KNS1_ISI_KNS1_IS8_SG_SE_EESE_EEEESG_EEEELi0EEC1Ev
0000000000402344 W _ZN5Eigen15DenseCoeffsBaseINS_13CwiseBinaryOpINS_8internal20scalar_difference_opIddEEKNS1_INS2_18scalar_quotient_opIddEEKNS1_INS2_17scalar_product_opIddEEKNS_14CwiseNullaryOpINS2_18scalar_constant_opIdEEKNS_6MatrixIdLin1ELi1ELi0ELin1ELi1EEEEEKNS1_INS2_13scalar_sum_opIddEESE_SE_EEEESG_EEKNS1_IS6_KNS1_IS8_SG_KNS1_ISI_KNS1_IS8_SG_SE_EESE_EEEESG_EEEELi0EEC2Ev
0000000000392a00 W _ZN5Eigen15DenseCoeffsBaseINS_13CwiseBinaryOpINS_8internal20scalar_difference_opIddEEKNS1_IS4_KNS1_INS2_17scalar_product_opIddEEKNS_14CwiseNullaryOpINS2_18scalar_constant_opIdEEKNS_6MatrixIdLi3ELi1ELi0ELi3ELi1EEEEESC_EESC_EESC_EELi0EEC1Ev
0000000000392a00 W _ZN5Eigen15DenseCoeffsBaseINS_13CwiseBinaryOpINS_8internal20scalar_difference_opIddEEKNS1_IS4_KNS1_INS2_17scalar_product_opIddEEKNS_14CwiseNullaryOpINS2_18scalar_constant_opIdEEKNS_6MatrixIdLi3ELi1ELi0ELi3ELi1EEEEESC_EESC_EESC_EELi0EEC2Ev
00000000004024dc W _ZN5Eigen15DenseCoeffsBaseINS_13CwiseBinaryOpINS_8internal20scalar_difference_opIddEEKNS1_IS4_KNS1_INS2_18scalar_quotient_opIddEEKNS1_INS2_17scalar_product_opIddEEKNS_14CwiseNullaryOpINS2_18scalar_constant_opIdEEKNS_6MatrixIdLin1ELi1ELi0ELin1ELi1EEEEEKNS1_INS2_13scalar_sum_opIddEESE_SE_EEEESG_EEKNS1_IS6_KNS1_IS8_SG_KNS1_ISI_KNS1_IS8_SG_SE_EESE_EEEESG_EEEEKNS1_IS6_KNS1_IS8_SG_KNS1_ISI_KNS1_ISI_KNS1_IS4_SQ_SQ_EESQ_EESQ_EEEESG_EEEELi0EEC1Ev
00000000004024dc W _ZN5Eigen15DenseCoeffsBaseINS_13CwiseBinaryOpINS_8internal20scalar_difference_opIddEEKNS1_IS4_KNS1_INS2_18scalar_quotient_opIddEEKNS1_INS2_17scalar_product_opIddEEKNS_14CwiseNullaryOpINS2_18scalar_constant_opIdEEKNS_6MatrixIdLin1ELi1ELi0ELin1ELi1EEEEEKNS1_INS2_13scalar_sum_opIddEESE_SE_EEEESG_EEKNS1_IS6_KNS1_IS8_SG_KNS1_ISI_KNS1_IS8_SG_SE_EESE_EEEESG_EEEEKNS1_IS6_KNS1_IS8_SG_KNS1_ISI_KNS1_ISI_KNS1_IS4_SQ_SQ_EESQ_EESQ_EEEESG_EEEELi0EEC2Ev
00000000003b3936 W _ZN5Eigen15DenseCoeffsBaseINS_13CwiseBinaryOpINS_8internal20scalar_difference_opIddEEKNS_6MatrixIdLi2ELi1ELi0ELi2ELi1EEES7_EELi0EEC1Ev
00000000003b3936 W _ZN5Eigen15DenseCoeffsBaseINS_13CwiseBinaryOpINS_8internal20scalar_difference_opIddEEKNS_6MatrixIdLi2ELi1ELi0ELi2ELi1EEES7_EELi0EEC2Ev
00000000003b94ba W _ZN5Eigen15DenseCoeffsBaseINS_13CwiseBinaryOpINS_8internal20scalar_difference_opIddEEKNS_6MatrixIdLi3ELi1ELi0ELi3ELi1EEEKNS1_INS2_17scalar_product_opIddEEKNS_14CwiseNullaryOpINS2_18scalar_constant_opIdEES7_EES7_EEEELi0EEC1Ev
00000000003b94ba W _ZN5Eigen15DenseCoeffsBaseINS_13CwiseBinaryOpINS_8internal20scalar_difference_opIddEEKNS_6MatrixIdLi3ELi1ELi0ELi3ELi1EEEKNS1_INS2_17scalar_product_opIddEEKNS_14CwiseNullaryOpINS2_18scalar_constant_opIdEES7_EES7_EEEELi0EEC2Ev
00000000003921ca W _ZN5Eigen15DenseCoeffsBaseINS_13CwiseBinaryOpINS_8internal20scalar_difference_opIddEEKNS_6MatrixIdLi3ELi1ELi0ELi3ELi1EEES7_EELi0EEC1Ev
00000000003921ca W _ZN5Eigen15DenseCoeffsBaseINS_13CwiseBinaryOpINS_8internal20scalar_difference_opIddEEKNS_6MatrixIdLi3ELi1ELi0ELi3ELi1EEES7_EELi0EEC2Ev
000000000040b87c W _ZN5Eigen15DenseCoeffsBaseINS_13CwiseBinaryOpINS_8internal20scalar_difference_opIddEEKNS_6MatrixIdLin1ELi1ELi0ELin1ELi1EEEKNS1_INS2_17scalar_product_opIddEEKNS_14CwiseNullaryOpINS2_18scalar_constant_opIdEES7_EES7_EEEELi0EEC1Ev
000000000040b87c W _ZN5Eigen15DenseCoeffsBaseINS_13CwiseBinaryOpINS_8internal20scalar_difference_opIddEEKNS_6MatrixIdLin1ELi1ELi0ELin1ELi1EEEKNS1_INS2_17scalar_product_opIddEEKNS_14CwiseNullaryOpINS2_18scalar_constant_opIdEES7_EES7_EEEELi0EEC2Ev
000000000035eea8 W _ZN5Eigen15DenseCoeffsBaseINS_13CwiseBinaryOpINS_8internal20scalar_difference_opIddEEKNS_6MatrixIdLin1ELi1ELi0ELin1ELi1EEES7_EELi0EEC1Ev
000000000035eea8 W _ZN5Eigen15DenseCoeffsBaseINS_13CwiseBinaryOpINS_8internal20scalar_difference_opIddEEKNS_6MatrixIdLin1ELi1ELi0ELin1ELi1EEES7_EELi0EEC2Ev
00000000003aa1f4 W _ZN5Eigen15DenseCoeffsBaseINS_14CwiseNullaryOpINS_8internal18scalar_constant_opIdEEKNS_6MatrixIdLi1ELi3ELi1ELi1ELi3EEEEELi0EEC1Ev
00000000003aa1f4 W _ZN5Eigen15DenseCoeffsBaseINS_14CwiseNullaryOpINS_8internal18scalar_constant_opIdEEKNS_6MatrixIdLi1ELi3ELi1ELi1ELi3EEEEELi0EEC2Ev
00000000003da77c W _ZN5Eigen15DenseCoeffsBaseINS_14CwiseNullaryOpINS_8internal18scalar_constant_opIdEEKNS_6MatrixIdLi1ELin1ELi1ELi1ELin1EEEEELi0EEC1Ev
00000000003da77c W _ZN5Eigen15DenseCoeffsBaseINS_14CwiseNullaryOpINS_8internal18scalar_constant_opIdEEKNS_6MatrixIdLi1ELin1ELi1ELi1ELin1EEEEELi0EEC2Ev
00000000003b39ec W _ZN5Eigen15DenseCoeffsBaseINS_14CwiseNullaryOpINS_8internal18scalar_constant_opIdEEKNS_6MatrixIdLi2ELi1ELi0ELi2ELi1EEEEELi0EEC1Ev
00000000003b39ec W _ZN5Eigen15DenseCoeffsBaseINS_14CwiseNullaryOpINS_8internal18scalar_constant_opIdEEKNS_6MatrixIdLi2ELi1ELi0ELi2ELi1EEEEELi0EEC2Ev
0000000000392934 W _ZN5Eigen15DenseCoeffsBaseINS_14CwiseNullaryOpINS_8internal18scalar_constant_opIdEEKNS_6MatrixIdLi3ELi1ELi0ELi3ELi1EEEEELi0EEC1Ev
0000000000392934 W _ZN5Eigen15DenseCoeffsBaseINS_14CwiseNullaryOpINS_8internal18scalar_constant_opIdEEKNS_6MatrixIdLi3ELi1ELi0ELi3ELi1EEEEELi0EEC2Ev
000000000035ef5e W _ZN5Eigen15DenseCoeffsBaseINS_14CwiseNullaryOpINS_8internal18scalar_constant_opIdEEKNS_6MatrixIdLin1ELi1ELi0ELin1ELi1EEEEELi0EEC1Ev
000000000035ef5e W _ZN5Eigen15DenseCoeffsBaseINS_14CwiseNullaryOpINS_8internal18scalar_constant_opIdEEKNS_6MatrixIdLin1ELi1ELi0ELin1ELi1EEEEELi0EEC2Ev
0000000000393332 W _ZN5Eigen15DenseCoeffsBaseINS_14CwiseNullaryOpINS_8internal18scalar_constant_opIdEEKNS_6MatrixIdLin1ELin1ELi1ELin1ELin1EEEEELi0EEC1Ev
0000000000393332 W _ZN5Eigen15DenseCoeffsBaseINS_14CwiseNullaryOpINS_8internal18scalar_constant_opIdEEKNS_6MatrixIdLin1ELin1ELi1ELin1ELin1EEEEELi0EEC2Ev
000000000037c700 W _ZN5Eigen15DenseCoeffsBaseINS_14CwiseNullaryOpINS_8internal18scalar_constant_opIdEENS_6MatrixIdLi3ELi1ELi0ELi3ELi1EEEEELi0EEC1Ev
000000000037c700 W _ZN5Eigen15DenseCoeffsBaseINS_14CwiseNullaryOpINS_8internal18scalar_constant_opIdEENS_6MatrixIdLi3ELi1ELi0ELi3ELi1EEEEELi0EEC2Ev
0000000000352872 W _ZN5Eigen15DenseCoeffsBaseINS_14CwiseNullaryOpINS_8internal18scalar_constant_opIdEENS_6MatrixIdLi3ELi3ELi0ELi3ELi3EEEEELi0EEC1Ev
0000000000352872 W _ZN5Eigen15DenseCoeffsBaseINS_14CwiseNullaryOpINS_8internal18scalar_constant_opIdEENS_6MatrixIdLi3ELi3ELi0ELi3ELi3EEEEELi0EEC2Ev
0000000000369cd4 W _ZN5Eigen15DenseCoeffsBaseINS_14CwiseNullaryOpINS_8internal18scalar_constant_opIdEENS_6MatrixIdLin1ELi1ELi0ELin1ELi1EEEEELi0EEC1Ev
0000000000369cd4 W _ZN5Eigen15DenseCoeffsBaseINS_14CwiseNullaryOpINS_8internal18scalar_constant_opIdEENS_6MatrixIdLin1ELi1ELi0ELin1ELi1EEEEELi0EEC2Ev
00000000003a9eba W _ZN5Eigen15DenseCoeffsBaseINS_14CwiseNullaryOpINS_8internal18scalar_constant_opIdEENS_6MatrixIdLin1ELi3ELi0ELin1ELi3EEEEELi0EEC1Ev
00000000003a9eba W _ZN5Eigen15DenseCoeffsBaseINS_14CwiseNullaryOpINS_8internal18scalar_constant_opIdEENS_6MatrixIdLin1ELi3ELi0ELin1ELi3EEEEELi0EEC2Ev
0000000000370878 W _ZN5Eigen15DenseCoeffsBaseINS_14CwiseNullaryOpINS_8internal18scalar_constant_opIdEENS_6MatrixIdLin1ELin1ELi0ELin1ELin1EEEEELi0EEC1Ev
0000000000370878 W _ZN5Eigen15DenseCoeffsBaseINS_14CwiseNullaryOpINS_8internal18scalar_constant_opIdEENS_6MatrixIdLin1ELin1ELi0ELin1ELin1EEEEELi0EEC2Ev
00000000003993c2 W _ZN5Eigen15DenseCoeffsBaseINS_14CwiseNullaryOpINS_8internal18scalar_constant_opIiEENS_5ArrayIiLin1ELi1ELi0ELin1ELi1EEEEELi0EEC1Ev
00000000003993c2 W _ZN5Eigen15DenseCoeffsBaseINS_14CwiseNullaryOpINS_8internal18scalar_constant_opIiEENS_5ArrayIiLin1ELi1ELi0ELin1ELi1EEEEELi0EEC2Ev
00000000003728da W _ZN5Eigen15DenseCoeffsBaseINS_14CwiseNullaryOpINS_8internal18scalar_constant_opIiEENS_6MatrixIiLin1ELi1ELi0ELin1ELi1EEEEELi0EEC1Ev
00000000003728da W _ZN5Eigen15DenseCoeffsBaseINS_14CwiseNullaryOpINS_8internal18scalar_constant_opIiEENS_6MatrixIiLin1ELi1ELi0ELin1ELi1EEEEELi0EEC2Ev
00000000003a006c W _ZN5Eigen15DenseCoeffsBaseINS_14CwiseNullaryOpINS_8internal18scalar_constant_opIlEENS_6MatrixIlLin1ELi1ELi0ELin1ELi1EEEEELi0EEC1Ev
00000000003a006c W _ZN5Eigen15DenseCoeffsBaseINS_14CwiseNullaryOpINS_8internal18scalar_constant_opIlEENS_6MatrixIlLin1ELi1ELi0ELin1ELi1EEEEELi0EEC2Ev
0000000000381fde W _ZN5Eigen15DenseCoeffsBaseINS_14CwiseNullaryOpINS_8internal18scalar_identity_opIdEENS_6MatrixIdLi3ELi3ELi0ELi3ELi3EEEEELi0EEC1Ev
0000000000381fde W _ZN5Eigen15DenseCoeffsBaseINS_14CwiseNullaryOpINS_8internal18scalar_identity_opIdEENS_6MatrixIdLi3ELi3ELi0ELi3ELi3EEEEELi0EEC2Ev
00000000003cc9e6 W _ZN5Eigen15DenseCoeffsBaseINS_16PartialReduxExprINS_6MatrixIdLi3ELi3ELi0ELi3ELi3EEENS_8internal10member_sumIdEELi1EEELi0EEC1Ev
00000000003cc9e6 W _ZN5Eigen15DenseCoeffsBaseINS_16PartialReduxExprINS_6MatrixIdLi3ELi3ELi0ELi3ELi3EEENS_8internal10member_sumIdEELi1EEELi0EEC2Ev
000000000039bada W _ZN5Eigen15DenseCoeffsBaseINS_3MapIKNS_6MatrixIiLin1ELi1ELi0ELin1ELi1EEELi0ENS_6StrideILi0ELi0EEEEELi0EEC1Ev
000000000039bada W _ZN5Eigen15DenseCoeffsBaseINS_3MapIKNS_6MatrixIiLin1ELi1ELi0ELin1ELi1EEELi0ENS_6StrideILi0ELi0EEEEELi0EEC2Ev
000000000039baf6 W _ZN5Eigen15DenseCoeffsBaseINS_3MapIKNS_6MatrixIiLin1ELi1ELi0ELin1ELi1EEELi0ENS_6StrideILi0ELi0EEEEELi2EEC1Ev
000000000039baf6 W _ZN5Eigen15DenseCoeffsBaseINS_3MapIKNS_6MatrixIiLin1ELi1ELi0ELin1ELi1EEELi0ENS_6StrideILi0ELi0EEEEELi2EEC2Ev
000000000039e45c W _ZN5Eigen15DenseCoeffsBaseINS_3MapIKNS_6MatrixIlLin1ELi1ELi0ELin1ELi1EEELi0ENS_6StrideILi0ELi0EEEEELi0EEC1Ev
000000000039e45c W _ZN5Eigen15DenseCoeffsBaseINS_3MapIKNS_6MatrixIlLin1ELi1ELi0ELin1ELi1EEELi0ENS_6StrideILi0ELi0EEEEELi0EEC2Ev
000000000039e478 W _ZN5Eigen15DenseCoeffsBaseINS_3MapIKNS_6MatrixIlLin1ELi1ELi0ELin1ELi1EEELi0ENS_6StrideILi0ELi0EEEEELi2EEC1Ev
000000000039e478 W _ZN5Eigen15DenseCoeffsBaseINS_3MapIKNS_6MatrixIlLin1ELi1ELi0ELin1ELi1EEELi0ENS_6StrideILi0ELi0EEEEELi2EEC2Ev
0000000000371c12 W _ZN5Eigen15DenseCoeffsBaseINS_3MapINS_6MatrixIiLin1ELi1ELi0ELin1ELi1EEELi0ENS_6StrideILi0ELi0EEEEELi0EEC1Ev
0000000000371c12 W _ZN5Eigen15DenseCoeffsBaseINS_3MapINS_6MatrixIiLin1ELi1ELi0ELin1ELi1EEELi0ENS_6StrideILi0ELi0EEEEELi0EEC2Ev
0000000000371c2e W _ZN5Eigen15DenseCoeffsBaseINS_3MapINS_6MatrixIiLin1ELi1ELi0ELin1ELi1EEELi0ENS_6StrideILi0ELi0EEEEELi1EEC1Ev
0000000000371c2e W _ZN5Eigen15DenseCoeffsBaseINS_3MapINS_6MatrixIiLin1ELi1ELi0ELin1ELi1EEELi0ENS_6StrideILi0ELi0EEEEELi1EEC2Ev
0000000000371c4a W _ZN5Eigen15DenseCoeffsBaseINS_3MapINS_6MatrixIiLin1ELi1ELi0ELin1ELi1EEELi0ENS_6StrideILi0ELi0EEEEELi3EEC1Ev
0000000000371c4a W _ZN5Eigen15DenseCoeffsBaseINS_3MapINS_6MatrixIiLin1ELi1ELi0ELin1ELi1EEELi0ENS_6StrideILi0ELi0EEEEELi3EEC2Ev
000000000039e0ca W _ZN5Eigen15DenseCoeffsBaseINS_3MapINS_6MatrixIlLin1ELi1ELi0ELin1ELi1EEELi0ENS_6StrideILi0ELi0EEEEELi0EEC1Ev
000000000039e0ca W _ZN5Eigen15DenseCoeffsBaseINS_3MapINS_6MatrixIlLin1ELi1ELi0ELin1ELi1EEELi0ENS_6StrideILi0ELi0EEEEELi0EEC2Ev
000000000039e0e6 W _ZN5Eigen15DenseCoeffsBaseINS_3MapINS_6MatrixIlLin1ELi1ELi0ELin1ELi1EEELi0ENS_6StrideILi0ELi0EEEEELi1EEC1Ev
000000000039e0e6 W _ZN5Eigen15DenseCoeffsBaseINS_3MapINS_6MatrixIlLin1ELi1ELi0ELin1ELi1EEELi0ENS_6StrideILi0ELi0EEEEELi1EEC2Ev
000000000039e102 W _ZN5Eigen15DenseCoeffsBaseINS_3MapINS_6MatrixIlLin1ELi1ELi0ELin1ELi1EEELi0ENS_6StrideILi0ELi0EEEEELi3EEC1Ev
000000000039e102 W _ZN5Eigen15DenseCoeffsBaseINS_3MapINS_6MatrixIlLin1ELi1ELi0ELin1ELi1EEELi0ENS_6StrideILi0ELi0EEEEELi3EEC2Ev
000000000039d1a0 W _ZN5Eigen15DenseCoeffsBaseINS_5ArrayIiLi2ELi1ELi0ELi2ELi1EEELi0EEC1Ev
000000000039d1a0 W _ZN5Eigen15DenseCoeffsBaseINS_5ArrayIiLi2ELi1ELi0ELi2ELi1EEELi0EEC2Ev
000000000039d1bc W _ZN5Eigen15DenseCoeffsBaseINS_5ArrayIiLi2ELi1ELi0ELi2ELi1EEELi1EEC1Ev
000000000039d1bc W _ZN5Eigen15DenseCoeffsBaseINS_5ArrayIiLi2ELi1ELi0ELi2ELi1EEELi1EEC2Ev
000000000039d1d8 W _ZN5Eigen15DenseCoeffsBaseINS_5ArrayIiLi2ELi1ELi0ELi2ELi1EEELi3EEC1Ev
000000000039d1d8 W _ZN5Eigen15DenseCoeffsBaseINS_5ArrayIiLi2ELi1ELi0ELi2ELi1EEELi3EEC2Ev
00000000003f67f6 W _ZN5Eigen15DenseCoeffsBaseINS_5BlockIKNS_14CwiseNullaryOpINS_8internal18scalar_identity_opIdEENS_6MatrixIdLi3ELi3ELi0ELi3ELi3EEEEELi3ELi1ELb0EEELi0EEC1Ev
00000000003f67f6 W _ZN5Eigen15DenseCoeffsBaseINS_5BlockIKNS_14CwiseNullaryOpINS_8internal18scalar_identity_opIdEENS_6MatrixIdLi3ELi3ELi0ELi3ELi3EEEEELi3ELi1ELb0EEELi0EEC2Ev
0000000000354a4e W _ZN5Eigen15DenseCoeffsBaseINS_5BlockIKNS_6MatrixIdLi3ELi1ELi0ELi3ELi1EEELi3ELi1ELb1EEELi0EEC1Ev
0000000000354a4e W _ZN5Eigen15DenseCoeffsBaseINS_5BlockIKNS_6MatrixIdLi3ELi1ELi0ELi3ELi1EEELi3ELi1ELb1EEELi0EEC2Ev
0000000000354a6a W _ZN5Eigen15DenseCoeffsBaseINS_5BlockIKNS_6MatrixIdLi3ELi1ELi0ELi3ELi1EEELi3ELi1ELb1EEELi2EEC1Ev
0000000000354a6a W _ZN5Eigen15DenseCoeffsBaseINS_5BlockIKNS_6MatrixIdLi3ELi1ELi0ELi3ELi1EEELi3ELi1ELb1EEELi2EEC2Ev
00000000003549ee W _ZN5Eigen15DenseCoeffsBaseINS_5BlockIKNS_6MatrixIdLi3ELi3ELi0ELi3ELi3EEELi1ELi3ELb0EEELi0EEC1Ev
00000000003549ee W _ZN5Eigen15DenseCoeffsBaseINS_5BlockIKNS_6MatrixIdLi3ELi3ELi0ELi3ELi3EEELi1ELi3ELb0EEELi0EEC2Ev
0000000000354a0a W _ZN5Eigen15DenseCoeffsBaseINS_5BlockIKNS_6MatrixIdLi3ELi3ELi0ELi3ELi3EEELi1ELi3ELb0EEELi2EEC1Ev
0000000000354a0a W _ZN5Eigen15DenseCoeffsBaseINS_5BlockIKNS_6MatrixIdLi3ELi3ELi0ELi3ELi3EEELi1ELi3ELb0EEELi2EEC2Ev
00000000003b4666 W _ZN5Eigen15DenseCoeffsBaseINS_5BlockIKNS_6MatrixIdLin1ELi1ELi0ELin1ELi1EEELi2ELi1ELb0EEELi0EEC1Ev
00000000003b4666 W _ZN5Eigen15DenseCoeffsBaseINS_5BlockIKNS_6MatrixIdLin1ELi1ELi0ELin1ELi1EEELi2ELi1ELb0EEELi0EEC2Ev
00000000003b4682 W _ZN5Eigen15DenseCoeffsBaseINS_5BlockIKNS_6MatrixIdLin1ELi1ELi0ELin1ELi1EEELi2ELi1ELb0EEELi2EEC1Ev
00000000003b4682 W _ZN5Eigen15DenseCoeffsBaseINS_5BlockIKNS_6MatrixIdLin1ELi1ELi0ELin1ELi1EEELi2ELi1ELb0EEELi2EEC2Ev
00000000003a9446 W _ZN5Eigen15DenseCoeffsBaseINS_5BlockIKNS_6MatrixIdLin1ELi3ELi0ELin1ELi3EEELi1ELi3ELb0EEELi0EEC1Ev
00000000003a9446 W _ZN5Eigen15DenseCoeffsBaseINS_5BlockIKNS_6MatrixIdLin1ELi3ELi0ELin1ELi3EEELi1ELi3ELb0EEELi0EEC2Ev
00000000003a9462 W _ZN5Eigen15DenseCoeffsBaseINS_5BlockIKNS_6MatrixIdLin1ELi3ELi0ELin1ELi3EEELi1ELi3ELb0EEELi2EEC1Ev
00000000003a9462 W _ZN5Eigen15DenseCoeffsBaseINS_5BlockIKNS_6MatrixIdLin1ELi3ELi0ELin1ELi3EEELi1ELi3ELb0EEELi2EEC2Ev
00000000003aafd4 W _ZN5Eigen15DenseCoeffsBaseINS_5BlockIKNS_9TransposeIKNS_6MatrixIdLi3ELi3ELi0ELi3ELi3EEEEELi1ELi3ELb1EEELi0EEC1Ev
00000000003aafd4 W _ZN5Eigen15DenseCoeffsBaseINS_5BlockIKNS_9TransposeIKNS_6MatrixIdLi3ELi3ELi0ELi3ELi3EEEEELi1ELi3ELb1EEELi0EEC2Ev
00000000003aaff0 W _ZN5Eigen15DenseCoeffsBaseINS_5BlockIKNS_9TransposeIKNS_6MatrixIdLi3ELi3ELi0ELi3ELi3EEEEELi1ELi3ELb1EEELi2EEC1Ev
00000000003aaff0 W _ZN5Eigen15DenseCoeffsBaseINS_5BlockIKNS_9TransposeIKNS_6MatrixIdLi3ELi3ELi0ELi3ELi3EEEEELi1ELi3ELb1EEELi2EEC2Ev
000000000039e704 W _ZN5Eigen15DenseCoeffsBaseINS_5BlockINS_6MatrixIdLi6ELi1ELi0ELi6ELi1EEELin1ELi1ELb0EEELi0EEC1Ev
000000000039e704 W _ZN5Eigen15DenseCoeffsBaseINS_5BlockINS_6MatrixIdLi6ELi1ELi0ELi6ELi1EEELin1ELi1ELb0EEELi0EEC2Ev
000000000039e720 W _ZN5Eigen15DenseCoeffsBaseINS_5BlockINS_6MatrixIdLi6ELi1ELi0ELi6ELi1EEELin1ELi1ELb0EEELi1EEC1Ev
000000000039e720 W _ZN5Eigen15DenseCoeffsBaseINS_5BlockINS_6MatrixIdLi6ELi1ELi0ELi6ELi1EEELin1ELi1ELb0EEELi1EEC2Ev
000000000039e73c W _ZN5Eigen15DenseCoeffsBaseINS_5BlockINS_6MatrixIdLi6ELi1ELi0ELi6ELi1EEELin1ELi1ELb0EEELi3EEC1Ev
000000000039e73c W _ZN5Eigen15DenseCoeffsBaseINS_5BlockINS_6MatrixIdLi6ELi1ELi0ELi6ELi1EEELin1ELi1ELb0EEELi3EEC2Ev
00000000003af5e8 W _ZN5Eigen15DenseCoeffsBaseINS_5BlockINS_6MatrixIdLin1ELi1ELi0ELin1ELi1EEELin1ELi1ELb0EEELi0EEC1Ev
00000000003af5e8 W _ZN5Eigen15DenseCoeffsBaseINS_5BlockINS_6MatrixIdLin1ELi1ELi0ELin1ELi1EEELin1ELi1ELb0EEELi0EEC2Ev
00000000003af604 W _ZN5Eigen15DenseCoeffsBaseINS_5BlockINS_6MatrixIdLin1ELi1ELi0ELin1ELi1EEELin1ELi1ELb0EEELi1EEC1Ev
00000000003af604 W _ZN5Eigen15DenseCoeffsBaseINS_5BlockINS_6MatrixIdLin1ELi1ELi0ELin1ELi1EEELin1ELi1ELb0EEELi1EEC2Ev
00000000003af620 W _ZN5Eigen15DenseCoeffsBaseINS_5BlockINS_6MatrixIdLin1ELi1ELi0ELin1ELi1EEELin1ELi1ELb0EEELi3EEC1Ev
00000000003af620 W _ZN5Eigen15DenseCoeffsBaseINS_5BlockINS_6MatrixIdLin1ELi1ELi0ELin1ELi1EEELin1ELi1ELb0EEELi3EEC2Ev
00000000003ab2a4 W _ZN5Eigen15DenseCoeffsBaseINS_5BlockINS_6MatrixIdLin1ELi3ELi0ELin1ELi3EEELi1ELi3ELb0EEELi0EEC1Ev
00000000003ab2a4 W _ZN5Eigen15DenseCoeffsBaseINS_5BlockINS_6MatrixIdLin1ELi3ELi0ELin1ELi3EEELi1ELi3ELb0EEELi0EEC2Ev
00000000003ab2c0 W _ZN5Eigen15DenseCoeffsBaseINS_5BlockINS_6MatrixIdLin1ELi3ELi0ELin1ELi3EEELi1ELi3ELb0EEELi1EEC1Ev
00000000003ab2c0 W _ZN5Eigen15DenseCoeffsBaseINS_5BlockINS_6MatrixIdLin1ELi3ELi0ELin1ELi3EEELi1ELi3ELb0EEELi1EEC2Ev
00000000003ab2dc W _ZN5Eigen15DenseCoeffsBaseINS_5BlockINS_6MatrixIdLin1ELi3ELi0ELin1ELi3EEELi1ELi3ELb0EEELi3EEC1Ev
00000000003ab2dc W _ZN5Eigen15DenseCoeffsBaseINS_5BlockINS_6MatrixIdLin1ELi3ELi0ELin1ELi3EEELi1ELi3ELb0EEELi3EEC2Ev
0000000000371fb4 W _ZN5Eigen15DenseCoeffsBaseINS_5BlockINS_6MatrixIdLin1ELin1ELi0ELin1ELin1EEELin1ELi1ELb1EEELi0EEC1Ev
0000000000371fb4 W _ZN5Eigen15DenseCoeffsBaseINS_5BlockINS_6MatrixIdLin1ELin1ELi0ELin1ELin1EEELin1ELi1ELb1EEELi0EEC2Ev
0000000000371fd0 W _ZN5Eigen15DenseCoeffsBaseINS_5BlockINS_6MatrixIdLin1ELin1ELi0ELin1ELin1EEELin1ELi1ELb1EEELi1EEC1Ev
0000000000371fd0 W _ZN5Eigen15DenseCoeffsBaseINS_5BlockINS_6MatrixIdLin1ELin1ELi0ELin1ELin1EEELin1ELi1ELb1EEELi1EEC2Ev
0000000000371fec W _ZN5Eigen15DenseCoeffsBaseINS_5BlockINS_6MatrixIdLin1ELin1ELi0ELin1ELin1EEELin1ELi1ELb1EEELi3EEC1Ev
0000000000371fec W _ZN5Eigen15DenseCoeffsBaseINS_5BlockINS_6MatrixIdLin1ELin1ELi0ELin1ELin1EEELin1ELi1ELb1EEELi3EEC2Ev
00000000003ba7f6 W _ZN5Eigen15DenseCoeffsBaseINS_6MatrixIdLi1ELi1ELi0ELi1ELi1EEELi0EEC1Ev
00000000003ba7f6 W _ZN5Eigen15DenseCoeffsBaseINS_6MatrixIdLi1ELi1ELi0ELi1ELi1EEELi0EEC2Ev
00000000003ba812 W _ZN5Eigen15DenseCoeffsBaseINS_6MatrixIdLi1ELi1ELi0ELi1ELi1EEELi1EEC1Ev
00000000003ba812 W _ZN5Eigen15DenseCoeffsBaseINS_6MatrixIdLi1ELi1ELi0ELi1ELi1EEELi1EEC2Ev
00000000003ba82e W _ZN5Eigen15DenseCoeffsBaseINS_6MatrixIdLi1ELi1ELi0ELi1ELi1EEELi3EEC1Ev
00000000003ba82e W _ZN5Eigen15DenseCoeffsBaseINS_6MatrixIdLi1ELi1ELi0ELi1ELi1EEELi3EEC2Ev
00000000003b3792 W _ZN5Eigen15DenseCoeffsBaseINS_6MatrixIdLi2ELi1ELi0ELi2ELi1EEELi0EEC1Ev
00000000003b3792 W _ZN5Eigen15DenseCoeffsBaseINS_6MatrixIdLi2ELi1ELi0ELi2ELi1EEELi0EEC2Ev
00000000003b2d7a W _ZN5Eigen15DenseCoeffsBaseINS_6MatrixIdLi2ELi1ELi0ELi2ELi1EEELi1EE8coeffRefEl
00000000003b37ae W _ZN5Eigen15DenseCoeffsBaseINS_6MatrixIdLi2ELi1ELi0ELi2ELi1EEELi1EEC1Ev
00000000003b37ae W _ZN5Eigen15DenseCoeffsBaseINS_6MatrixIdLi2ELi1ELi0ELi2ELi1EEELi1EEC2Ev
00000000003b24a8 W _ZN5Eigen15DenseCoeffsBaseINS_6MatrixIdLi2ELi1ELi0ELi2ELi1EEELi1EEclEl
00000000003b37ca W _ZN5Eigen15DenseCoeffsBaseINS_6MatrixIdLi2ELi1ELi0ELi2ELi1EEELi3EEC1Ev
00000000003b37ca W _ZN5Eigen15DenseCoeffsBaseINS_6MatrixIdLi2ELi1ELi0ELi2ELi1EEELi3EEC2Ev
000000000034252e W _ZN5Eigen15DenseCoeffsBaseINS_6MatrixIdLi3ELi1ELi0ELi3ELi1EEELi0EEC1Ev
000000000034252e W _ZN5Eigen15DenseCoeffsBaseINS_6MatrixIdLi3ELi1ELi0ELi3ELi1EEELi0EEC2Ev
0000000000339e98 W _ZN5Eigen15DenseCoeffsBaseINS_6MatrixIdLi3ELi1ELi0ELi3ELi1EEELi1EE1xEv
0000000000339eb8 W _ZN5Eigen15DenseCoeffsBaseINS_6MatrixIdLi3ELi1ELi0ELi3ELi1EEELi1EE1yEv
0000000000339868 W _ZN5Eigen15DenseCoeffsBaseINS_6MatrixIdLi3ELi1ELi0ELi3ELi1EEELi1EE1zEv
00000000003406a4 W _ZN5Eigen15DenseCoeffsBaseINS_6MatrixIdLi3ELi1ELi0ELi3ELi1EEELi1EE8coeffRefEl
000000000034254a W _ZN5Eigen15DenseCoeffsBaseINS_6MatrixIdLi3ELi1ELi0ELi3ELi1EEELi1EEC1Ev
000000000034254a W _ZN5Eigen15DenseCoeffsBaseINS_6MatrixIdLi3ELi1ELi0ELi3ELi1EEELi1EEC2Ev
00000000003b85ba W _ZN5Eigen15DenseCoeffsBaseINS_6MatrixIdLi3ELi1ELi0ELi3ELi1EEELi1EEclEl
000000000033c8b4 W _ZN5Eigen15DenseCoeffsBaseINS_6MatrixIdLi3ELi1ELi0ELi3ELi1EEELi1EEixEl
0000000000342566 W _ZN5Eigen15DenseCoeffsBaseINS_6MatrixIdLi3ELi1ELi0ELi3ELi1EEELi3EEC1Ev
0000000000342566 W _ZN5Eigen15DenseCoeffsBaseINS_6MatrixIdLi3ELi1ELi0ELi3ELi1EEELi3EEC2Ev
000000000034265e W _ZN5Eigen15DenseCoeffsBaseINS_6MatrixIdLi3ELi3ELi0ELi3ELi3EEELi0EEC1Ev
000000000034265e W _ZN5Eigen15DenseCoeffsBaseINS_6MatrixIdLi3ELi3ELi0ELi3ELi3EEELi0EEC2Ev
000000000034267a W _ZN5Eigen15DenseCoeffsBaseINS_6MatrixIdLi3ELi3ELi0ELi3ELi3EEELi1EEC1Ev
000000000034267a W _ZN5Eigen15DenseCoeffsBaseINS_6MatrixIdLi3ELi3ELi0ELi3ELi3EEELi1EEC2Ev
0000000000342696 W _ZN5Eigen15DenseCoeffsBaseINS_6MatrixIdLi3ELi3ELi0ELi3ELi3EEELi3EEC1Ev
0000000000342696 W _ZN5Eigen15DenseCoeffsBaseINS_6MatrixIdLi3ELi3ELi0ELi3ELi3EEELi3EEC2Ev
0000000000421c9e W _ZN5Eigen15DenseCoeffsBaseINS_6MatrixIdLi4ELi1ELi0ELi4ELi1EEELi0EEC1Ev
0000000000421c9e W _ZN5Eigen15DenseCoeffsBaseINS_6MatrixIdLi4ELi1ELi0ELi4ELi1EEELi0EEC2Ev
0000000000423a12 W _ZN5Eigen15DenseCoeffsBaseINS_6MatrixIdLi4ELi1ELi0ELi4ELi1EEELi1EE1wEv
0000000000423a32 W _ZN5Eigen15DenseCoeffsBaseINS_6MatrixIdLi4ELi1ELi0ELi4ELi1EEELi1EE1xEv
0000000000423a52 W _ZN5Eigen15DenseCoeffsBaseINS_6MatrixIdLi4ELi1ELi0ELi4ELi1EEELi1EE1yEv
0000000000423a72 W _ZN5Eigen15DenseCoeffsBaseINS_6MatrixIdLi4ELi1ELi0ELi4ELi1EEELi1EE1zEv
0000000000426110 W _ZN5Eigen15DenseCoeffsBaseINS_6MatrixIdLi4ELi1ELi0ELi4ELi1EEELi1EE8coeffRefEl
0000000000421cba W _ZN5Eigen15DenseCoeffsBaseINS_6MatrixIdLi4ELi1ELi0ELi4ELi1EEELi1EEC1Ev
0000000000421cba W _ZN5Eigen15DenseCoeffsBaseINS_6MatrixIdLi4ELi1ELi0ELi4ELi1EEELi1EEC2Ev
00000000004250c0 W _ZN5Eigen15DenseCoeffsBaseINS_6MatrixIdLi4ELi1ELi0ELi4ELi1EEELi1EEixEl
0000000000421cd6 W _ZN5Eigen15DenseCoeffsBaseINS_6MatrixIdLi4ELi1ELi0ELi4ELi1EEELi3EEC1Ev
0000000000421cd6 W _ZN5Eigen15DenseCoeffsBaseINS_6MatrixIdLi4ELi1ELi0ELi4ELi1EEELi3EEC2Ev
00000000003926b8 W _ZN5Eigen15DenseCoeffsBaseINS_6MatrixIdLi6ELi1ELi0ELi6ELi1EEELi0EEC1Ev
00000000003926b8 W _ZN5Eigen15DenseCoeffsBaseINS_6MatrixIdLi6ELi1ELi0ELi6ELi1EEELi0EEC2Ev
00000000003926d4 W _ZN5Eigen15DenseCoeffsBaseINS_6MatrixIdLi6ELi1ELi0ELi6ELi1EEELi1EEC1Ev
00000000003926d4 W _ZN5Eigen15DenseCoeffsBaseINS_6MatrixIdLi6ELi1ELi0ELi6ELi1EEELi1EEC2Ev
00000000003926f0 W _ZN5Eigen15DenseCoeffsBaseINS_6MatrixIdLi6ELi1ELi0ELi6ELi1EEELi3EEC1Ev
00000000003926f0 W _ZN5Eigen15DenseCoeffsBaseINS_6MatrixIdLi6ELi1ELi0ELi6ELi1EEELi3EEC2Ev
000000000034423a W _ZN5Eigen15DenseCoeffsBaseINS_6MatrixIdLin1ELi1ELi0ELin1ELi1EEELi0EEC1Ev
000000000034423a W _ZN5Eigen15DenseCoeffsBaseINS_6MatrixIdLin1ELi1ELi0ELin1ELi1EEELi0EEC2Ev
0000000000365430 W _ZN5Eigen15DenseCoeffsBaseINS_6MatrixIdLin1ELi1ELi0ELin1ELi1EEELi1EE1zEv
000000000035c98e W _ZN5Eigen15DenseCoeffsBaseINS_6MatrixIdLin1ELi1ELi0ELin1ELi1EEELi1EE8coeffRefEl
0000000000344256 W _ZN5Eigen15DenseCoeffsBaseINS_6MatrixIdLin1ELi1ELi0ELin1ELi1EEELi1EEC1Ev
0000000000344256 W _ZN5Eigen15DenseCoeffsBaseINS_6MatrixIdLin1ELi1ELi0ELin1ELi1EEELi1EEC2Ev
000000000035bbc6 W _ZN5Eigen15DenseCoeffsBaseINS_6MatrixIdLin1ELi1ELi0ELin1ELi1EEELi1EEclEl
00000000003668b6 W _ZN5Eigen15DenseCoeffsBaseINS_6MatrixIdLin1ELi1ELi0ELin1ELi1EEELi1EEixEl
0000000000344272 W _ZN5Eigen15DenseCoeffsBaseINS_6MatrixIdLin1ELi1ELi0ELin1ELi1EEELi3EEC1Ev
0000000000344272 W _ZN5Eigen15DenseCoeffsBaseINS_6MatrixIdLin1ELi1ELi0ELin1ELi1EEELi3EEC2Ev
00000000003a54e2 W _ZN5Eigen15DenseCoeffsBaseINS_6MatrixIdLin1ELi3ELi0ELin1ELi3EEELi0EEC1Ev
00000000003a54e2 W _ZN5Eigen15DenseCoeffsBaseINS_6MatrixIdLin1ELi3ELi0ELin1ELi3EEELi0EEC2Ev
00000000003a54fe W _ZN5Eigen15DenseCoeffsBaseINS_6MatrixIdLin1ELi3ELi0ELin1ELi3EEELi1EEC1Ev
00000000003a54fe W _ZN5Eigen15DenseCoeffsBaseINS_6MatrixIdLin1ELi3ELi0ELin1ELi3EEELi1EEC2Ev
00000000003a551a W _ZN5Eigen15DenseCoeffsBaseINS_6MatrixIdLin1ELi3ELi0ELin1ELi3EEELi3EEC1Ev
00000000003a551a W _ZN5Eigen15DenseCoeffsBaseINS_6MatrixIdLin1ELi3ELi0ELin1ELi3EEELi3EEC2Ev
000000000036ee9c W _ZN5Eigen15DenseCoeffsBaseINS_6MatrixIdLin1ELin1ELi0ELin1ELin1EEELi0EEC1Ev
000000000036ee9c W _ZN5Eigen15DenseCoeffsBaseINS_6MatrixIdLin1ELin1ELi0ELin1ELin1EEELi0EEC2Ev
000000000036eeb8 W _ZN5Eigen15DenseCoeffsBaseINS_6MatrixIdLin1ELin1ELi0ELin1ELin1EEELi1EEC1Ev
000000000036eeb8 W _ZN5Eigen15DenseCoeffsBaseINS_6MatrixIdLin1ELin1ELi0ELin1ELin1EEELi1EEC2Ev
000000000036eed4 W _ZN5Eigen15DenseCoeffsBaseINS_6MatrixIdLin1ELin1ELi0ELin1ELin1EEELi3EEC1Ev
000000000036eed4 W _ZN5Eigen15DenseCoeffsBaseINS_6MatrixIdLin1ELin1ELi0ELin1ELin1EEELi3EEC2Ev
0000000000371158 W _ZN5Eigen15DenseCoeffsBaseINS_6MatrixIiLin1ELi1ELi0ELin1ELi1EEELi0EEC1Ev
0000000000371158 W _ZN5Eigen15DenseCoeffsBaseINS_6MatrixIiLin1ELi1ELi0ELin1ELi1EEELi0EEC2Ev
000000000036f722 W _ZN5Eigen15DenseCoeffsBaseINS_6MatrixIiLin1ELi1ELi0ELin1ELi1EEELi1EE8coeffRefEl
0000000000371174 W _ZN5Eigen15DenseCoeffsBaseINS_6MatrixIiLin1ELi1ELi0ELin1ELi1EEELi1EEC1Ev
0000000000371174 W _ZN5Eigen15DenseCoeffsBaseINS_6MatrixIiLin1ELi1ELi0ELin1ELi1EEELi1EEC2Ev
000000000036e7e8 W _ZN5Eigen15DenseCoeffsBaseINS_6MatrixIiLin1ELi1ELi0ELin1ELi1EEELi1EEixEl
0000000000371190 W _ZN5Eigen15DenseCoeffsBaseINS_6MatrixIiLin1ELi1ELi0ELin1ELi1EEELi3EEC1Ev
0000000000371190 W _ZN5Eigen15DenseCoeffsBaseINS_6MatrixIiLin1ELi1ELi0ELin1ELi1EEELi3EEC2Ev
000000000039be7c W _ZN5Eigen15DenseCoeffsBaseINS_6MatrixIlLin1ELi1ELi0ELin1ELi1EEELi0EEC1Ev
000000000039be7c W _ZN5Eigen15DenseCoeffsBaseINS_6MatrixIlLin1ELi1ELi0ELin1ELi1EEELi0EEC2Ev
00000000003977ee W _ZN5Eigen15DenseCoeffsBaseINS_6MatrixIlLin1ELi1ELi0ELin1ELi1EEELi1EE8coeffRefEl
000000000039be98 W _ZN5Eigen15DenseCoeffsBaseINS_6MatrixIlLin1ELi1ELi0ELin1ELi1EEELi1EEC1Ev
000000000039be98 W _ZN5Eigen15DenseCoeffsBaseINS_6MatrixIlLin1ELi1ELi0ELin1ELi1EEELi1EEC2Ev
0000000000394cf4 W _ZN5Eigen15DenseCoeffsBaseINS_6MatrixIlLin1ELi1ELi0ELin1ELi1EEELi1EEixEl
000000000039beb4 W _ZN5Eigen15DenseCoeffsBaseINS_6MatrixIlLin1ELi1ELi0ELin1ELi1EEELi3EEC1Ev
000000000039beb4 W _ZN5Eigen15DenseCoeffsBaseINS_6MatrixIlLin1ELi1ELi0ELin1ELi1EEELi3EEC2Ev
0000000000392832 W _ZN5Eigen15DenseCoeffsBaseINS_7ProductINS_12SparseMatrixIdLi1EiEENS1_IS3_NS_6MatrixIdLi3ELi1ELi0ELi3ELi1EEELi0EEELi0EEELi0EEC1Ev
0000000000392832 W _ZN5Eigen15DenseCoeffsBaseINS_7ProductINS_12SparseMatrixIdLi1EiEENS1_IS3_NS_6MatrixIdLi3ELi1ELi0ELi3ELi1EEELi0EEELi0EEELi0EEC2Ev
00000000003927ee W _ZN5Eigen15DenseCoeffsBaseINS_7ProductINS_12SparseMatrixIdLi1EiEENS_6MatrixIdLi3ELi1ELi0ELi3ELi1EEELi0EEELi0EEC1Ev
00000000003927ee W _ZN5Eigen15DenseCoeffsBaseINS_7ProductINS_12SparseMatrixIdLi1EiEENS_6MatrixIdLi3ELi1ELi0ELi3ELi1EEELi0EEELi0EEC2Ev
0000000000421edc W _ZN5Eigen15DenseCoeffsBaseINS_7ProductINS_12SparseMatrixIdLi1EiEENS_6MatrixIdLin1ELi1ELi0ELin1ELi1EEELi0EEELi0EEC1Ev
0000000000421edc W _ZN5Eigen15DenseCoeffsBaseINS_7ProductINS_12SparseMatrixIdLi1EiEENS_6MatrixIdLin1ELi1ELi0ELin1ELi1EEELi0EEELi0EEC2Ev
0000000000393450 W _ZN5Eigen15DenseCoeffsBaseINS_7ProductINS_12SparseMatrixIdLi1EiEENS_9TransposeIKNS_6MatrixIdLi3ELi3ELi0ELi3ELi3EEEEELi0EEELi0EEC1Ev
0000000000393450 W _ZN5Eigen15DenseCoeffsBaseINS_7ProductINS_12SparseMatrixIdLi1EiEENS_9TransposeIKNS_6MatrixIdLi3ELi3ELi0ELi3ELi3EEEEELi0EEELi0EEC2Ev
00000000003da804 W _ZN5Eigen15DenseCoeffsBaseINS_7ProductINS_13CwiseBinaryOpINS_8internal17scalar_product_opIddEEKNS_14CwiseNullaryOpINS3_18scalar_constant_opIdEEKNS_6MatrixIdLi1ELin1ELi1ELi1ELin1EEEEEKNS_9TransposeIKNS2_INS3_20scalar_difference_opIddEEKNS9_IdLin1ELi1ELi0ELin1ELi1EEESI_EEEEEENS_15DiagonalWrapperISI_EELi1EEELi0EEC1Ev
00000000003da804 W _ZN5Eigen15DenseCoeffsBaseINS_7ProductINS_13CwiseBinaryOpINS_8internal17scalar_product_opIddEEKNS_14CwiseNullaryOpINS3_18scalar_constant_opIdEEKNS_6MatrixIdLi1ELin1ELi1ELi1ELin1EEEEEKNS_9TransposeIKNS2_INS3_20scalar_difference_opIddEEKNS9_IdLin1ELi1ELi0ELin1ELi1EEESI_EEEEEENS_15DiagonalWrapperISI_EELi1EEELi0EEC2Ev
0000000000393494 W _ZN5Eigen15DenseCoeffsBaseINS_7ProductINS1_INS_12SparseMatrixIdLi1EiEENS_9TransposeIKNS_6MatrixIdLi3ELi3ELi0ELi3ELi3EEEEELi0EEENS5_IdLi3ELi1ELi0ELi3ELi1EEELi0EEELi0EEC1Ev
0000000000393494 W _ZN5Eigen15DenseCoeffsBaseINS_7ProductINS1_INS_12SparseMatrixIdLi1EiEENS_9TransposeIKNS_6MatrixIdLi3ELi3ELi0ELi3ELi3EEEEELi0EEENS5_IdLi3ELi1ELi0ELi3ELi1EEELi0EEELi0EEC2Ev
000000000039fb26 W _ZN5Eigen15DenseCoeffsBaseINS_7ProductINS1_INS_12SparseMatrixIdLi1EiEENS_9TransposeIKNS_6MatrixIdLi3ELi3ELi0ELi3ELi3EEEEELi0EEENS5_IdLi3ELi1ELi0ELi3ELi1EEELi1EEELi0EEC1Ev
000000000039fb26 W _ZN5Eigen15DenseCoeffsBaseINS_7ProductINS1_INS_12SparseMatrixIdLi1EiEENS_9TransposeIKNS_6MatrixIdLi3ELi3ELi0ELi3ELi3EEEEELi0EEENS5_IdLi3ELi1ELi0ELi3ELi1EEELi1EEELi0EEC2Ev
00000000003da86a W _ZN5Eigen15DenseCoeffsBaseINS_7ProductINS1_INS_13CwiseBinaryOpINS_8internal17scalar_product_opIddEEKNS_14CwiseNullaryOpINS3_18scalar_constant_opIdEEKNS_6MatrixIdLi1ELin1ELi1ELi1ELin1EEEEEKNS_9TransposeIKNS2_INS3_20scalar_difference_opIddEEKNS9_IdLin1ELi1ELi0ELin1ELi1EEESI_EEEEEENS_15DiagonalWrapperISI_EELi1EEESJ_Li0EEELi0EEC1Ev
00000000003da86a W _ZN5Eigen15DenseCoeffsBaseINS_7ProductINS1_INS_13CwiseBinaryOpINS_8internal17scalar_product_opIddEEKNS_14CwiseNullaryOpINS3_18scalar_constant_opIdEEKNS_6MatrixIdLi1ELin1ELi1ELi1ELin1EEEEEKNS_9TransposeIKNS2_INS3_20scalar_difference_opIddEEKNS9_IdLin1ELi1ELi0ELin1ELi1EEESI_EEEEEENS_15DiagonalWrapperISI_EELi1EEESJ_Li0EEELi0EEC2Ev
00000000003da96c W _ZN5Eigen15DenseCoeffsBaseINS_7ProductINS1_INS_9TransposeINS_12SparseMatrixIdLi1EiEEEENS_15DiagonalWrapperIKNS_6MatrixIdLin1ELi1ELi0ELin1ELi1EEEEELi0EEENS_13CwiseBinaryOpINS_8internal20scalar_difference_opIddEES9_S9_EELi0EEELi0EEC1Ev
00000000003da96c W _ZN5Eigen15DenseCoeffsBaseINS_7ProductINS1_INS_9TransposeINS_12SparseMatrixIdLi1EiEEEENS_15DiagonalWrapperIKNS_6MatrixIdLin1ELi1ELi0ELin1ELi1EEEEELi0EEENS_13CwiseBinaryOpINS_8internal20scalar_difference_opIddEES9_S9_EELi0EEELi0EEC2Ev
00000000003449b4 W _ZN5Eigen15DenseCoeffsBaseINS_7ProductINS_6MatrixIdLi3ELi3ELi0ELi3ELi3EEENS2_IdLi3ELi1ELi0ELi3ELi1EEELi0EEELi0EEC1Ev
00000000003449b4 W _ZN5Eigen15DenseCoeffsBaseINS_7ProductINS_6MatrixIdLi3ELi3ELi0ELi3ELi3EEENS2_IdLi3ELi1ELi0ELi3ELi1EEELi0EEELi0EEC2Ev
000000000035219c W _ZN5Eigen15DenseCoeffsBaseINS_7ProductINS_6MatrixIdLi3ELi3ELi0ELi3ELi3EEENS2_IdLi3ELi1ELi0ELi3ELi1EEELi1EEELi0EEC1Ev
000000000035219c W _ZN5Eigen15DenseCoeffsBaseINS_7ProductINS_6MatrixIdLi3ELi3ELi0ELi3ELi3EEENS2_IdLi3ELi1ELi0ELi3ELi1EEELi1EEELi0EEC2Ev
00000000003d4066 W _ZN5Eigen15DenseCoeffsBaseINS_7ProductINS_6MatrixIdLin1ELin1ELi0ELin1ELin1EEENS2_IdLin1ELi1ELi0ELin1ELi1EEELi0EEELi0EEC1Ev
00000000003d4066 W _ZN5Eigen15DenseCoeffsBaseINS_7ProductINS_6MatrixIdLin1ELin1ELi0ELin1ELin1EEENS2_IdLin1ELi1ELi0ELin1ELi1EEELi0EEELi0EEC2Ev
00000000003b967e W _ZN5Eigen15DenseCoeffsBaseINS_7ProductINS_9TransposeINS_6MatrixIdLi3ELi1ELi0ELi3ELi1EEEEENS_13CwiseBinaryOpINS_8internal13scalar_sum_opIddEEKS4_KNS6_INS7_17scalar_product_opIddEEKNS_14CwiseNullaryOpINS7_18scalar_constant_opIdEESA_EESA_EEEELi0EEELi0EEC1Ev
00000000003b967e W _ZN5Eigen15DenseCoeffsBaseINS_7ProductINS_9TransposeINS_6MatrixIdLi3ELi1ELi0ELi3ELi1EEEEENS_13CwiseBinaryOpINS_8internal13scalar_sum_opIddEEKS4_KNS6_INS7_17scalar_product_opIddEEKNS_14CwiseNullaryOpINS7_18scalar_constant_opIdEESA_EESA_EEEELi0EEELi0EEC2Ev
00000000003b94fe W _ZN5Eigen15DenseCoeffsBaseINS_7ProductINS_9TransposeINS_6MatrixIdLi3ELi1ELi0ELi3ELi1EEEEENS_13CwiseBinaryOpINS_8internal20scalar_difference_opIddEEKS4_KNS6_INS7_17scalar_product_opIddEEKNS_14CwiseNullaryOpINS7_18scalar_constant_opIdEESA_EESA_EEEELi0EEELi0EEC1Ev
00000000003b94fe W _ZN5Eigen15DenseCoeffsBaseINS_7ProductINS_9TransposeINS_6MatrixIdLi3ELi1ELi0ELi3ELi1EEEEENS_13CwiseBinaryOpINS_8internal20scalar_difference_opIddEEKS4_KNS6_INS7_17scalar_product_opIddEEKNS_14CwiseNullaryOpINS7_18scalar_constant_opIdEESA_EESA_EEEELi0EEELi0EEC2Ev
00000000003b9300 W _ZN5Eigen15DenseCoeffsBaseINS_7ProductINS_9TransposeINS_6MatrixIdLi3ELi1ELi0ELi3ELi1EEEEES4_Li0EEELi0EEC1Ev
00000000003b9300 W _ZN5Eigen15DenseCoeffsBaseINS_7ProductINS_9TransposeINS_6MatrixIdLi3ELi1ELi0ELi3ELi1EEEEES4_Li0EEELi0EEC2Ev
0000000000426900 W _ZN5Eigen15DenseCoeffsBaseINS_8DiagonalIKNS_6MatrixIdLi3ELi3ELi0ELi3ELi3EEELi0EEELi0EEC1Ev
0000000000426900 W _ZN5Eigen15DenseCoeffsBaseINS_8DiagonalIKNS_6MatrixIdLi3ELi3ELi0ELi3ELi3EEELi0EEELi0EEC2Ev
000000000042691c W _ZN5Eigen15DenseCoeffsBaseINS_8DiagonalIKNS_6MatrixIdLi3ELi3ELi0ELi3ELi3EEELi0EEELi2EEC1Ev
000000000042691c W _ZN5Eigen15DenseCoeffsBaseINS_8DiagonalIKNS_6MatrixIdLi3ELi3ELi0ELi3ELi3EEELi0EEELi2EEC2Ev
00000000003ccc58 W _ZN5Eigen15DenseCoeffsBaseINS_9ReplicateINS_9TransposeINS_6MatrixIdLi3ELi1ELi0ELi3ELi1EEEEELi3ELi1EEELi0EEC1Ev
00000000003ccc58 W _ZN5Eigen15DenseCoeffsBaseINS_9ReplicateINS_9TransposeINS_6MatrixIdLi3ELi1ELi0ELi3ELi1EEEEELi3ELi1EEELi0EEC2Ev
00000000003da738 W _ZN5Eigen15DenseCoeffsBaseINS_9TransposeIKNS_13CwiseBinaryOpINS_8internal20scalar_difference_opIddEEKNS_6MatrixIdLin1ELi1ELi0ELin1ELi1EEES8_EEEELi0EEC1Ev
00000000003da738 W _ZN5Eigen15DenseCoeffsBaseINS_9TransposeIKNS_13CwiseBinaryOpINS_8internal20scalar_difference_opIddEEKNS_6MatrixIdLin1ELi1ELi0ELin1ELi1EEES8_EEEELi0EEC2Ev
00000000003bad78 W _ZN5Eigen15DenseCoeffsBaseINS_9TransposeIKNS1_INS_6MatrixIdLi3ELi1ELi0ELi3ELi1EEEEEEELi0EEC1Ev
00000000003bad78 W _ZN5Eigen15DenseCoeffsBaseINS_9TransposeIKNS1_INS_6MatrixIdLi3ELi1ELi0ELi3ELi1EEEEEEELi0EEC2Ev
00000000003bad94 W _ZN5Eigen15DenseCoeffsBaseINS_9TransposeIKNS1_INS_6MatrixIdLi3ELi1ELi0ELi3ELi1EEEEEEELi2EEC1Ev
00000000003bad94 W _ZN5Eigen15DenseCoeffsBaseINS_9TransposeIKNS1_INS_6MatrixIdLi3ELi1ELi0ELi3ELi1EEEEEEELi2EEC2Ev
000000000035402a W _ZN5Eigen15DenseCoeffsBaseINS_9TransposeIKNS_5BlockIKNS_6MatrixIdLi3ELi3ELi0ELi3ELi3EEELi1ELi3ELb0EEEEELi0EEC1Ev
000000000035402a W _ZN5Eigen15DenseCoeffsBaseINS_9TransposeIKNS_5BlockIKNS_6MatrixIdLi3ELi3ELi0ELi3ELi3EEELi1ELi3ELb0EEEEELi0EEC2Ev
0000000000354046 W _ZN5Eigen15DenseCoeffsBaseINS_9TransposeIKNS_5BlockIKNS_6MatrixIdLi3ELi3ELi0ELi3ELi3EEELi1ELi3ELb0EEEEELi2EEC1Ev
0000000000354046 W _ZN5Eigen15DenseCoeffsBaseINS_9TransposeIKNS_5BlockIKNS_6MatrixIdLi3ELi3ELi0ELi3ELi3EEELi1ELi3ELb0EEEEELi2EEC2Ev
00000000003a77d0 W _ZN5Eigen15DenseCoeffsBaseINS_9TransposeIKNS_5BlockIKNS_6MatrixIdLin1ELi3ELi0ELin1ELi3EEELi1ELi3ELb0EEEEELi0EEC1Ev
00000000003a77d0 W _ZN5Eigen15DenseCoeffsBaseINS_9TransposeIKNS_5BlockIKNS_6MatrixIdLin1ELi3ELi0ELin1ELi3EEELi1ELi3ELb0EEEEELi0EEC2Ev
00000000003a77ec W _ZN5Eigen15DenseCoeffsBaseINS_9TransposeIKNS_5BlockIKNS_6MatrixIdLin1ELi3ELi0ELin1ELi3EEELi1ELi3ELb0EEEEELi2EEC1Ev
00000000003a77ec W _ZN5Eigen15DenseCoeffsBaseINS_9TransposeIKNS_5BlockIKNS_6MatrixIdLin1ELi3ELi0ELin1ELi3EEELi1ELi3ELb0EEEEELi2EEC2Ev
0000000000392322 W _ZN5Eigen15DenseCoeffsBaseINS_9TransposeIKNS_6MatrixIdLi3ELi3ELi0ELi3ELi3EEEEELi0EEC1Ev
0000000000392322 W _ZN5Eigen15DenseCoeffsBaseINS_9TransposeIKNS_6MatrixIdLi3ELi3ELi0ELi3ELi3EEEEELi0EEC2Ev
000000000039233e W _ZN5Eigen15DenseCoeffsBaseINS_9TransposeIKNS_6MatrixIdLi3ELi3ELi0ELi3ELi3EEEEELi2EEC1Ev
000000000039233e W _ZN5Eigen15DenseCoeffsBaseINS_9TransposeIKNS_6MatrixIdLi3ELi3ELi0ELi3ELi3EEEEELi2EEC2Ev
00000000003dd374 W _ZN5Eigen15DenseCoeffsBaseINS_9TransposeIKNS_6MatrixIdLin1ELi1ELi0ELin1ELi1EEEEELi0EEC1Ev
00000000003dd374 W _ZN5Eigen15DenseCoeffsBaseINS_9TransposeIKNS_6MatrixIdLin1ELi1ELi0ELin1ELi1EEEEELi0EEC2Ev
00000000003dd390 W _ZN5Eigen15DenseCoeffsBaseINS_9TransposeIKNS_6MatrixIdLin1ELi1ELi0ELin1ELi1EEEEELi2EEC1Ev
00000000003dd390 W _ZN5Eigen15DenseCoeffsBaseINS_9TransposeIKNS_6MatrixIdLin1ELi1ELi0ELin1ELi1EEEEELi2EEC2Ev
00000000003dc3f2 W _ZN5Eigen15DenseCoeffsBaseINS_9TransposeIKNS_7ProductINS_13CwiseBinaryOpINS_8internal17scalar_product_opIddEEKNS_14CwiseNullaryOpINS4_18scalar_constant_opIdEEKNS_6MatrixIdLi1ELin1ELi1ELi1ELin1EEEEEKNS1_IKNS3_INS4_20scalar_difference_opIddEEKNSA_IdLin1ELi1ELi0ELin1ELi1EEESI_EEEEEENS_15DiagonalWrapperISI_EELi1EEEEELi0EEC1Ev
00000000003dc3f2 W _ZN5Eigen15DenseCoeffsBaseINS_9TransposeIKNS_7ProductINS_13CwiseBinaryOpINS_8internal17scalar_product_opIddEEKNS_14CwiseNullaryOpINS4_18scalar_constant_opIdEEKNS_6MatrixIdLi1ELin1ELi1ELi1ELin1EEEEEKNS1_IKNS3_INS4_20scalar_difference_opIddEEKNSA_IdLin1ELi1ELi0ELin1ELi1EEESI_EEEEEENS_15DiagonalWrapperISI_EELi1EEEEELi0EEC2Ev
00000000003b9284 W _ZN5Eigen15DenseCoeffsBaseINS_9TransposeINS_6MatrixIdLi3ELi1ELi0ELi3ELi1EEEEELi0EEC1Ev
00000000003b9284 W _ZN5Eigen15DenseCoeffsBaseINS_9TransposeINS_6MatrixIdLi3ELi1ELi0ELi3ELi1EEEEELi0EEC2Ev
00000000003b92a0 W _ZN5Eigen15DenseCoeffsBaseINS_9TransposeINS_6MatrixIdLi3ELi1ELi0ELi3ELi1EEEEELi1EEC1Ev
00000000003b92a0 W _ZN5Eigen15DenseCoeffsBaseINS_9TransposeINS_6MatrixIdLi3ELi1ELi0ELi3ELi1EEEEELi1EEC2Ev
00000000003b92bc W _ZN5Eigen15DenseCoeffsBaseINS_9TransposeINS_6MatrixIdLi3ELi1ELi0ELi3ELi1EEEEELi3EEC1Ev
00000000003b92bc W _ZN5Eigen15DenseCoeffsBaseINS_9TransposeINS_6MatrixIdLi3ELi1ELi0ELi3ELi1EEEEELi3EEC2Ev
00000000003daa1e W _ZN5Eigen15DenseCoeffsBaseINS_9TransposeINS_6MatrixIdLin1ELi1ELi0ELin1ELi1EEEEELi0EEC1Ev
00000000003daa1e W _ZN5Eigen15DenseCoeffsBaseINS_9TransposeINS_6MatrixIdLin1ELi1ELi0ELin1ELi1EEEEELi0EEC2Ev
00000000003db618 W _ZN5Eigen15DenseCoeffsBaseINS_9TransposeINS_6MatrixIdLin1ELi1ELi0ELin1ELi1EEEEELi1EE8coeffRefEll
00000000003daa3a W _ZN5Eigen15DenseCoeffsBaseINS_9TransposeINS_6MatrixIdLin1ELi1ELi0ELin1ELi1EEEEELi1EEC1Ev
00000000003daa3a W _ZN5Eigen15DenseCoeffsBaseINS_9TransposeINS_6MatrixIdLin1ELi1ELi0ELin1ELi1EEEEELi1EEC2Ev
00000000003daa56 W _ZN5Eigen15DenseCoeffsBaseINS_9TransposeINS_6MatrixIdLin1ELi1ELi0ELin1ELi1EEEEELi3EEC1Ev
00000000003daa56 W _ZN5Eigen15DenseCoeffsBaseINS_9TransposeINS_6MatrixIdLin1ELi1ELi0ELin1ELi1EEEEELi3EEC2Ev
00000000003d99c8 W _ZN5Eigen15DiagonalWrapperIKNS_6MatrixIdLin1ELi1ELi0ELin1ELi1EEEEC1ERS3_
00000000003d99c8 W _ZN5Eigen15DiagonalWrapperIKNS_6MatrixIdLin1ELi1ELi0ELin1ELi1EEEEC2ERS3_
00000000003986b1 W _ZN5Eigen15PlainObjectBaseINS_5ArrayIiLi2ELi1ELi0ELi2ELi1EEEE22_check_template_paramsEv
0000000000398842 W _ZN5Eigen15PlainObjectBaseINS_5ArrayIiLi2ELi1ELi0ELi2ELi1EEEE4dataEv
00000000003986b8 W _ZN5Eigen15PlainObjectBaseINS_5ArrayIiLi2ELi1ELi0ELi2ELi1EEEE6_init2IiiEEvRKT_RKT0_PNS_8internal9enable_ifILb1ES5_E4typeE
000000000039868a W _ZN5Eigen15PlainObjectBaseINS_5ArrayIiLi2ELi1ELi0ELi2ELi1EEEEC1Ev
000000000039868a W _ZN5Eigen15PlainObjectBaseINS_5ArrayIiLi2ELi1ELi0ELi2ELi1EEEEC2Ev
00000000003b989f W _ZN5Eigen15PlainObjectBaseINS_6MatrixIdLi1ELi1ELi0ELi1ELi1EEEE22_check_template_paramsEv
00000000003b98a6 W _ZN5Eigen15PlainObjectBaseINS_6MatrixIdLi1ELi1ELi0ELi1ELi1EEEE6_init2IllEEvllPNS_8internal9enable_ifILb1ET_E4typeE
00000000003b9d1c W _ZN5Eigen15PlainObjectBaseINS_6MatrixIdLi1ELi1ELi0ELi1ELi1EEEE6resizeEll
00000000003b9944 W _ZN5Eigen15PlainObjectBaseINS_6MatrixIdLi1ELi1ELi0ELi1ELi1EEEE8coeffRefEll
00000000003b9878 W _ZN5Eigen15PlainObjectBaseINS_6MatrixIdLi1ELi1ELi0ELi1ELi1EEEEC1Ev
00000000003b9878 W _ZN5Eigen15PlainObjectBaseINS_6MatrixIdLi1ELi1ELi0ELi1ELi1EEEEC2Ev
00000000003b3342 W _ZN5Eigen15PlainObjectBaseINS_6MatrixIdLi2ELi1ELi0ELi2ELi1EEEE10resizeLikeINS_13CwiseBinaryOpINS_8internal13scalar_sum_opIddEEKS2_KNS5_INS6_17scalar_product_opIddEEKNS_14CwiseNullaryOpINS6_18scalar_constant_opIdEES9_EES9_EEEEEEvRKNS_9EigenBaseIT_EE
00000000003b34ac W _ZN5Eigen15PlainObjectBaseINS_6MatrixIdLi2ELi1ELi0ELi2ELi1EEEE10resizeLikeINS_13CwiseBinaryOpINS_8internal18scalar_quotient_opIddEEKS2_KNS_14CwiseNullaryOpINS6_18scalar_constant_opIdEES9_EEEEEEvRKNS_9EigenBaseIT_EE
00000000003b30ec W _ZN5Eigen15PlainObjectBaseINS_6MatrixIdLi2ELi1ELi0ELi2ELi1EEEE10resizeLikeINS_13CwiseBinaryOpINS_8internal20scalar_difference_opIddEEKS2_S9_EEEEvRKNS_9EigenBaseIT_EE
00000000003b2f82 W _ZN5Eigen15PlainObjectBaseINS_6MatrixIdLi2ELi1ELi0ELi2ELi1EEEE10resizeLikeINS_5BlockIKNS1_IdLin1ELi1ELi0ELin1ELi1EEELi2ELi1ELb0EEEEEvRKNS_9EigenBaseIT_EE
00000000003b340c W _ZN5Eigen15PlainObjectBaseINS_6MatrixIdLi2ELi1ELi0ELi2ELi1EEEE12_set_noaliasINS_13CwiseBinaryOpINS_8internal13scalar_sum_opIddEEKS2_KNS5_INS6_17scalar_product_opIddEEKNS_14CwiseNullaryOpINS6_18scalar_constant_opIdEES9_EES9_EEEEEERS2_RKNS_9DenseBaseIT_EE
00000000003b3576 W _ZN5Eigen15PlainObjectBaseINS_6MatrixIdLi2ELi1ELi0ELi2ELi1EEEE12_set_noaliasINS_13CwiseBinaryOpINS_8internal18scalar_quotient_opIddEEKS2_KNS_14CwiseNullaryOpINS6_18scalar_constant_opIdEES9_EEEEEERS2_RKNS_9DenseBaseIT_EE
00000000003b31b6 W _ZN5Eigen15PlainObjectBaseINS_6MatrixIdLi2ELi1ELi0ELi2ELi1EEEE12_set_noaliasINS_13CwiseBinaryOpINS_8internal20scalar_difference_opIddEEKS2_S9_EEEERS2_RKNS_9DenseBaseIT_EE
00000000003b304c W _ZN5Eigen15PlainObjectBaseINS_6MatrixIdLi2ELi1ELi0ELi2ELi1EEEE12_set_noaliasINS_5BlockIKNS1_IdLin1ELi1ELi0ELin1ELi1EEELi2ELi1ELb0EEEEERS2_RKNS_9DenseBaseIT_EE
00000000003b271e W _ZN5Eigen15PlainObjectBaseINS_6MatrixIdLi2ELi1ELi0ELi2ELi1EEEE22_check_template_paramsEv
00000000003b3872 W _ZN5Eigen15PlainObjectBaseINS_6MatrixIdLi2ELi1ELi0ELi2ELi1EEEE6resizeEll
00000000003b2b4a W _ZN5Eigen15PlainObjectBaseINS_6MatrixIdLi2ELi1ELi0ELi2ELi1EEEEC1INS_13CwiseBinaryOpINS_8internal13scalar_sum_opIddEEKS2_KNS5_INS6_17scalar_product_opIddEEKNS_14CwiseNullaryOpINS6_18scalar_constant_opIdEES9_EES9_EEEEEERKNS_9DenseBaseIT_EE
00000000003b2c9c W _ZN5Eigen15PlainObjectBaseINS_6MatrixIdLi2ELi1ELi0ELi2ELi1EEEEC1INS_13CwiseBinaryOpINS_8internal18scalar_quotient_opIddEEKS2_KNS_14CwiseNullaryOpINS6_18scalar_constant_opIdEES9_EEEEEERKNS_9DenseBaseIT_EE
00000000003b2824 W _ZN5Eigen15PlainObjectBaseINS_6MatrixIdLi2ELi1ELi0ELi2ELi1EEEEC1INS_13CwiseBinaryOpINS_8internal20scalar_difference_opIddEEKS2_S9_EEEERKNS_9DenseBaseIT_EE
00000000003b26c8 W _ZN5Eigen15PlainObjectBaseINS_6MatrixIdLi2ELi1ELi0ELi2ELi1EEEEC1INS_5BlockIKNS1_IdLin1ELi1ELi0ELin1ELi1EEELi2ELi1ELb0EEEEERKNS_9DenseBaseIT_EE
00000000003b2b4a W _ZN5Eigen15PlainObjectBaseINS_6MatrixIdLi2ELi1ELi0ELi2ELi1EEEEC2INS_13CwiseBinaryOpINS_8internal13scalar_sum_opIddEEKS2_KNS5_INS6_17scalar_product_opIddEEKNS_14CwiseNullaryOpINS6_18scalar_constant_opIdEES9_EES9_EEEEEERKNS_9DenseBaseIT_EE
00000000003b2c9c W _ZN5Eigen15PlainObjectBaseINS_6MatrixIdLi2ELi1ELi0ELi2ELi1EEEEC2INS_13CwiseBinaryOpINS_8internal18scalar_quotient_opIddEEKS2_KNS_14CwiseNullaryOpINS6_18scalar_constant_opIdEES9_EEEEEERKNS_9DenseBaseIT_EE
00000000003b2824 W _ZN5Eigen15PlainObjectBaseINS_6MatrixIdLi2ELi1ELi0ELi2ELi1EEEEC2INS_13CwiseBinaryOpINS_8internal20scalar_difference_opIddEEKS2_S9_EEEERKNS_9DenseBaseIT_EE
00000000003b26c8 W _ZN5Eigen15PlainObjectBaseINS_6MatrixIdLi2ELi1ELi0ELi2ELi1EEEEC2INS_5BlockIKNS1_IdLin1ELi1ELi0ELin1ELi1EEELi2ELi1ELb0EEEEERKNS_9DenseBaseIT_EE
0000000000340fc8 W _ZN5Eigen15PlainObjectBaseINS_6MatrixIdLi3ELi1ELi0ELi3ELi1EEEE10resizeLikeINS_13CwiseBinaryOpINS_8internal13scalar_sum_opIddEEKNS1_IdLin1ELi1ELi0ELin1ELi1EEEKNS_7ProductINS1_IdLi3ELi3ELi0ELi3ELi3EEES2_Li0EEEEEEEvRKNS_9EigenBaseIT_EE
000000000041fc88 W _ZN5Eigen15PlainObjectBaseINS_6MatrixIdLi3ELi1ELi0ELi3ELi1EEEE10resizeLikeINS_13CwiseBinaryOpINS_8internal13scalar_sum_opIddEEKNS_7ProductINS_12SparseMatrixIdLi1EiEENS1_IdLin1ELi1ELi0ELin1ELi1EEELi0EEESE_EEEEvRKNS_9EigenBaseIT_EE
00000000003f3860 W _ZN5Eigen15PlainObjectBaseINS_6MatrixIdLi3ELi1ELi0ELi3ELi1EEEE10resizeLikeINS_13CwiseBinaryOpINS_8internal17scalar_product_opIddEEKNS_14CwiseNullaryOpINS6_18scalar_constant_opIdEEKS2_EEKNS5_INS6_20scalar_difference_opIddEEKNS5_IS8_SE_KNS_5BlockIKNS9_INS6_18scalar_identity_opIdEENS1_IdLi3ELi3ELi0ELi3ELi3EEEEELi3ELi1ELb0EEEEEKNS5_IS8_SE_SC_EEEEEEEEvRKNS_9EigenBaseIT_EE
00000000003f342c W _ZN5Eigen15PlainObjectBaseINS_6MatrixIdLi3ELi1ELi0ELi3ELi1EEEE10resizeLikeINS_13CwiseBinaryOpINS_8internal17scalar_product_opIddEEKS2_S9_EEEEvRKNS_9EigenBaseIT_EE
00000000003f3e98 W _ZN5Eigen15PlainObjectBaseINS_6MatrixIdLi3ELi1ELi0ELi3ELi1EEEE10resizeLikeINS_13CwiseBinaryOpINS_8internal18scalar_quotient_opIddEEKS2_KNS_14CwiseNullaryOpINS6_18scalar_constant_opIdEES9_EEEEEEvRKNS_9EigenBaseIT_EE
0000000000391b20 W _ZN5Eigen15PlainObjectBaseINS_6MatrixIdLi3ELi1ELi0ELi3ELi1EEEE10resizeLikeINS_13CwiseBinaryOpINS_8internal20scalar_difference_opIddEEKS2_S9_EEEEvRKNS_9EigenBaseIT_EE
00000000003cc432 W _ZN5Eigen15PlainObjectBaseINS_6MatrixIdLi3ELi1ELi0ELi3ELi1EEEE10resizeLikeINS_16PartialReduxExprINS1_IdLi3ELi3ELi0ELi3ELi3EEENS_8internal10member_sumIdEELi1EEEEEvRKNS_9EigenBaseIT_EE
000000000036734c W _ZN5Eigen15PlainObjectBaseINS_6MatrixIdLi3ELi1ELi0ELi3ELi1EEEE10resizeLikeINS1_IdLin1ELi1ELi0ELin1ELi1EEEEEvRKNS_9EigenBaseIT_EE
00000000003914cc W _ZN5Eigen15PlainObjectBaseINS_6MatrixIdLi3ELi1ELi0ELi3ELi1EEEE10resizeLikeINS_7ProductINS_12SparseMatrixIdLi1EiEES2_Li0EEEEEvRKNS_9EigenBaseIT_EE
0000000000391200 W _ZN5Eigen15PlainObjectBaseINS_6MatrixIdLi3ELi1ELi0ELi3ELi1EEEE10resizeLikeINS_7ProductINS5_INS_12SparseMatrixIdLi1EiEENS_9TransposeIKNS1_IdLi3ELi3ELi0ELi3ELi3EEEEELi0EEES2_Li0EEEEEvRKNS_9EigenBaseIT_EE
0000000000341092 W _ZN5Eigen15PlainObjectBaseINS_6MatrixIdLi3ELi1ELi0ELi3ELi1EEEE12_set_noaliasINS_13CwiseBinaryOpINS_8internal13scalar_sum_opIddEEKNS1_IdLin1ELi1ELi0ELin1ELi1EEEKNS_7ProductINS1_IdLi3ELi3ELi0ELi3ELi3EEES2_Li0EEEEEEERS2_RKNS_9DenseBaseIT_EE
000000000041fd52 W _ZN5Eigen15PlainObjectBaseINS_6MatrixIdLi3ELi1ELi0ELi3ELi1EEEE12_set_noaliasINS_13CwiseBinaryOpINS_8internal13scalar_sum_opIddEEKNS_7ProductINS_12SparseMatrixIdLi1EiEENS1_IdLin1ELi1ELi0ELin1ELi1EEELi0EEESE_EEEERS2_RKNS_9DenseBaseIT_EE
00000000003f392a W _ZN5Eigen15PlainObjectBaseINS_6MatrixIdLi3ELi1ELi0ELi3ELi1EEEE12_set_noaliasINS_13CwiseBinaryOpINS_8internal17scalar_product_opIddEEKNS_14CwiseNullaryOpINS6_18scalar_constant_opIdEEKS2_EEKNS5_INS6_20scalar_difference_opIddEEKNS5_IS8_SE_KNS_5BlockIKNS9_INS6_18scalar_identity_opIdEENS1_IdLi3ELi3ELi0ELi3ELi3EEEEELi3ELi1ELb0EEEEEKNS5_IS8_SE_SC_EEEEEEEERS2_RKNS_9DenseBaseIT_EE
00000000003f34f6 W _ZN5Eigen15PlainObjectBaseINS_6MatrixIdLi3ELi1ELi0ELi3ELi1EEEE12_set_noaliasINS_13CwiseBinaryOpINS_8internal17scalar_product_opIddEEKS2_S9_EEEERS2_RKNS_9DenseBaseIT_EE
00000000003f3f62 W _ZN5Eigen15PlainObjectBaseINS_6MatrixIdLi3ELi1ELi0ELi3ELi1EEEE12_set_noaliasINS_13CwiseBinaryOpINS_8internal18scalar_quotient_opIddEEKS2_KNS_14CwiseNullaryOpINS6_18scalar_constant_opIdEES9_EEEEEERS2_RKNS_9DenseBaseIT_EE
0000000000391bea W _ZN5Eigen15PlainObjectBaseINS_6MatrixIdLi3ELi1ELi0ELi3ELi1EEEE12_set_noaliasINS_13CwiseBinaryOpINS_8internal20scalar_difference_opIddEEKS2_S9_EEEERS2_RKNS_9DenseBaseIT_EE
00000000003cc4fc W _ZN5Eigen15PlainObjectBaseINS_6MatrixIdLi3ELi1ELi0ELi3ELi1EEEE12_set_noaliasINS_16PartialReduxExprINS1_IdLi3ELi3ELi0ELi3ELi3EEENS_8internal10member_sumIdEELi1EEEEERS2_RKNS_9DenseBaseIT_EE
0000000000367416 W _ZN5Eigen15PlainObjectBaseINS_6MatrixIdLi3ELi1ELi0ELi3ELi1EEEE12_set_noaliasINS1_IdLin1ELi1ELi0ELin1ELi1EEEEERS2_RKNS_9DenseBaseIT_EE
0000000000391596 W _ZN5Eigen15PlainObjectBaseINS_6MatrixIdLi3ELi1ELi0ELi3ELi1EEEE12_set_noaliasINS_7ProductINS_12SparseMatrixIdLi1EiEES2_Li0EEEEERS2_RKNS_9DenseBaseIT_EE
00000000003912ca W _ZN5Eigen15PlainObjectBaseINS_6MatrixIdLi3ELi1ELi0ELi3ELi1EEEE12_set_noaliasINS_7ProductINS5_INS_12SparseMatrixIdLi1EiEENS_9TransposeIKNS1_IdLi3ELi3ELi0ELi3ELi3EEEEELi0EEES2_Li0EEEEERS2_RKNS_9DenseBaseIT_EE
000000000033b5b9 W _ZN5Eigen15PlainObjectBaseINS_6MatrixIdLi3ELi1ELi0ELi3ELi1EEEE22_check_template_paramsEv
00000000003792d4 W _ZN5Eigen15PlainObjectBaseINS_6MatrixIdLi3ELi1ELi0ELi3ELi1EEEE4baseEv
000000000037907a W _ZN5Eigen15PlainObjectBaseINS_6MatrixIdLi3ELi1ELi0ELi3ELi1EEEE4_setINS_14CwiseNullaryOpINS_8internal18scalar_constant_opIdEES2_EEEERS2_RKNS_9DenseBaseIT_EE
00000000003811a0 W _ZN5Eigen15PlainObjectBaseINS_6MatrixIdLi3ELi1ELi0ELi3ELi1EEEE4_setIS2_EERS2_RKNS_9DenseBaseIT_EE
0000000000377410 W _ZN5Eigen15PlainObjectBaseINS_6MatrixIdLi3ELi1ELi0ELi3ELi1EEEE4swapIS2_EEvRNS_9DenseBaseIT_EE
0000000000344ab2 W _ZN5Eigen15PlainObjectBaseINS_6MatrixIdLi3ELi1ELi0ELi3ELi1EEEE6resizeEll
0000000000377550 W _ZN5Eigen15PlainObjectBaseINS_6MatrixIdLi3ELi1ELi0ELi3ELi1EEEE8coeffRefEll
000000000037e2f2 W _ZN5Eigen15PlainObjectBaseINS_6MatrixIdLi3ELi1ELi0ELi3ELi1EEEEC1EOS3_
0000000000377028 W _ZN5Eigen15PlainObjectBaseINS_6MatrixIdLi3ELi1ELi0ELi3ELi1EEEEC1ERKS3_
000000000033b592 W _ZN5Eigen15PlainObjectBaseINS_6MatrixIdLi3ELi1ELi0ELi3ELi1EEEEC1Ev
000000000033d128 W _ZN5Eigen15PlainObjectBaseINS_6MatrixIdLi3ELi1ELi0ELi3ELi1EEEEC1INS_13CwiseBinaryOpINS_8internal13scalar_sum_opIddEEKNS1_IdLin1ELi1ELi0ELin1ELi1EEEKNS_7ProductINS1_IdLi3ELi3ELi0ELi3ELi3EEES2_Li0EEEEEEERKNS_9DenseBaseIT_EE
000000000041c87c W _ZN5Eigen15PlainObjectBaseINS_6MatrixIdLi3ELi1ELi0ELi3ELi1EEEEC1INS_13CwiseBinaryOpINS_8internal13scalar_sum_opIddEEKNS_7ProductINS_12SparseMatrixIdLi1EiEENS1_IdLin1ELi1ELi0ELin1ELi1EEELi0EEESE_EEEERKNS_9DenseBaseIT_EE
00000000003f2e7e W _ZN5Eigen15PlainObjectBaseINS_6MatrixIdLi3ELi1ELi0ELi3ELi1EEEEC1INS_13CwiseBinaryOpINS_8internal17scalar_product_opIddEEKNS_14CwiseNullaryOpINS6_18scalar_constant_opIdEEKS2_EEKNS5_INS6_20scalar_difference_opIddEEKNS5_IS8_SE_KNS_5BlockIKNS9_INS6_18scalar_identity_opIdEENS1_IdLi3ELi3ELi0ELi3ELi3EEEEELi3ELi1ELb0EEEEEKNS5_IS8_SE_SC_EEEEEEEERKNS_9DenseBaseIT_EE
00000000003f2810 W _ZN5Eigen15PlainObjectBaseINS_6MatrixIdLi3ELi1ELi0ELi3ELi1EEEEC1INS_13CwiseBinaryOpINS_8internal17scalar_product_opIddEEKS2_S9_EEEERKNS_9DenseBaseIT_EE
00000000003f32aa W _ZN5Eigen15PlainObjectBaseINS_6MatrixIdLi3ELi1ELi0ELi3ELi1EEEEC1INS_13CwiseBinaryOpINS_8internal18scalar_quotient_opIddEEKS2_KNS_14CwiseNullaryOpINS6_18scalar_constant_opIdEES9_EEEEEERKNS_9DenseBaseIT_EE
000000000038e1bc W _ZN5Eigen15PlainObjectBaseINS_6MatrixIdLi3ELi1ELi0ELi3ELi1EEEEC1INS_13CwiseBinaryOpINS_8internal20scalar_difference_opIddEEKS2_S9_EEEERKNS_9DenseBaseIT_EE
00000000003cbdea W _ZN5Eigen15PlainObjectBaseINS_6MatrixIdLi3ELi1ELi0ELi3ELi1EEEEC1INS_16PartialReduxExprINS1_IdLi3ELi3ELi0ELi3ELi3EEENS_8internal10member_sumIdEELi1EEEEERKNS_9DenseBaseIT_EE
0000000000365ea2 W _ZN5Eigen15PlainObjectBaseINS_6MatrixIdLi3ELi1ELi0ELi3ELi1EEEEC1INS1_IdLin1ELi1ELi0ELin1ELi1EEEEERKNS_9DenseBaseIT_EE
000000000038d98a W _ZN5Eigen15PlainObjectBaseINS_6MatrixIdLi3ELi1ELi0ELi3ELi1EEEEC1INS_7ProductINS_12SparseMatrixIdLi1EiEES2_Li0EEEEERKNS_9DenseBaseIT_EE
000000000038d54a W _ZN5Eigen15PlainObjectBaseINS_6MatrixIdLi3ELi1ELi0ELi3ELi1EEEEC1INS_7ProductINS5_INS_12SparseMatrixIdLi1EiEENS_9TransposeIKNS1_IdLi3ELi3ELi0ELi3ELi3EEEEELi0EEES2_Li0EEEEERKNS_9DenseBaseIT_EE
000000000037e2f2 W _ZN5Eigen15PlainObjectBaseINS_6MatrixIdLi3ELi1ELi0ELi3ELi1EEEEC2EOS3_
0000000000377028 W _ZN5Eigen15PlainObjectBaseINS_6MatrixIdLi3ELi1ELi0ELi3ELi1EEEEC2ERKS3_
000000000033b592 W _ZN5Eigen15PlainObjectBaseINS_6MatrixIdLi3ELi1ELi0ELi3ELi1EEEEC2Ev
000000000033d128 W _ZN5Eigen15PlainObjectBaseINS_6MatrixIdLi3ELi1ELi0ELi3ELi1EEEEC2INS_13CwiseBinaryOpINS_8internal13scalar_sum_opIddEEKNS1_IdLin1ELi1ELi0ELin1ELi1EEEKNS_7ProductINS1_IdLi3ELi3ELi0ELi3ELi3EEES2_Li0EEEEEEERKNS_9DenseBaseIT_EE
000000000041c87c W _ZN5Eigen15PlainObjectBaseINS_6MatrixIdLi3ELi1ELi0ELi3ELi1EEEEC2INS_13CwiseBinaryOpINS_8internal13scalar_sum_opIddEEKNS_7ProductINS_12SparseMatrixIdLi1EiEENS1_IdLin1ELi1ELi0ELin1ELi1EEELi0EEESE_EEEERKNS_9DenseBaseIT_EE
00000000003f2e7e W _ZN5Eigen15PlainObjectBaseINS_6MatrixIdLi3ELi1ELi0ELi3ELi1EEEEC2INS_13CwiseBinaryOpINS_8internal17scalar_product_opIddEEKNS_14CwiseNullaryOpINS6_18scalar_constant_opIdEEKS2_EEKNS5_INS6_20scalar_difference_opIddEEKNS5_IS8_SE_KNS_5BlockIKNS9_INS6_18scalar_identity_opIdEENS1_IdLi3ELi3ELi0ELi3ELi3EEEEELi3ELi1ELb0EEEEEKNS5_IS8_SE_SC_EEEEEEEERKNS_9DenseBaseIT_EE
00000000003f2810 W _ZN5Eigen15PlainObjectBaseINS_6MatrixIdLi3ELi1ELi0ELi3ELi1EEEEC2INS_13CwiseBinaryOpINS_8internal17scalar_product_opIddEEKS2_S9_EEEERKNS_9DenseBaseIT_EE
00000000003f32aa W _ZN5Eigen15PlainObjectBaseINS_6MatrixIdLi3ELi1ELi0ELi3ELi1EEEEC2INS_13CwiseBinaryOpINS_8internal18scalar_quotient_opIddEEKS2_KNS_14CwiseNullaryOpINS6_18scalar_constant_opIdEES9_EEEEEERKNS_9DenseBaseIT_EE
000000000038e1bc W _ZN5Eigen15PlainObjectBaseINS_6MatrixIdLi3ELi1ELi0ELi3ELi1EEEEC2INS_13CwiseBinaryOpINS_8internal20scalar_difference_opIddEEKS2_S9_EEEERKNS_9DenseBaseIT_EE
00000000003cbdea W _ZN5Eigen15PlainObjectBaseINS_6MatrixIdLi3ELi1ELi0ELi3ELi1EEEEC2INS_16PartialReduxExprINS1_IdLi3ELi3ELi0ELi3ELi3EEENS_8internal10member_sumIdEELi1EEEEERKNS_9DenseBaseIT_EE
0000000000365ea2 W _ZN5Eigen15PlainObjectBaseINS_6MatrixIdLi3ELi1ELi0ELi3ELi1EEEEC2INS1_IdLin1ELi1ELi0ELin1ELi1EEEEERKNS_9DenseBaseIT_EE
000000000038d98a W _ZN5Eigen15PlainObjectBaseINS_6MatrixIdLi3ELi1ELi0ELi3ELi1EEEEC2INS_7ProductINS_12SparseMatrixIdLi1EiEES2_Li0EEEEERKNS_9DenseBaseIT_EE
000000000038d54a W _ZN5Eigen15PlainObjectBaseINS_6MatrixIdLi3ELi1ELi0ELi3ELi1EEEEC2INS_7ProductINS5_INS_12SparseMatrixIdLi1EiEENS_9TransposeIKNS1_IdLi3ELi3ELi0ELi3ELi3EEEEELi0EEES2_Li0EEEEERKNS_9DenseBaseIT_EE
00000000003cc170 W _ZN5Eigen15PlainObjectBaseINS_6MatrixIdLi3ELi3ELi0ELi3ELi3EEEE10resizeLikeINS_12CwiseUnaryOpINS_8internal18scalar_opposite_opIdEEKS2_EEEEvRKNS_9EigenBaseIT_EE
0000000000340e0e W _ZN5Eigen15PlainObjectBaseINS_6MatrixIdLi3ELi3ELi0ELi3ELi3EEEE10resizeLikeINS_12SparseMatrixIdLi1EiEEEEvRKNS_9EigenBaseIT_EE
00000000003cc210 W _ZN5Eigen15PlainObjectBaseINS_6MatrixIdLi3ELi3ELi0ELi3ELi3EEEE12_set_noaliasINS_12CwiseUnaryOpINS_8internal18scalar_opposite_opIdEEKS2_EEEERS2_RKNS_9DenseBaseIT_EE
000000000034492a W _ZN5Eigen15PlainObjectBaseINS_6MatrixIdLi3ELi3ELi0ELi3ELi3EEEE16_resize_to_matchINS_12SparseMatrixIdLi1EiEEEEvRKNS_9EigenBaseIT_EE
000000000033ce71 W _ZN5Eigen15PlainObjectBaseINS_6MatrixIdLi3ELi3ELi0ELi3ELi3EEEE22_check_template_paramsEv
00000000003cc6f8 W _ZN5Eigen15PlainObjectBaseINS_6MatrixIdLi3ELi3ELi0ELi3ELi3EEEE4baseEv
00000000003cbd12 W _ZN5Eigen15PlainObjectBaseINS_6MatrixIdLi3ELi3ELi0ELi3ELi3EEEE4_setINS_13CwiseBinaryOpINS_8internal17scalar_product_opIddEEKNS_12ArrayWrapperIS2_EESB_EEEERS2_RKNS_9DenseBaseIT_EE
0000000000351fcc W _ZN5Eigen15PlainObjectBaseINS_6MatrixIdLi3ELi3ELi0ELi3ELi3EEEE4_setINS_14CwiseNullaryOpINS_8internal18scalar_constant_opIdEES2_EEEERS2_RKNS_9DenseBaseIT_EE
00000000003818f0 W _ZN5Eigen15PlainObjectBaseINS_6MatrixIdLi3ELi3ELi0ELi3ELi3EEEE4_setINS_14CwiseNullaryOpINS_8internal18scalar_identity_opIdEES2_EEEERS2_RKNS_9DenseBaseIT_EE
00000000003811ea W _ZN5Eigen15PlainObjectBaseINS_6MatrixIdLi3ELi3ELi0ELi3ELi3EEEE4_setIS2_EERS2_RKNS_9DenseBaseIT_EE
00000000003cb9e6 W _ZN5Eigen15PlainObjectBaseINS_6MatrixIdLi3ELi3ELi0ELi3ELi3EEEE4swapIS2_EEvRNS_9DenseBaseIT_EE
00000000003448a8 W _ZN5Eigen15PlainObjectBaseINS_6MatrixIdLi3ELi3ELi0ELi3ELi3EEEE6resizeEll
0000000000377712 W _ZN5Eigen15PlainObjectBaseINS_6MatrixIdLi3ELi3ELi0ELi3ELi3EEEE8coeffRefEll
0000000000340eae W _ZN5Eigen15PlainObjectBaseINS_6MatrixIdLi3ELi3ELi0ELi3ELi3EEEEaSINS_12SparseMatrixIdLi1EiEEEERS2_RKNS_9EigenBaseIT_EE
000000000037e4a6 W _ZN5Eigen15PlainObjectBaseINS_6MatrixIdLi3ELi3ELi0ELi3ELi3EEEEC1EOS3_
00000000003773de W _ZN5Eigen15PlainObjectBaseINS_6MatrixIdLi3ELi3ELi0ELi3ELi3EEEEC1ERKS3_
000000000037d658 W _ZN5Eigen15PlainObjectBaseINS_6MatrixIdLi3ELi3ELi0ELi3ELi3EEEEC1Ev
00000000003cbaa2 W _ZN5Eigen15PlainObjectBaseINS_6MatrixIdLi3ELi3ELi0ELi3ELi3EEEEC1INS_12CwiseUnaryOpINS_8internal18scalar_opposite_opIdEEKS2_EEEERKNS_9DenseBaseIT_EE
000000000033ce10 W _ZN5Eigen15PlainObjectBaseINS_6MatrixIdLi3ELi3ELi0ELi3ELi3EEEEC1INS_12SparseMatrixIdLi1EiEEEERKNS_9EigenBaseIT_EE
000000000037e4a6 W _ZN5Eigen15PlainObjectBaseINS_6MatrixIdLi3ELi3ELi0ELi3ELi3EEEEC2EOS3_
00000000003773de W _ZN5Eigen15PlainObjectBaseINS_6MatrixIdLi3ELi3ELi0ELi3ELi3EEEEC2ERKS3_
000000000037d658 W _ZN5Eigen15PlainObjectBaseINS_6MatrixIdLi3ELi3ELi0ELi3ELi3EEEEC2Ev
00000000003cbaa2 W _ZN5Eigen15PlainObjectBaseINS_6MatrixIdLi3ELi3ELi0ELi3ELi3EEEEC2INS_12CwiseUnaryOpINS_8internal18scalar_opposite_opIdEEKS2_EEEERKNS_9DenseBaseIT_EE
000000000033ce10 W _ZN5Eigen15PlainObjectBaseINS_6MatrixIdLi3ELi3ELi0ELi3ELi3EEEEC2INS_12SparseMatrixIdLi1EiEEEERKNS_9EigenBaseIT_EE
000000000041f715 W _ZN5Eigen15PlainObjectBaseINS_6MatrixIdLi4ELi1ELi0ELi4ELi1EEEE22_check_template_paramsEv
0000000000421ea4 W _ZN5Eigen15PlainObjectBaseINS_6MatrixIdLi4ELi1ELi0ELi4ELi1EEEE8coeffRefEl
000000000041f6ee W _ZN5Eigen15PlainObjectBaseINS_6MatrixIdLi4ELi1ELi0ELi4ELi1EEEEC1Ev
000000000041f6ee W _ZN5Eigen15PlainObjectBaseINS_6MatrixIdLi4ELi1ELi0ELi4ELi1EEEEC2Ev
000000000038bc97 W _ZN5Eigen15PlainObjectBaseINS_6MatrixIdLi6ELi1ELi0ELi6ELi1EEEE22_check_template_paramsEv
0000000000397d54 W _ZN5Eigen15PlainObjectBaseINS_6MatrixIdLi6ELi1ELi0ELi6ELi1EEEE4dataEv
000000000038bc70 W _ZN5Eigen15PlainObjectBaseINS_6MatrixIdLi6ELi1ELi0ELi6ELi1EEEEC1Ev
000000000038bc70 W _ZN5Eigen15PlainObjectBaseINS_6MatrixIdLi6ELi1ELi0ELi6ELi1EEEEC2Ev
00000000004017a2 W _ZN5Eigen15PlainObjectBaseINS_6MatrixIdLin1ELi1ELi0ELin1ELi1EEEE10resizeLikeINS_13CwiseBinaryOpINS_8internal13scalar_sum_opIddEEKNS5_INS6_20scalar_difference_opIddEEKNS5_ISA_KNS5_INS6_18scalar_quotient_opIddEEKNS5_INS6_17scalar_product_opIddEEKNS_14CwiseNullaryOpINS6_18scalar_constant_opIdEEKS2_EEKNS5_IS8_SI_SI_EEEESK_EEKNS5_ISC_KNS5_ISE_SK_KNS5_IS8_KNS5_ISE_SK_SI_EESI_EEEESK_EEEEKNS5_ISC_KNS5_ISE_SK_KNS5_IS8_KNS5_IS8_KNS5_ISA_SS_SS_EESS_EESS_EEEESK_EEEES1A_EEEEvRKNS_9EigenBaseIT_EE
000000000035e784 W _ZN5Eigen15PlainObjectBaseINS_6MatrixIdLin1ELi1ELi0ELin1ELi1EEEE10resizeLikeINS_13CwiseBinaryOpINS_8internal13scalar_sum_opIddEEKS2_KNS5_INS6_17scalar_product_opIddEEKNS_14CwiseNullaryOpINS6_18scalar_constant_opIdEES9_EES9_EEEEEEvRKNS_9EigenBaseIT_EE
000000000040b6d8 W _ZN5Eigen15PlainObjectBaseINS_6MatrixIdLin1ELi1ELi0ELin1ELi1EEEE10resizeLikeINS_13CwiseBinaryOpINS_8internal17scalar_product_opIddEEKNS_14CwiseNullaryOpINS6_18scalar_constant_opIdEEKS2_EEKNS5_INS6_20scalar_difference_opIddEESC_KNS5_IS8_SE_SC_EEEEEEEEvRKNS_9EigenBaseIT_EE
000000000035e578 W _ZN5Eigen15PlainObjectBaseINS_6MatrixIdLin1ELi1ELi0ELin1ELi1EEEE10resizeLikeINS_13CwiseBinaryOpINS_8internal18scalar_quotient_opIddEEKS2_KNS_14CwiseNullaryOpINS6_18scalar_constant_opIdEES9_EEEEEEvRKNS_9EigenBaseIT_EE
000000000035e37a W _ZN5Eigen15PlainObjectBaseINS_6MatrixIdLin1ELi1ELi0ELin1ELi1EEEE10resizeLikeINS_13CwiseBinaryOpINS_8internal20scalar_difference_opIddEEKS2_S9_EEEEvRKNS_9EigenBaseIT_EE
00000000003ac494 W _ZN5Eigen15PlainObjectBaseINS_6MatrixIdLin1ELi1ELi0ELin1ELi1EEEE10resizeLikeINS_14CwiseNullaryOpINS_8internal18scalar_constant_opIdEES2_EEEEvRKNS_9EigenBaseIT_EE
0000000000340768 W _ZN5Eigen15PlainObjectBaseINS_6MatrixIdLin1ELi1ELi0ELin1ELi1EEEE10resizeLikeINS1_IdLi3ELi1ELi0ELi3ELi1EEEEEvRKNS_9EigenBaseIT_EE
00000000003d3e5e W _ZN5Eigen15PlainObjectBaseINS_6MatrixIdLin1ELi1ELi0ELin1ELi1EEEE10resizeLikeINS_7ProductINS1_IdLin1ELin1ELi0ELin1ELin1EEES2_Li0EEEEEvRKNS_9EigenBaseIT_EE
00000000003da184 W _ZN5Eigen15PlainObjectBaseINS_6MatrixIdLin1ELi1ELi0ELin1ELi1EEEE10resizeLikeINS_7ProductINS5_INS_13CwiseBinaryOpINS_8internal17scalar_product_opIddEEKNS_14CwiseNullaryOpINS7_18scalar_constant_opIdEEKNS1_IdLi1ELin1ELi1ELi1ELin1EEEEEKNS_9TransposeIKNS6_INS7_20scalar_difference_opIddEEKS2_SK_EEEEEENS_15DiagonalWrapperISK_EELi1EEESL_Li0EEEEEvRKNS_9EigenBaseIT_EE
00000000003da384 W _ZN5Eigen15PlainObjectBaseINS_6MatrixIdLin1ELi1ELi0ELin1ELi1EEEE10resizeLikeINS_7ProductINS5_INS_9TransposeINS_12SparseMatrixIdLi1EiEEEENS_15DiagonalWrapperIKS2_EELi0EEENS_13CwiseBinaryOpINS_8internal20scalar_difference_opIddEESB_SB_EELi0EEEEEvRKNS_9EigenBaseIT_EE
00000000004018b6 W _ZN5Eigen15PlainObjectBaseINS_6MatrixIdLin1ELi1ELi0ELin1ELi1EEEE12_set_noaliasINS_13CwiseBinaryOpINS_8internal13scalar_sum_opIddEEKNS5_INS6_20scalar_difference_opIddEEKNS5_ISA_KNS5_INS6_18scalar_quotient_opIddEEKNS5_INS6_17scalar_product_opIddEEKNS_14CwiseNullaryOpINS6_18scalar_constant_opIdEEKS2_EEKNS5_IS8_SI_SI_EEEESK_EEKNS5_ISC_KNS5_ISE_SK_KNS5_IS8_KNS5_ISE_SK_SI_EESI_EEEESK_EEEEKNS5_ISC_KNS5_ISE_SK_KNS5_IS8_KNS5_IS8_KNS5_ISA_SS_SS_EESS_EESS_EEEESK_EEEES1A_EEEERS2_RKNS_9DenseBaseIT_EE
000000000035e898 W _ZN5Eigen15PlainObjectBaseINS_6MatrixIdLin1ELi1ELi0ELin1ELi1EEEE12_set_noaliasINS_13CwiseBinaryOpINS_8internal13scalar_sum_opIddEEKS2_KNS5_INS6_17scalar_product_opIddEEKNS_14CwiseNullaryOpINS6_18scalar_constant_opIdEES9_EES9_EEEEEERS2_RKNS_9DenseBaseIT_EE
000000000040b7ec W _ZN5Eigen15PlainObjectBaseINS_6MatrixIdLin1ELi1ELi0ELin1ELi1EEEE12_set_noaliasINS_13CwiseBinaryOpINS_8internal17scalar_product_opIddEEKNS_14CwiseNullaryOpINS6_18scalar_constant_opIdEEKS2_EEKNS5_INS6_20scalar_difference_opIddEESC_KNS5_IS8_SE_SC_EEEEEEEERS2_RKNS_9DenseBaseIT_EE
000000000035e68c W _ZN5Eigen15PlainObjectBaseINS_6MatrixIdLin1ELi1ELi0ELin1ELi1EEEE12_set_noaliasINS_13CwiseBinaryOpINS_8internal18scalar_quotient_opIddEEKS2_KNS_14CwiseNullaryOpINS6_18scalar_constant_opIdEES9_EEEEEERS2_RKNS_9DenseBaseIT_EE
000000000035e48e W _ZN5Eigen15PlainObjectBaseINS_6MatrixIdLin1ELi1ELi0ELin1ELi1EEEE12_set_noaliasINS_13CwiseBinaryOpINS_8internal20scalar_difference_opIddEEKS2_S9_EEEERS2_RKNS_9DenseBaseIT_EE
00000000003ac5a8 W _ZN5Eigen15PlainObjectBaseINS_6MatrixIdLin1ELi1ELi0ELin1ELi1EEEE12_set_noaliasINS_14CwiseNullaryOpINS_8internal18scalar_constant_opIdEES2_EEEERS2_RKNS_9DenseBaseIT_EE
000000000034087c W _ZN5Eigen15PlainObjectBaseINS_6MatrixIdLin1ELi1ELi0ELin1ELi1EEEE12_set_noaliasINS1_IdLi3ELi1ELi0ELi3ELi1EEEEERS2_RKNS_9DenseBaseIT_EE
00000000003a8808 W _ZN5Eigen15PlainObjectBaseINS_6MatrixIdLin1ELi1ELi0ELin1ELi1EEEE12_set_noaliasINS_7ProductINS_12SparseMatrixIdLi1EiEENS1_IdLi3ELi1ELi0ELi3ELi1EEELi0EEEEERS2_RKNS_9DenseBaseIT_EE
00000000003d3f72 W _ZN5Eigen15PlainObjectBaseINS_6MatrixIdLin1ELi1ELi0ELin1ELi1EEEE12_set_noaliasINS_7ProductINS1_IdLin1ELin1ELi0ELin1ELin1EEES2_Li0EEEEERS2_RKNS_9DenseBaseIT_EE
00000000003da298 W _ZN5Eigen15PlainObjectBaseINS_6MatrixIdLin1ELi1ELi0ELin1ELi1EEEE12_set_noaliasINS_7ProductINS5_INS_13CwiseBinaryOpINS_8internal17scalar_product_opIddEEKNS_14CwiseNullaryOpINS7_18scalar_constant_opIdEEKNS1_IdLi1ELin1ELi1ELi1ELin1EEEEEKNS_9TransposeIKNS6_INS7_20scalar_difference_opIddEEKS2_SK_EEEEEENS_15DiagonalWrapperISK_EELi1EEESL_Li0EEEEERS2_RKNS_9DenseBaseIT_EE
00000000003da498 W _ZN5Eigen15PlainObjectBaseINS_6MatrixIdLin1ELi1ELi0ELin1ELi1EEEE12_set_noaliasINS_7ProductINS5_INS_9TransposeINS_12SparseMatrixIdLi1EiEEEENS_15DiagonalWrapperIKS2_EELi0EEENS_13CwiseBinaryOpINS_8internal20scalar_difference_opIddEESB_SB_EELi0EEEEERS2_RKNS_9DenseBaseIT_EE
0000000000340760 W _ZN5Eigen15PlainObjectBaseINS_6MatrixIdLin1ELi1ELi0ELin1ELi1EEEE22_check_template_paramsEv
00000000003af05a W _ZN5Eigen15PlainObjectBaseINS_6MatrixIdLin1ELi1ELi0ELin1ELi1EEEE4dataEv
00000000003ffa2c W _ZN5Eigen15PlainObjectBaseINS_6MatrixIdLin1ELi1ELi0ELin1ELi1EEEE4_setINS_13CwiseBinaryOpINS_8internal18scalar_quotient_opIddEEKNS_12CwiseUnaryOpINS6_18scalar_opposite_opIdEEKNS5_INS6_13scalar_sum_opIddEEKNS5_INS6_17scalar_product_opIddEEKNS_14CwiseNullaryOpINS6_18scalar_constant_opIdEEKS2_EEKNS5_INS6_20scalar_difference_opIddEESJ_SJ_EEEEKNS5_ISF_SL_KNS5_ISD_KNS5_ISF_SL_SJ_EESJ_EEEEEEEESL_EEEERS2_RKNS_9DenseBaseIT_EE
00000000003ffef0 W _ZN5Eigen15PlainObjectBaseINS_6MatrixIdLin1ELi1ELi0ELin1ELi1EEEE4_setINS_13CwiseBinaryOpINS_8internal18scalar_quotient_opIddEEKNS5_INS6_13scalar_sum_opIddEEKNS5_INS6_17scalar_product_opIddEEKNS_14CwiseNullaryOpINS6_18scalar_constant_opIdEEKS2_EEKNS5_INS6_20scalar_difference_opIddEESG_SG_EEEEKNS5_ISC_SI_KNS5_ISA_SG_SG_EEEEEESI_EEEERS2_RKNS_9DenseBaseIT_EE
0000000000368f3a W _ZN5Eigen15PlainObjectBaseINS_6MatrixIdLin1ELi1ELi0ELin1ELi1EEEE4_setINS_14CwiseNullaryOpINS_8internal18scalar_constant_opIdEES2_EEEERS2_RKNS_9DenseBaseIT_EE
00000000003d3c04 W _ZN5Eigen15PlainObjectBaseINS_6MatrixIdLin1ELi1ELi0ELin1ELi1EEEE4_setIS2_EERS2_RKNS_9DenseBaseIT_EE
00000000003d9702 W _ZN5Eigen15PlainObjectBaseINS_6MatrixIdLin1ELi1ELi0ELin1ELi1EEEE4swapIS2_EEvRNS_9DenseBaseIT_EE
000000000035c930 W _ZN5Eigen15PlainObjectBaseINS_6MatrixIdLin1ELi1ELi0ELin1ELi1EEEE6_init1IiEEvlPNS_8internal9enable_ifIXaaooneLNS_9DenseBaseIS2_EUt_En1ELi1EntsrNS5_14is_convertibleIT_dEE5valueoontLNS5_7is_sameINS_9MatrixXprENS_8ArrayXprEEUt_E0EeqLS9_n1EL_ZNS_L7DynamicEEESB_E4typeE
00000000003a7d3c W _ZN5Eigen15PlainObjectBaseINS_6MatrixIdLin1ELi1ELi0ELin1ELi1EEEE6_init1INS_7ProductINS_12SparseMatrixIdLi1EiEENS1_IdLi3ELi1ELi0ELi3ELi1EEELi0EEES9_EEvRKNS_9DenseBaseIT0_EE
00000000003a5ec2 W _ZN5Eigen15PlainObjectBaseINS_6MatrixIdLin1ELi1ELi0ELin1ELi1EEEE6_init2IllEEvllPNS_8internal9enable_ifILb1ET_E4typeE
000000000035dbe6 W _ZN5Eigen15PlainObjectBaseINS_6MatrixIdLin1ELi1ELi0ELin1ELi1EEEE6resizeEl
00000000003442aa W _ZN5Eigen15PlainObjectBaseINS_6MatrixIdLin1ELi1ELi0ELin1ELi1EEEE6resizeEll
00000000003a9102 W _ZN5Eigen15PlainObjectBaseINS_6MatrixIdLin1ELi1ELi0ELin1ELi1EEEE8coeffRefEll
0000000000400b22 W _ZN5Eigen15PlainObjectBaseINS_6MatrixIdLin1ELi1ELi0ELin1ELi1EEEEC1EOS3_
0000000000361460 W _ZN5Eigen15PlainObjectBaseINS_6MatrixIdLin1ELi1ELi0ELin1ELi1EEEEC1ERKS3_
000000000035c908 W _ZN5Eigen15PlainObjectBaseINS_6MatrixIdLin1ELi1ELi0ELin1ELi1EEEEC1Ev
0000000000400a9c W _ZN5Eigen15PlainObjectBaseINS_6MatrixIdLin1ELi1ELi0ELin1ELi1EEEEC1INS_13CwiseBinaryOpINS_8internal13scalar_sum_opIddEEKNS5_INS6_20scalar_difference_opIddEEKNS5_ISA_KNS5_INS6_18scalar_quotient_opIddEEKNS5_INS6_17scalar_product_opIddEEKNS_14CwiseNullaryOpINS6_18scalar_constant_opIdEEKS2_EEKNS5_IS8_SI_SI_EEEESK_EEKNS5_ISC_KNS5_ISE_SK_KNS5_IS8_KNS5_ISE_SK_SI_EESI_EEEESK_EEEEKNS5_ISC_KNS5_ISE_SK_KNS5_IS8_KNS5_IS8_KNS5_ISA_SS_SS_EESS_EESS_EEEESK_EEEES1A_EEEERKNS_9DenseBaseIT_EE
000000000035d8a6 W _ZN5Eigen15PlainObjectBaseINS_6MatrixIdLin1ELi1ELi0ELin1ELi1EEEEC1INS_13CwiseBinaryOpINS_8internal13scalar_sum_opIddEEKS2_KNS5_INS6_17scalar_product_opIddEEKNS_14CwiseNullaryOpINS6_18scalar_constant_opIdEES9_EES9_EEEEEERKNS_9DenseBaseIT_EE
000000000040b628 W _ZN5Eigen15PlainObjectBaseINS_6MatrixIdLin1ELi1ELi0ELin1ELi1EEEEC1INS_13CwiseBinaryOpINS_8internal17scalar_product_opIddEEKNS_14CwiseNullaryOpINS6_18scalar_constant_opIdEEKS2_EEKNS5_INS6_20scalar_difference_opIddEESC_KNS5_IS8_SE_SC_EEEEEEEERKNS_9DenseBaseIT_EE
000000000035d636 W _ZN5Eigen15PlainObjectBaseINS_6MatrixIdLin1ELi1ELi0ELin1ELi1EEEEC1INS_13CwiseBinaryOpINS_8internal18scalar_quotient_opIddEEKS2_KNS_14CwiseNullaryOpINS6_18scalar_constant_opIdEES9_EEEEEERKNS_9DenseBaseIT_EE
000000000035d3de W _ZN5Eigen15PlainObjectBaseINS_6MatrixIdLin1ELi1ELi0ELin1ELi1EEEEC1INS_13CwiseBinaryOpINS_8internal20scalar_difference_opIddEEKS2_S9_EEEERKNS_9DenseBaseIT_EE
00000000003ac346 W _ZN5Eigen15PlainObjectBaseINS_6MatrixIdLin1ELi1ELi0ELin1ELi1EEEEC1INS_14CwiseNullaryOpINS_8internal18scalar_constant_opIdEES2_EEEERKNS_9DenseBaseIT_EE
000000000033c92e W _ZN5Eigen15PlainObjectBaseINS_6MatrixIdLin1ELi1ELi0ELin1ELi1EEEEC1INS1_IdLi3ELi1ELi0ELi3ELi1EEEEERKNS_9DenseBaseIT_EE
00000000003d3d14 W _ZN5Eigen15PlainObjectBaseINS_6MatrixIdLin1ELi1ELi0ELin1ELi1EEEEC1INS_7ProductINS1_IdLin1ELin1ELi0ELin1ELin1EEES2_Li0EEEEERKNS_9DenseBaseIT_EE
00000000003d9bc6 W _ZN5Eigen15PlainObjectBaseINS_6MatrixIdLin1ELi1ELi0ELin1ELi1EEEEC1INS_7ProductINS5_INS_13CwiseBinaryOpINS_8internal17scalar_product_opIddEEKNS_14CwiseNullaryOpINS7_18scalar_constant_opIdEEKNS1_IdLi1ELin1ELi1ELi1ELin1EEEEEKNS_9TransposeIKNS6_INS7_20scalar_difference_opIddEEKS2_SK_EEEEEENS_15DiagonalWrapperISK_EELi1EEESL_Li0EEEEERKNS_9DenseBaseIT_EE
00000000003d9de8 W _ZN5Eigen15PlainObjectBaseINS_6MatrixIdLin1ELi1ELi0ELin1ELi1EEEEC1INS_7ProductINS5_INS_9TransposeINS_12SparseMatrixIdLi1EiEEEENS_15DiagonalWrapperIKS2_EELi0EEENS_13CwiseBinaryOpINS_8internal20scalar_difference_opIddEESB_SB_EELi0EEEEERKNS_9DenseBaseIT_EE
0000000000400b22 W _ZN5Eigen15PlainObjectBaseINS_6MatrixIdLin1ELi1ELi0ELin1ELi1EEEEC2EOS3_
0000000000361460 W _ZN5Eigen15PlainObjectBaseINS_6MatrixIdLin1ELi1ELi0ELin1ELi1EEEEC2ERKS3_
000000000035c908 W _ZN5Eigen15PlainObjectBaseINS_6MatrixIdLin1ELi1ELi0ELin1ELi1EEEEC2Ev
0000000000400a9c W _ZN5Eigen15PlainObjectBaseINS_6MatrixIdLin1ELi1ELi0ELin1ELi1EEEEC2INS_13CwiseBinaryOpINS_8internal13scalar_sum_opIddEEKNS5_INS6_20scalar_difference_opIddEEKNS5_ISA_KNS5_INS6_18scalar_quotient_opIddEEKNS5_INS6_17scalar_product_opIddEEKNS_14CwiseNullaryOpINS6_18scalar_constant_opIdEEKS2_EEKNS5_IS8_SI_SI_EEEESK_EEKNS5_ISC_KNS5_ISE_SK_KNS5_IS8_KNS5_ISE_SK_SI_EESI_EEEESK_EEEEKNS5_ISC_KNS5_ISE_SK_KNS5_IS8_KNS5_IS8_KNS5_ISA_SS_SS_EESS_EESS_EEEESK_EEEES1A_EEEERKNS_9DenseBaseIT_EE
000000000035d8a6 W _ZN5Eigen15PlainObjectBaseINS_6MatrixIdLin1ELi1ELi0ELin1ELi1EEEEC2INS_13CwiseBinaryOpINS_8internal13scalar_sum_opIddEEKS2_KNS5_INS6_17scalar_product_opIddEEKNS_14CwiseNullaryOpINS6_18scalar_constant_opIdEES9_EES9_EEEEEERKNS_9DenseBaseIT_EE
000000000040b628 W _ZN5Eigen15PlainObjectBaseINS_6MatrixIdLin1ELi1ELi0ELin1ELi1EEEEC2INS_13CwiseBinaryOpINS_8internal17scalar_product_opIddEEKNS_14CwiseNullaryOpINS6_18scalar_constant_opIdEEKS2_EEKNS5_INS6_20scalar_difference_opIddEESC_KNS5_IS8_SE_SC_EEEEEEEERKNS_9DenseBaseIT_EE
000000000035d636 W _ZN5Eigen15PlainObjectBaseINS_6MatrixIdLin1ELi1ELi0ELin1ELi1EEEEC2INS_13CwiseBinaryOpINS_8internal18scalar_quotient_opIddEEKS2_KNS_14CwiseNullaryOpINS6_18scalar_constant_opIdEES9_EEEEEERKNS_9DenseBaseIT_EE
000000000035d3de W _ZN5Eigen15PlainObjectBaseINS_6MatrixIdLin1ELi1ELi0ELin1ELi1EEEEC2INS_13CwiseBinaryOpINS_8internal20scalar_difference_opIddEEKS2_S9_EEEERKNS_9DenseBaseIT_EE
00000000003ac346 W _ZN5Eigen15PlainObjectBaseINS_6MatrixIdLin1ELi1ELi0ELin1ELi1EEEEC2INS_14CwiseNullaryOpINS_8internal18scalar_constant_opIdEES2_EEEERKNS_9DenseBaseIT_EE
000000000033c92e W _ZN5Eigen15PlainObjectBaseINS_6MatrixIdLin1ELi1ELi0ELin1ELi1EEEEC2INS1_IdLi3ELi1ELi0ELi3ELi1EEEEERKNS_9DenseBaseIT_EE
00000000003d3d14 W _ZN5Eigen15PlainObjectBaseINS_6MatrixIdLin1ELi1ELi0ELin1ELi1EEEEC2INS_7ProductINS1_IdLin1ELin1ELi0ELin1ELin1EEES2_Li0EEEEERKNS_9DenseBaseIT_EE
00000000003d9bc6 W _ZN5Eigen15PlainObjectBaseINS_6MatrixIdLin1ELi1ELi0ELin1ELi1EEEEC2INS_7ProductINS5_INS_13CwiseBinaryOpINS_8internal17scalar_product_opIddEEKNS_14CwiseNullaryOpINS7_18scalar_constant_opIdEEKNS1_IdLi1ELin1ELi1ELi1ELin1EEEEEKNS_9TransposeIKNS6_INS7_20scalar_difference_opIddEEKS2_SK_EEEEEENS_15DiagonalWrapperISK_EELi1EEESL_Li0EEEEERKNS_9DenseBaseIT_EE
00000000003d9de8 W _ZN5Eigen15PlainObjectBaseINS_6MatrixIdLin1ELi1ELi0ELin1ELi1EEEEC2INS_7ProductINS5_INS_9TransposeINS_12SparseMatrixIdLi1EiEEEENS_15DiagonalWrapperIKS2_EELi0EEENS_13CwiseBinaryOpINS_8internal20scalar_difference_opIddEESB_SB_EELi0EEEEERKNS_9DenseBaseIT_EE
00000000003380d4 W _ZN5Eigen15PlainObjectBaseINS_6MatrixIdLin1ELi1ELi0ELin1ELi1EEEED1Ev
00000000003380d4 W _ZN5Eigen15PlainObjectBaseINS_6MatrixIdLin1ELi1ELi0ELin1ELi1EEEED2Ev
00000000003a4c42 W _ZN5Eigen15PlainObjectBaseINS_6MatrixIdLin1ELi3ELi0ELin1ELi3EEEE12_set_noaliasINS_7ProductINS_12SparseMatrixIdLi1EiEENS_9TransposeIKNS1_IdLi3ELi3ELi0ELi3ELi3EEEEELi0EEEEERS2_RKNS_9DenseBaseIT_EE
00000000003a3ba9 W _ZN5Eigen15PlainObjectBaseINS_6MatrixIdLin1ELi3ELi0ELin1ELi3EEEE22_check_template_paramsEv
00000000003aa438 W _ZN5Eigen15PlainObjectBaseINS_6MatrixIdLin1ELi3ELi0ELin1ELi3EEEE4dataEv
00000000003a920a W _ZN5Eigen15PlainObjectBaseINS_6MatrixIdLin1ELi3ELi0ELin1ELi3EEEE4_setINS_14CwiseNullaryOpINS_8internal18scalar_constant_opIdEES2_EEEERS2_RKNS_9DenseBaseIT_EE
00000000003a3bb0 W _ZN5Eigen15PlainObjectBaseINS_6MatrixIdLin1ELi3ELi0ELin1ELi3EEEE6_init1INS_7ProductINS_12SparseMatrixIdLi1EiEENS_9TransposeIKNS1_IdLi3ELi3ELi0ELi3ELi3EEEEELi0EEESC_EEvRKNS_9DenseBaseIT0_EE
00000000003a6e58 W _ZN5Eigen15PlainObjectBaseINS_6MatrixIdLin1ELi3ELi0ELin1ELi3EEEE6resizeEll
00000000003a3b82 W _ZN5Eigen15PlainObjectBaseINS_6MatrixIdLin1ELi3ELi0ELin1ELi3EEEEC1Ev
00000000003a3b82 W _ZN5Eigen15PlainObjectBaseINS_6MatrixIdLin1ELi3ELi0ELin1ELi3EEEEC2Ev
000000000039edfe W _ZN5Eigen15PlainObjectBaseINS_6MatrixIdLin1ELi3ELi0ELin1ELi3EEEED1Ev
000000000039edfe W _ZN5Eigen15PlainObjectBaseINS_6MatrixIdLin1ELi3ELi0ELin1ELi3EEEED2Ev
000000000036e198 W _ZN5Eigen15PlainObjectBaseINS_6MatrixIdLin1ELin1ELi0ELin1ELin1EEEE10resizeLikeINS_14CwiseNullaryOpINS_8internal18scalar_constant_opIdEES2_EEEEvRKNS_9EigenBaseIT_EE
000000000036e282 W _ZN5Eigen15PlainObjectBaseINS_6MatrixIdLin1ELin1ELi0ELin1ELin1EEEE12_set_noaliasINS_14CwiseNullaryOpINS_8internal18scalar_constant_opIdEES2_EEEERS2_RKNS_9DenseBaseIT_EE
000000000036ce63 W _ZN5Eigen15PlainObjectBaseINS_6MatrixIdLin1ELin1ELi0ELin1ELin1EEEE22_check_template_paramsEv
000000000036fe8c W _ZN5Eigen15PlainObjectBaseINS_6MatrixIdLin1ELin1ELi0ELin1ELin1EEEE4dataEv
00000000003d3bba W _ZN5Eigen15PlainObjectBaseINS_6MatrixIdLin1ELin1ELi0ELin1ELin1EEEE4_setIS2_EERS2_RKNS_9DenseBaseIT_EE
000000000036ef44 W _ZN5Eigen15PlainObjectBaseINS_6MatrixIdLin1ELin1ELi0ELin1ELin1EEEE6resizeEll
00000000003d3b92 W _ZN5Eigen15PlainObjectBaseINS_6MatrixIdLin1ELin1ELi0ELin1ELin1EEEEC1Ev
000000000036cdec W _ZN5Eigen15PlainObjectBaseINS_6MatrixIdLin1ELin1ELi0ELin1ELin1EEEEC1INS_14CwiseNullaryOpINS_8internal18scalar_constant_opIdEES2_EEEERKNS_9DenseBaseIT_EE
00000000003d3b92 W _ZN5Eigen15PlainObjectBaseINS_6MatrixIdLin1ELin1ELi0ELin1ELin1EEEEC2Ev
000000000036cdec W _ZN5Eigen15PlainObjectBaseINS_6MatrixIdLin1ELin1ELi0ELin1ELin1EEEEC2INS_14CwiseNullaryOpINS_8internal18scalar_constant_opIdEES2_EEEERKNS_9DenseBaseIT_EE
000000000036b7b0 W _ZN5Eigen15PlainObjectBaseINS_6MatrixIdLin1ELin1ELi0ELin1ELin1EEEED1Ev
000000000036b7b0 W _ZN5Eigen15PlainObjectBaseINS_6MatrixIdLin1ELin1ELi0ELin1ELin1EEEED2Ev
000000000036f409 W _ZN5Eigen15PlainObjectBaseINS_6MatrixIiLin1ELi1ELi0ELin1ELi1EEEE22_check_template_paramsEv
000000000036f61e W _ZN5Eigen15PlainObjectBaseINS_6MatrixIiLin1ELi1ELi0ELin1ELi1EEEE6_init1IlEEvlPNS_8internal9enable_ifIXaaooneLNS_9DenseBaseIS2_EUt_En1ELi1EntsrNS5_14is_convertibleIT_iEE5valueoontLNS5_7is_sameINS_9MatrixXprENS_8ArrayXprEEUt_E0EeqLS9_n1EL_ZNS_L7DynamicEEESB_E4typeE
000000000037044e W _ZN5Eigen15PlainObjectBaseINS_6MatrixIiLin1ELi1ELi0ELin1ELi1EEEE6resizeEl
000000000036f5f6 W _ZN5Eigen15PlainObjectBaseINS_6MatrixIiLin1ELi1ELi0ELin1ELi1EEEEC1Ev
000000000036f5f6 W _ZN5Eigen15PlainObjectBaseINS_6MatrixIiLin1ELi1ELi0ELin1ELi1EEEEC2Ev
000000000036d168 W _ZN5Eigen15PlainObjectBaseINS_6MatrixIiLin1ELi1ELi0ELin1ELi1EEEED1Ev
000000000036d168 W _ZN5Eigen15PlainObjectBaseINS_6MatrixIiLin1ELi1ELi0ELin1ELi1EEEED2Ev
000000000039762c W _ZN5Eigen15PlainObjectBaseINS_6MatrixIlLin1ELi1ELi0ELin1ELi1EEEE22_check_template_paramsEv
00000000003976ea W _ZN5Eigen15PlainObjectBaseINS_6MatrixIlLin1ELi1ELi0ELin1ELi1EEEE6_init1IlEEvlPNS_8internal9enable_ifIXaaooneLNS_9DenseBaseIS2_EUt_En1ELi1EntsrNS5_14is_convertibleIT_lEE5valueoontLNS5_7is_sameINS_9MatrixXprENS_8ArrayXprEEUt_E0EeqLS9_n1EL_ZNS_L7DynamicEEESB_E4typeE
0000000000399a96 W _ZN5Eigen15PlainObjectBaseINS_6MatrixIlLin1ELi1ELi0ELin1ELi1EEEE6resizeEl
00000000003976c2 W _ZN5Eigen15PlainObjectBaseINS_6MatrixIlLin1ELi1ELi0ELin1ELi1EEEEC1Ev
00000000003976c2 W _ZN5Eigen15PlainObjectBaseINS_6MatrixIlLin1ELi1ELi0ELin1ELi1EEEEC2Ev
000000000039241a W _ZN5Eigen15PlainObjectBaseINS_6MatrixIlLin1ELi1ELi0ELin1ELi1EEEED1Ev
000000000039241a W _ZN5Eigen15PlainObjectBaseINS_6MatrixIlLin1ELi1ELi0ELin1ELi1EEEED2Ev
00000000003774be W _ZN5Eigen16CommaInitializerINS_6MatrixIdLi3ELi1ELi0ELi3ELi1EEEE8finishedEv
0000000000377450 W _ZN5Eigen16CommaInitializerINS_6MatrixIdLi3ELi1ELi0ELi3ELi1EEEEC1ERS2_RKd
0000000000377450 W _ZN5Eigen16CommaInitializerINS_6MatrixIdLi3ELi1ELi0ELi3ELi1EEEEC2ERS2_RKd
00000000003760b8 W _ZN5Eigen16CommaInitializerINS_6MatrixIdLi3ELi1ELi0ELi3ELi1EEEEcmERKd
000000000037609c W _ZN5Eigen16CommaInitializerINS_6MatrixIdLi3ELi1ELi0ELi3ELi1EEEED1Ev
000000000037609c W _ZN5Eigen16CommaInitializerINS_6MatrixIdLi3ELi1ELi0ELi3ELi1EEEED2Ev
0000000000377680 W _ZN5Eigen16CommaInitializerINS_6MatrixIdLi3ELi3ELi0ELi3ELi3EEEE8finishedEv
0000000000377612 W _ZN5Eigen16CommaInitializerINS_6MatrixIdLi3ELi3ELi0ELi3ELi3EEEEC1ERS2_RKd
0000000000377612 W _ZN5Eigen16CommaInitializerINS_6MatrixIdLi3ELi3ELi0ELi3ELi3EEEEC2ERS2_RKd
0000000000376292 W _ZN5Eigen16CommaInitializerINS_6MatrixIdLi3ELi3ELi0ELi3ELi3EEEEcmERKd
0000000000376276 W _ZN5Eigen16CommaInitializerINS_6MatrixIdLi3ELi3ELi0ELi3ELi3EEEED1Ev
0000000000376276 W _ZN5Eigen16CommaInitializerINS_6MatrixIdLi3ELi3ELi0ELi3ELi3EEEED2Ev
00000000003f35b2 W _ZN5Eigen16CwiseUnaryOpImplINS_8internal14scalar_abs2_opIdEEKNS_6MatrixIdLi3ELi1ELi0ELi3ELi1EEENS_5DenseEEC1Ev
00000000003f35b2 W _ZN5Eigen16CwiseUnaryOpImplINS_8internal14scalar_abs2_opIdEEKNS_6MatrixIdLi3ELi1ELi0ELi3ELi1EEENS_5DenseEEC2Ev
000000000038ccb0 W _ZN5Eigen16CwiseUnaryOpImplINS_8internal18scalar_opposite_opIdEEKNS_12SparseMatrixIdLi1EiEENS_6SparseEEC1Ev
000000000038ccb0 W _ZN5Eigen16CwiseUnaryOpImplINS_8internal18scalar_opposite_opIdEEKNS_12SparseMatrixIdLi1EiEENS_6SparseEEC2Ev
00000000003ff866 W _ZN5Eigen16CwiseUnaryOpImplINS_8internal18scalar_opposite_opIdEEKNS_13CwiseBinaryOpINS1_13scalar_sum_opIddEEKNS4_INS1_17scalar_product_opIddEEKNS_14CwiseNullaryOpINS1_18scalar_constant_opIdEEKNS_6MatrixIdLin1ELi1ELi0ELin1ELi1EEEEEKNS4_INS1_20scalar_difference_opIddEESE_SE_EEEEKNS4_IS8_SG_KNS4_IS6_KNS4_IS8_SG_SE_EESE_EEEEEENS_5DenseEEC1Ev
00000000003ff866 W _ZN5Eigen16CwiseUnaryOpImplINS_8internal18scalar_opposite_opIdEEKNS_13CwiseBinaryOpINS1_13scalar_sum_opIddEEKNS4_INS1_17scalar_product_opIddEEKNS_14CwiseNullaryOpINS1_18scalar_constant_opIdEEKNS_6MatrixIdLin1ELi1ELi0ELin1ELi1EEEEEKNS4_INS1_20scalar_difference_opIddEESE_SE_EEEEKNS4_IS8_SG_KNS4_IS6_KNS4_IS8_SG_SE_EESE_EEEEEENS_5DenseEEC2Ev
00000000003cba26 W _ZN5Eigen16CwiseUnaryOpImplINS_8internal18scalar_opposite_opIdEEKNS_6MatrixIdLi3ELi3ELi0ELi3ELi3EEENS_5DenseEEC1Ev
00000000003cba26 W _ZN5Eigen16CwiseUnaryOpImplINS_8internal18scalar_opposite_opIdEEKNS_6MatrixIdLi3ELi3ELi0ELi3ELi3EEENS_5DenseEEC2Ev
000000000036f7a0 W _ZN5Eigen16GenericNumTraitsIiE7highestEv
000000000039786c W _ZN5Eigen16GenericNumTraitsIlE7highestEv
00000000003cbd7a W _ZN5Eigen16PartialReduxExprINS_6MatrixIdLi3ELi3ELi0ELi3ELi3EEENS_8internal10member_sumIdEELi1EEC1ERKS2_RKS5_
00000000003cd1b8 W _ZN5Eigen16PartialReduxExprINS_6MatrixIdLi3ELi3ELi0ELi3ELi3EEENS_8internal10member_sumIdEELi1EEC1ERKS6_
00000000003cbd7a W _ZN5Eigen16PartialReduxExprINS_6MatrixIdLi3ELi3ELi0ELi3ELi3EEENS_8internal10member_sumIdEELi1EEC2ERKS2_RKS5_
00000000003cd1b8 W _ZN5Eigen16PartialReduxExprINS_6MatrixIdLi3ELi3ELi0ELi3ELi3EEENS_8internal10member_sumIdEELi1EEC2ERKS6_
000000000038fa7a W _ZN5Eigen16SparseMatrixBaseINS_10SparseViewINS_6MatrixIdLi3ELi3ELi0ELi3ELi3EEEEEEC1Ev
000000000038fa7a W _ZN5Eigen16SparseMatrixBaseINS_10SparseViewINS_6MatrixIdLi3ELi3ELi0ELi3ELi3EEEEEEC2Ev
000000000036e40e W _ZN5Eigen16SparseMatrixBaseINS_10SparseViewINS_6MatrixIdLin1ELin1ELi0ELin1ELin1EEEEEEC1Ev
000000000036e40e W _ZN5Eigen16SparseMatrixBaseINS_10SparseViewINS_6MatrixIdLin1ELin1ELi0ELin1ELin1EEEEEEC2Ev
000000000038fe06 W _ZN5Eigen16SparseMatrixBaseINS_10SparseViewINS_9TransposeIKNS_6MatrixIdLi3ELi3ELi0ELi3ELi3EEEEEEEEC1Ev
000000000038fe06 W _ZN5Eigen16SparseMatrixBaseINS_10SparseViewINS_9TransposeIKNS_6MatrixIdLi3ELi3ELi0ELi3ELi3EEEEEEEEC2Ev
000000000041fde2 W _ZN5Eigen16SparseMatrixBaseINS_10SparseViewINS_9TransposeIKNS_6MatrixIdLin1ELi1ELi0ELin1ELi1EEEEEEEEC1Ev
000000000041fde2 W _ZN5Eigen16SparseMatrixBaseINS_10SparseViewINS_9TransposeIKNS_6MatrixIdLin1ELi1ELi0ELin1ELi1EEEEEEEEC2Ev
00000000003da544 W _ZN5Eigen16SparseMatrixBaseINS_10SparseViewINS_9TransposeINS_6MatrixIdLin1ELi1ELi0ELin1ELi1EEEEEEEEC1Ev
00000000003da544 W _ZN5Eigen16SparseMatrixBaseINS_10SparseViewINS_9TransposeINS_6MatrixIdLin1ELi1ELi0ELin1ELi1EEEEEEEEC2Ev
0000000000390cb2 W _ZN5Eigen16SparseMatrixBaseINS_12CwiseUnaryOpINS_8internal18scalar_opposite_opIdEEKNS_12SparseMatrixIdLi1EiEEEEEC1Ev
0000000000390cb2 W _ZN5Eigen16SparseMatrixBaseINS_12CwiseUnaryOpINS_8internal18scalar_opposite_opIdEEKNS_12SparseMatrixIdLi1EiEEEEEC2Ev
000000000039cff6 W _ZN5Eigen16SparseMatrixBaseINS_12SparseMatrixIdLi0EiEEE12markAsRValueEv
00000000003985fa W _ZN5Eigen16SparseMatrixBaseINS_12SparseMatrixIdLi0EiEEE7derivedEv
000000000039ec4e W _ZN5Eigen16SparseMatrixBaseINS_12SparseMatrixIdLi0EiEEEaSERKS2_
0000000000395688 W _ZN5Eigen16SparseMatrixBaseINS_12SparseMatrixIdLi0EiEEEC1Ev
0000000000395688 W _ZN5Eigen16SparseMatrixBaseINS_12SparseMatrixIdLi0EiEEEC2Ev
00000000003a4f84 W _ZN5Eigen16SparseMatrixBaseINS_12SparseMatrixIdLi0ElEEE12markAsRValueEv
00000000003a33c8 W _ZN5Eigen16SparseMatrixBaseINS_12SparseMatrixIdLi0ElEEE7derivedEv
00000000003a35f0 W _ZN5Eigen16SparseMatrixBaseINS_12SparseMatrixIdLi0ElEEEaSERKS2_
00000000003a158e W _ZN5Eigen16SparseMatrixBaseINS_12SparseMatrixIdLi0ElEEEC1Ev
00000000003a158e W _ZN5Eigen16SparseMatrixBaseINS_12SparseMatrixIdLi0ElEEEC2Ev
000000000038817e W _ZN5Eigen16SparseMatrixBaseINS_12SparseMatrixIdLi1EiEEE10middleRowsEll
0000000000394974 W _ZN5Eigen16SparseMatrixBaseINS_12SparseMatrixIdLi1EiEEE12markAsRValueEv
000000000038edc5 W _ZN5Eigen16SparseMatrixBaseINS_12SparseMatrixIdLi1EiEEE13convert_indexEl
00000000004177f4 W _ZN5Eigen16SparseMatrixBaseINS_12SparseMatrixIdLi1EiEEE3rowEl
000000000038ca96 W _ZN5Eigen16SparseMatrixBaseINS_12SparseMatrixIdLi1EiEEE7derivedEv
00000000003c3080 W _ZN5Eigen16SparseMatrixBaseINS_12SparseMatrixIdLi1EiEEE9transposeEv
000000000038fa24 W _ZN5Eigen16SparseMatrixBaseINS_12SparseMatrixIdLi1EiEEEaSERKS2_
0000000000390bd8 W _ZN5Eigen16SparseMatrixBaseINS_12SparseMatrixIdLi1EiEEEaSINS_13CwiseBinaryOpINS_8internal13scalar_sum_opIddEEKS2_S9_EEEERS2_RKNS0_IT_EE
000000000036e43c W _ZN5Eigen16SparseMatrixBaseINS_12SparseMatrixIdLi1EiEEEC1Ev
000000000036e43c W _ZN5Eigen16SparseMatrixBaseINS_12SparseMatrixIdLi1EiEEEC2Ev
00000000003880f4 W _ZN5Eigen16SparseMatrixBaseINS_12SparseMatrixIdLi1EiEEEpLIS2_EERS2_RKNS0_IT_EE
00000000003c6bc0 W _ZN5Eigen16SparseMatrixBaseINS_12SparseMatrixIdLi1ElEEE12markAsRValueEv
00000000003c67be W _ZN5Eigen16SparseMatrixBaseINS_12SparseMatrixIdLi1ElEEE7derivedEv
00000000003c6d34 W _ZN5Eigen16SparseMatrixBaseINS_12SparseMatrixIdLi1ElEEEaSERKS2_
0000000000394af6 W _ZN5Eigen16SparseMatrixBaseINS_12SparseMatrixIdLi1ElEEEC1Ev
0000000000394af6 W _ZN5Eigen16SparseMatrixBaseINS_12SparseMatrixIdLi1ElEEEC2Ev
0000000000422717 W _ZN5Eigen16SparseMatrixBaseINS_12SparseVectorIdLi1EiEEE13convert_indexEl
000000000041fe10 W _ZN5Eigen16SparseMatrixBaseINS_12SparseVectorIdLi1EiEEEC1Ev
000000000041fe10 W _ZN5Eigen16SparseMatrixBaseINS_12SparseVectorIdLi1EiEEEC2Ev
00000000003935e4 W _ZN5Eigen16SparseMatrixBaseINS_13CwiseBinaryOpINS_8internal13scalar_sum_opIddEEKNS_12SparseMatrixIdLi1EiEES7_EEEC1Ev
00000000003935e4 W _ZN5Eigen16SparseMatrixBaseINS_13CwiseBinaryOpINS_8internal13scalar_sum_opIddEEKNS_12SparseMatrixIdLi1EiEES7_EEEC2Ev
0000000000422ca8 W _ZN5Eigen16SparseMatrixBaseINS_13CwiseBinaryOpINS_8internal13scalar_sum_opIddEEKNS1_INS2_17scalar_product_opIddEEKNS_14CwiseNullaryOpINS2_18scalar_constant_opIdEEKNS_6MatrixIdLi1ELin1ELi1ELi1ELin1EEEEEKNS_12SparseVectorIdLi1EiEEEESJ_EEEC1Ev
0000000000422ca8 W _ZN5Eigen16SparseMatrixBaseINS_13CwiseBinaryOpINS_8internal13scalar_sum_opIddEEKNS1_INS2_17scalar_product_opIddEEKNS_14CwiseNullaryOpINS2_18scalar_constant_opIdEEKNS_6MatrixIdLi1ELin1ELi1ELi1ELin1EEEEEKNS_12SparseVectorIdLi1EiEEEESJ_EEEC2Ev
000000000042276c W _ZN5Eigen16SparseMatrixBaseINS_13CwiseBinaryOpINS_8internal13scalar_sum_opIddEEKNS1_INS2_20scalar_difference_opIddEEKNS1_IS6_KNS1_INS2_17scalar_product_opIddEEKNS_14CwiseNullaryOpINS2_18scalar_constant_opIdEEKNS_6MatrixIdLi1ELin1ELi1ELi1ELin1EEEEEKNS_12SparseVectorIdLi1EiEEEESL_EESL_EESL_EEEC1Ev
000000000042276c W _ZN5Eigen16SparseMatrixBaseINS_13CwiseBinaryOpINS_8internal13scalar_sum_opIddEEKNS1_INS2_20scalar_difference_opIddEEKNS1_IS6_KNS1_INS2_17scalar_product_opIddEEKNS_14CwiseNullaryOpINS2_18scalar_constant_opIdEEKNS_6MatrixIdLi1ELin1ELi1ELi1ELin1EEEEEKNS_12SparseVectorIdLi1EiEEEESL_EESL_EESL_EEEC2Ev
0000000000422d32 W _ZN5Eigen16SparseMatrixBaseINS_13CwiseBinaryOpINS_8internal13scalar_sum_opIddEEKNS1_INS2_20scalar_difference_opIddEEKNS1_IS6_KNS1_IS4_KNS1_INS2_17scalar_product_opIddEEKNS_14CwiseNullaryOpINS2_18scalar_constant_opIdEEKNS_6MatrixIdLi1ELin1ELi1ELi1ELin1EEEEEKNS_12SparseVectorIdLi1EiEEEESL_EESL_EESL_EESL_EEEC1Ev
0000000000422d32 W _ZN5Eigen16SparseMatrixBaseINS_13CwiseBinaryOpINS_8internal13scalar_sum_opIddEEKNS1_INS2_20scalar_difference_opIddEEKNS1_IS6_KNS1_IS4_KNS1_INS2_17scalar_product_opIddEEKNS_14CwiseNullaryOpINS2_18scalar_constant_opIdEEKNS_6MatrixIdLi1ELin1ELi1ELi1ELin1EEEEEKNS_12SparseVectorIdLi1EiEEEESL_EESL_EESL_EESL_EEEC2Ev
00000000004234fe W _ZN5Eigen16SparseMatrixBaseINS_13CwiseBinaryOpINS_8internal13scalar_sum_opIddEEKNS1_INS2_20scalar_difference_opIddEEKNS1_IS6_KNS1_IS6_KNS1_IS6_KNS1_INS2_17scalar_product_opIddEEKNS_14CwiseNullaryOpINS2_18scalar_constant_opIdEEKNS_6MatrixIdLi1ELin1ELi1ELi1ELin1EEEEEKNS_12SparseVectorIdLi1EiEEEESL_EESL_EESL_EESL_EEKNS1_IS8_SL_SG_EEEEEC1Ev
00000000004234fe W _ZN5Eigen16SparseMatrixBaseINS_13CwiseBinaryOpINS_8internal13scalar_sum_opIddEEKNS1_INS2_20scalar_difference_opIddEEKNS1_IS6_KNS1_IS6_KNS1_IS6_KNS1_INS2_17scalar_product_opIddEEKNS_14CwiseNullaryOpINS2_18scalar_constant_opIdEEKNS_6MatrixIdLi1ELin1ELi1ELi1ELin1EEEEEKNS_12SparseVectorIdLi1EiEEEESL_EESL_EESL_EESL_EEKNS1_IS8_SL_SG_EEEEEC2Ev
0000000000393612 W _ZN5Eigen16SparseMatrixBaseINS_13CwiseBinaryOpINS_8internal13scalar_sum_opIddEEKNS1_IS4_KNS_12SparseMatrixIdLi1EiEES7_EES7_EEEC1Ev
0000000000393612 W _ZN5Eigen16SparseMatrixBaseINS_13CwiseBinaryOpINS_8internal13scalar_sum_opIddEEKNS1_IS4_KNS_12SparseMatrixIdLi1EiEES7_EES7_EEEC2Ev
000000000042279a W _ZN5Eigen16SparseMatrixBaseINS_13CwiseBinaryOpINS_8internal13scalar_sum_opIddEEKNS1_IS4_KNS1_INS2_20scalar_difference_opIddEEKNS1_IS6_KNS1_INS2_17scalar_product_opIddEEKNS_14CwiseNullaryOpINS2_18scalar_constant_opIdEEKNS_6MatrixIdLi1ELin1ELi1ELi1ELin1EEEEEKNS_12SparseVectorIdLi1EiEEEESL_EESL_EESL_EESL_EEEC1Ev
000000000042279a W _ZN5Eigen16SparseMatrixBaseINS_13CwiseBinaryOpINS_8internal13scalar_sum_opIddEEKNS1_IS4_KNS1_INS2_20scalar_difference_opIddEEKNS1_IS6_KNS1_INS2_17scalar_product_opIddEEKNS_14CwiseNullaryOpINS2_18scalar_constant_opIdEEKNS_6MatrixIdLi1ELin1ELi1ELi1ELin1EEEEEKNS_12SparseVectorIdLi1EiEEEESL_EESL_EESL_EESL_EEEC2Ev
0000000000422318 W _ZN5Eigen16SparseMatrixBaseINS_13CwiseBinaryOpINS_8internal13scalar_sum_opIddEEKNS1_IS4_KNS1_IS4_KNS_7ProductINS_12SparseVectorIdLi1EiEENS_12SparseMatrixIdLi1EiEELi2EEEKNS5_INS_5BlockIS9_Li1ELin1ELb1EEES9_Li2EEEEESB_EESF_EEEC1Ev
0000000000422318 W _ZN5Eigen16SparseMatrixBaseINS_13CwiseBinaryOpINS_8internal13scalar_sum_opIddEEKNS1_IS4_KNS1_IS4_KNS_7ProductINS_12SparseVectorIdLi1EiEENS_12SparseMatrixIdLi1EiEELi2EEEKNS5_INS_5BlockIS9_Li1ELin1ELb1EEES9_Li2EEEEESB_EESF_EEEC2Ev
00000000004222ea W _ZN5Eigen16SparseMatrixBaseINS_13CwiseBinaryOpINS_8internal13scalar_sum_opIddEEKNS1_IS4_KNS_7ProductINS_12SparseVectorIdLi1EiEENS_12SparseMatrixIdLi1EiEELi2EEEKNS5_INS_5BlockIS9_Li1ELin1ELb1EEES9_Li2EEEEESB_EEEC1Ev
00000000004222ea W _ZN5Eigen16SparseMatrixBaseINS_13CwiseBinaryOpINS_8internal13scalar_sum_opIddEEKNS1_IS4_KNS_7ProductINS_12SparseVectorIdLi1EiEENS_12SparseMatrixIdLi1EiEELi2EEEKNS5_INS_5BlockIS9_Li1ELin1ELb1EEES9_Li2EEEEESB_EEEC2Ev
0000000000424052 W _ZN5Eigen16SparseMatrixBaseINS_13CwiseBinaryOpINS_8internal13scalar_sum_opIddEEKNS_5BlockINS_12SparseMatrixIdLi1EiEELi1ELin1ELb1EEEKNS1_INS2_17scalar_product_opIddEEKNS_14CwiseNullaryOpINS2_18scalar_constant_opIdEEKNS_6MatrixIdLi1ELin1ELi1ELi1ELin1EEEEEKNS_12SparseVectorIdLi1EiEEEEEEEC1Ev
0000000000424052 W _ZN5Eigen16SparseMatrixBaseINS_13CwiseBinaryOpINS_8internal13scalar_sum_opIddEEKNS_5BlockINS_12SparseMatrixIdLi1EiEELi1ELin1ELb1EEEKNS1_INS2_17scalar_product_opIddEEKNS_14CwiseNullaryOpINS2_18scalar_constant_opIdEEKNS_6MatrixIdLi1ELin1ELi1ELi1ELin1EEEEEKNS_12SparseVectorIdLi1EiEEEEEEEC2Ev
00000000004221fc W _ZN5Eigen16SparseMatrixBaseINS_13CwiseBinaryOpINS_8internal13scalar_sum_opIddEEKNS_7ProductINS_12SparseVectorIdLi1EiEENS_12SparseMatrixIdLi1EiEELi2EEEKNS5_INS_5BlockIS9_Li1ELin1ELb1EEES9_Li2EEEEEEC1Ev
00000000004221fc W _ZN5Eigen16SparseMatrixBaseINS_13CwiseBinaryOpINS_8internal13scalar_sum_opIddEEKNS_7ProductINS_12SparseVectorIdLi1EiEENS_12SparseMatrixIdLi1EiEELi2EEEKNS5_INS_5BlockIS9_Li1ELin1ELb1EEES9_Li2EEEEEEC2Ev
00000000004223f2 W _ZN5Eigen16SparseMatrixBaseINS_13CwiseBinaryOpINS_8internal17scalar_product_opIddEEKNS_14CwiseNullaryOpINS2_18scalar_constant_opIdEEKNS_6MatrixIdLi1ELin1ELi1ELi1ELin1EEEEEKNS_12SparseVectorIdLi1EiEEEEEC1Ev
00000000004223f2 W _ZN5Eigen16SparseMatrixBaseINS_13CwiseBinaryOpINS_8internal17scalar_product_opIddEEKNS_14CwiseNullaryOpINS2_18scalar_constant_opIdEEKNS_6MatrixIdLi1ELin1ELi1ELi1ELin1EEEEEKNS_12SparseVectorIdLi1EiEEEEEC2Ev
0000000000393376 W _ZN5Eigen16SparseMatrixBaseINS_13CwiseBinaryOpINS_8internal17scalar_product_opIddEEKNS_14CwiseNullaryOpINS2_18scalar_constant_opIdEEKNS_6MatrixIdLin1ELin1ELi1ELin1ELin1EEEEEKNS_12SparseMatrixIdLi1EiEEEEEC1Ev
0000000000393376 W _ZN5Eigen16SparseMatrixBaseINS_13CwiseBinaryOpINS_8internal17scalar_product_opIddEEKNS_14CwiseNullaryOpINS2_18scalar_constant_opIdEEKNS_6MatrixIdLin1ELin1ELi1ELin1ELin1EEEEEKNS_12SparseMatrixIdLi1EiEEEEEC2Ev
00000000004234d0 W _ZN5Eigen16SparseMatrixBaseINS_13CwiseBinaryOpINS_8internal17scalar_product_opIddEEKNS1_IS4_KNS_14CwiseNullaryOpINS2_18scalar_constant_opIdEEKNS_6MatrixIdLi1ELin1ELi1ELi1ELin1EEEEEKNS_12SparseVectorIdLi1EiEEEESC_EEEC1Ev
00000000004234d0 W _ZN5Eigen16SparseMatrixBaseINS_13CwiseBinaryOpINS_8internal17scalar_product_opIddEEKNS1_IS4_KNS_14CwiseNullaryOpINS2_18scalar_constant_opIdEEKNS_6MatrixIdLi1ELin1ELi1ELi1ELin1EEEEEKNS_12SparseVectorIdLi1EiEEEESC_EEEC2Ev
00000000003d2264 W _ZN5Eigen16SparseMatrixBaseINS_13CwiseBinaryOpINS_8internal20scalar_difference_opIddEEKNS_12SparseMatrixIdLi1EiEES7_EEEC1Ev
00000000003d2264 W _ZN5Eigen16SparseMatrixBaseINS_13CwiseBinaryOpINS_8internal20scalar_difference_opIddEEKNS_12SparseMatrixIdLi1EiEES7_EEEC2Ev
0000000000422cd6 W _ZN5Eigen16SparseMatrixBaseINS_13CwiseBinaryOpINS_8internal20scalar_difference_opIddEEKNS1_INS2_13scalar_sum_opIddEEKNS1_INS2_17scalar_product_opIddEEKNS_14CwiseNullaryOpINS2_18scalar_constant_opIdEEKNS_6MatrixIdLi1ELin1ELi1ELi1ELin1EEEEEKNS_12SparseVectorIdLi1EiEEEESL_EESL_EEEC1Ev
0000000000422cd6 W _ZN5Eigen16SparseMatrixBaseINS_13CwiseBinaryOpINS_8internal20scalar_difference_opIddEEKNS1_INS2_13scalar_sum_opIddEEKNS1_INS2_17scalar_product_opIddEEKNS_14CwiseNullaryOpINS2_18scalar_constant_opIdEEKNS_6MatrixIdLi1ELin1ELi1ELi1ELin1EEEEEKNS_12SparseVectorIdLi1EiEEEESL_EESL_EEEC2Ev
00000000004224cc W _ZN5Eigen16SparseMatrixBaseINS_13CwiseBinaryOpINS_8internal20scalar_difference_opIddEEKNS1_INS2_17scalar_product_opIddEEKNS_14CwiseNullaryOpINS2_18scalar_constant_opIdEEKNS_6MatrixIdLi1ELin1ELi1ELi1ELin1EEEEEKNS_12SparseVectorIdLi1EiEEEESJ_EEEC1Ev
00000000004224cc W _ZN5Eigen16SparseMatrixBaseINS_13CwiseBinaryOpINS_8internal20scalar_difference_opIddEEKNS1_INS2_17scalar_product_opIddEEKNS_14CwiseNullaryOpINS2_18scalar_constant_opIdEEKNS_6MatrixIdLi1ELin1ELi1ELi1ELin1EEEEEKNS_12SparseVectorIdLi1EiEEEESJ_EEEC2Ev
0000000000422d04 W _ZN5Eigen16SparseMatrixBaseINS_13CwiseBinaryOpINS_8internal20scalar_difference_opIddEEKNS1_IS4_KNS1_INS2_13scalar_sum_opIddEEKNS1_INS2_17scalar_product_opIddEEKNS_14CwiseNullaryOpINS2_18scalar_constant_opIdEEKNS_6MatrixIdLi1ELin1ELi1ELi1ELin1EEEEEKNS_12SparseVectorIdLi1EiEEEESL_EESL_EESL_EEEC1Ev
0000000000422d04 W _ZN5Eigen16SparseMatrixBaseINS_13CwiseBinaryOpINS_8internal20scalar_difference_opIddEEKNS1_IS4_KNS1_INS2_13scalar_sum_opIddEEKNS1_INS2_17scalar_product_opIddEEKNS_14CwiseNullaryOpINS2_18scalar_constant_opIdEEKNS_6MatrixIdLi1ELin1ELi1ELi1ELin1EEEEEKNS_12SparseVectorIdLi1EiEEEESL_EESL_EESL_EEEC2Ev
000000000042273e W _ZN5Eigen16SparseMatrixBaseINS_13CwiseBinaryOpINS_8internal20scalar_difference_opIddEEKNS1_IS4_KNS1_INS2_17scalar_product_opIddEEKNS_14CwiseNullaryOpINS2_18scalar_constant_opIdEEKNS_6MatrixIdLi1ELin1ELi1ELi1ELin1EEEEEKNS_12SparseVectorIdLi1EiEEEESJ_EESJ_EEEC1Ev
000000000042273e W _ZN5Eigen16SparseMatrixBaseINS_13CwiseBinaryOpINS_8internal20scalar_difference_opIddEEKNS1_IS4_KNS1_INS2_17scalar_product_opIddEEKNS_14CwiseNullaryOpINS2_18scalar_constant_opIdEEKNS_6MatrixIdLi1ELin1ELi1ELi1ELin1EEEEEKNS_12SparseVectorIdLi1EiEEEESJ_EESJ_EEEC2Ev
0000000000423474 W _ZN5Eigen16SparseMatrixBaseINS_13CwiseBinaryOpINS_8internal20scalar_difference_opIddEEKNS1_IS4_KNS1_IS4_KNS1_INS2_17scalar_product_opIddEEKNS_14CwiseNullaryOpINS2_18scalar_constant_opIdEEKNS_6MatrixIdLi1ELin1ELi1ELi1ELin1EEEEEKNS_12SparseVectorIdLi1EiEEEESJ_EESJ_EESJ_EEEC1Ev
0000000000423474 W _ZN5Eigen16SparseMatrixBaseINS_13CwiseBinaryOpINS_8internal20scalar_difference_opIddEEKNS1_IS4_KNS1_IS4_KNS1_INS2_17scalar_product_opIddEEKNS_14CwiseNullaryOpINS2_18scalar_constant_opIdEEKNS_6MatrixIdLi1ELin1ELi1ELi1ELin1EEEEEKNS_12SparseVectorIdLi1EiEEEESJ_EESJ_EESJ_EEEC2Ev
00000000004235d8 W _ZN5Eigen16SparseMatrixBaseINS_13CwiseBinaryOpINS_8internal20scalar_difference_opIddEEKNS1_IS4_KNS1_IS4_KNS1_IS4_KNS1_INS2_17scalar_product_opIddEEKNS_14CwiseNullaryOpINS2_18scalar_constant_opIdEEKNS_6MatrixIdLi1ELin1ELi1ELi1ELin1EEEEEKNS_12SparseVectorIdLi1EiEEEESJ_EESJ_EESJ_EEKNS1_IS6_SJ_SE_EEEEEC1Ev
00000000004235d8 W _ZN5Eigen16SparseMatrixBaseINS_13CwiseBinaryOpINS_8internal20scalar_difference_opIddEEKNS1_IS4_KNS1_IS4_KNS1_IS4_KNS1_INS2_17scalar_product_opIddEEKNS_14CwiseNullaryOpINS2_18scalar_constant_opIdEEKNS_6MatrixIdLi1ELin1ELi1ELi1ELin1EEEEEKNS_12SparseVectorIdLi1EiEEEESJ_EESJ_EESJ_EEKNS1_IS6_SJ_SE_EEEEEC2Ev
00000000004234a2 W _ZN5Eigen16SparseMatrixBaseINS_13CwiseBinaryOpINS_8internal20scalar_difference_opIddEEKNS1_IS4_KNS1_IS4_KNS1_IS4_KNS1_INS2_17scalar_product_opIddEEKNS_14CwiseNullaryOpINS2_18scalar_constant_opIdEEKNS_6MatrixIdLi1ELin1ELi1ELi1ELin1EEEEEKNS_12SparseVectorIdLi1EiEEEESJ_EESJ_EESJ_EESJ_EEEC1Ev
00000000004234a2 W _ZN5Eigen16SparseMatrixBaseINS_13CwiseBinaryOpINS_8internal20scalar_difference_opIddEEKNS1_IS4_KNS1_IS4_KNS1_IS4_KNS1_INS2_17scalar_product_opIddEEKNS_14CwiseNullaryOpINS2_18scalar_constant_opIdEEKNS_6MatrixIdLi1ELin1ELi1ELi1ELin1EEEEEKNS_12SparseVectorIdLi1EiEEEESJ_EESJ_EESJ_EESJ_EEEC2Ev
0000000000423606 W _ZN5Eigen16SparseMatrixBaseINS_13CwiseBinaryOpINS_8internal20scalar_difference_opIddEEKNS1_IS4_KNS1_IS4_KNS1_IS4_KNS1_IS4_KNS1_INS2_17scalar_product_opIddEEKNS_14CwiseNullaryOpINS2_18scalar_constant_opIdEEKNS_6MatrixIdLi1ELin1ELi1ELi1ELin1EEEEEKNS_12SparseVectorIdLi1EiEEEESJ_EESJ_EESJ_EEKNS1_IS6_SJ_SE_EEEESJ_EEEC1Ev
0000000000423606 W _ZN5Eigen16SparseMatrixBaseINS_13CwiseBinaryOpINS_8internal20scalar_difference_opIddEEKNS1_IS4_KNS1_IS4_KNS1_IS4_KNS1_IS4_KNS1_INS2_17scalar_product_opIddEEKNS_14CwiseNullaryOpINS2_18scalar_constant_opIdEEKNS_6MatrixIdLi1ELin1ELi1ELi1ELin1EEEEEKNS_12SparseVectorIdLi1EiEEEESJ_EESJ_EESJ_EEKNS1_IS6_SJ_SE_EEEESJ_EEEC2Ev
00000000003936d8 W _ZN5Eigen16SparseMatrixBaseINS_13CwiseBinaryOpINS_8internal20scalar_difference_opIddEEKNS_7ProductINS_12SparseMatrixIdLi1EiEENS1_INS2_13scalar_sum_opIddEEKNS1_IS9_KS7_SA_EESA_EELi2EEEKNS5_IS7_S7_Li2EEEEEEC1Ev
00000000003936d8 W _ZN5Eigen16SparseMatrixBaseINS_13CwiseBinaryOpINS_8internal20scalar_difference_opIddEEKNS_7ProductINS_12SparseMatrixIdLi1EiEENS1_INS2_13scalar_sum_opIddEEKNS1_IS9_KS7_SA_EESA_EELi2EEEKNS5_IS7_S7_Li2EEEEEEC2Ev
000000000038cfec W _ZN5Eigen16SparseMatrixBaseINS_3RefIKNS_12SparseMatrixIdLi1EiEELi0ENS_11OuterStrideILin1EEEEEE11innerVectorEl
0000000000390e9c W _ZN5Eigen16SparseMatrixBaseINS_3RefIKNS_12SparseMatrixIdLi1EiEELi0ENS_11OuterStrideILin1EEEEEE7derivedEv
0000000000398668 W _ZN5Eigen16SparseMatrixBaseINS_3RefIKNS_12SparseMatrixIdLi1EiEELi0ENS_11OuterStrideILin1EEEEEEC1Ev
0000000000398668 W _ZN5Eigen16SparseMatrixBaseINS_3RefIKNS_12SparseMatrixIdLi1EiEELi0ENS_11OuterStrideILin1EEEEEEC2Ev
0000000000423d6f W _ZN5Eigen16SparseMatrixBaseINS_5BlockINS_12SparseMatrixIdLi1EiEELi1ELin1ELb1EEEE13convert_indexEl
000000000041ce14 W _ZN5Eigen16SparseMatrixBaseINS_5BlockINS_12SparseMatrixIdLi1EiEELi1ELin1ELb1EEEE7derivedEv
0000000000425246 W _ZN5Eigen16SparseMatrixBaseINS_5BlockINS_12SparseMatrixIdLi1EiEELi1ELin1ELb1EEEEC1Ev
0000000000425246 W _ZN5Eigen16SparseMatrixBaseINS_5BlockINS_12SparseMatrixIdLi1EiEELi1ELin1ELb1EEEEC2Ev
000000000041a382 W _ZN5Eigen16SparseMatrixBaseINS_5BlockINS_12SparseMatrixIdLi1EiEELi1ELin1ELb1EEEEpLINS_13CwiseBinaryOpINS_8internal17scalar_product_opIddEEKNS_14CwiseNullaryOpINS8_18scalar_constant_opIdEEKNS_6MatrixIdLi1ELin1ELi1ELi1ELin1EEEEEKNS_12SparseVectorIdLi1EiEEEEEERS4_RKNS0_IT_EE
0000000000395cde W _ZN5Eigen16SparseMatrixBaseINS_5BlockINS_12SparseMatrixIdLi1EiEELin1ELin1ELb1EEEE13convert_indexEl
000000000038d188 W _ZN5Eigen16SparseMatrixBaseINS_5BlockINS_12SparseMatrixIdLi1EiEELin1ELin1ELb1EEEE7derivedEv
000000000039863a W _ZN5Eigen16SparseMatrixBaseINS_5BlockINS_12SparseMatrixIdLi1EiEELin1ELin1ELb1EEEEC1Ev
000000000039863a W _ZN5Eigen16SparseMatrixBaseINS_5BlockINS_12SparseMatrixIdLi1EiEELin1ELin1ELb1EEEEC2Ev
0000000000395fd0 W _ZN5Eigen16SparseMatrixBaseINS_5BlockINS_3RefIKNS_12SparseMatrixIdLi1EiEELi0ENS_11OuterStrideILin1EEEEELi1ELin1ELb1EEEE13convert_indexEl
0000000000395ff6 W _ZN5Eigen16SparseMatrixBaseINS_5BlockINS_3RefIKNS_12SparseMatrixIdLi1EiEELi0ENS_11OuterStrideILin1EEEEELi1ELin1ELb1EEEEC1Ev
0000000000395ff6 W _ZN5Eigen16SparseMatrixBaseINS_5BlockINS_3RefIKNS_12SparseMatrixIdLi1EiEELi0ENS_11OuterStrideILin1EEEEELi1ELin1ELb1EEEEC2Ev
000000000038fdbc W _ZN5Eigen16SparseMatrixBaseINS_7ProductINS_10SparseViewINS_6MatrixIdLi3ELi3ELi0ELi3ELi3EEEEENS_12SparseMatrixIdLi1EiEELi2EEEEC1Ev
000000000038fdbc W _ZN5Eigen16SparseMatrixBaseINS_7ProductINS_10SparseViewINS_6MatrixIdLi3ELi3ELi0ELi3ELi3EEEEENS_12SparseMatrixIdLi1EiEELi2EEEEC2Ev
0000000000391c7a W _ZN5Eigen16SparseMatrixBaseINS_7ProductINS_12CwiseUnaryOpINS_8internal18scalar_opposite_opIdEEKNS_12SparseMatrixIdLi1EiEEEES7_Li2EEEEC1Ev
0000000000391c7a W _ZN5Eigen16SparseMatrixBaseINS_7ProductINS_12CwiseUnaryOpINS_8internal18scalar_opposite_opIdEEKNS_12SparseMatrixIdLi1EiEEEES7_Li2EEEEC2Ev
0000000000391dc8 W _ZN5Eigen16SparseMatrixBaseINS_7ProductINS_12SparseMatrixIdLi1EiEENS_12CwiseUnaryOpINS_8internal18scalar_opposite_opIdEEKS3_EELi2EEEEC1Ev
0000000000391dc8 W _ZN5Eigen16SparseMatrixBaseINS_7ProductINS_12SparseMatrixIdLi1EiEENS_12CwiseUnaryOpINS_8internal18scalar_opposite_opIdEEKS3_EELi2EEEEC2Ev
000000000039148c W _ZN5Eigen16SparseMatrixBaseINS_7ProductINS_12SparseMatrixIdLi1EiEENS_13CwiseBinaryOpINS_8internal13scalar_sum_opIddEEKNS4_IS7_KS3_S8_EES8_EELi2EEEEC1Ev
000000000039148c W _ZN5Eigen16SparseMatrixBaseINS_7ProductINS_12SparseMatrixIdLi1EiEENS_13CwiseBinaryOpINS_8internal13scalar_sum_opIddEEKNS4_IS7_KS3_S8_EES8_EELi2EEEEC2Ev
0000000000390496 W _ZN5Eigen16SparseMatrixBaseINS_7ProductINS_12SparseMatrixIdLi1EiEES3_Li2EEEEC1Ev
0000000000390496 W _ZN5Eigen16SparseMatrixBaseINS_7ProductINS_12SparseMatrixIdLi1EiEES3_Li2EEEEC2Ev
000000000042003a W _ZN5Eigen16SparseMatrixBaseINS_7ProductINS_12SparseVectorIdLi1EiEENS_12SparseMatrixIdLi1EiEELi2EEEEC1Ev
000000000042003a W _ZN5Eigen16SparseMatrixBaseINS_7ProductINS_12SparseVectorIdLi1EiEENS_12SparseMatrixIdLi1EiEELi2EEEEC2Ev
00000000003cc58c W _ZN5Eigen16SparseMatrixBaseINS_7ProductINS_13CwiseBinaryOpINS_8internal17scalar_product_opIddEEKNS_14CwiseNullaryOpINS3_18scalar_constant_opIdEEKNS_6MatrixIdLin1ELin1ELi1ELin1ELin1EEEEEKNS_12SparseMatrixIdLi1EiEEEENS1_ISH_SF_Li2EEELi2EEEEC1Ev
00000000003cc58c W _ZN5Eigen16SparseMatrixBaseINS_7ProductINS_13CwiseBinaryOpINS_8internal17scalar_product_opIddEEKNS_14CwiseNullaryOpINS3_18scalar_constant_opIdEEKNS_6MatrixIdLin1ELin1ELi1ELin1ELin1EEEEEKNS_12SparseMatrixIdLi1EiEEEENS1_ISH_SF_Li2EEELi2EEEEC2Ev
00000000003c504e W _ZN5Eigen16SparseMatrixBaseINS_7ProductINS_13CwiseBinaryOpINS_8internal17scalar_product_opIddEEKNS_14CwiseNullaryOpINS3_18scalar_constant_opIdEEKNS_6MatrixIdLin1ELin1ELi1ELin1ELin1EEEEEKNS_12SparseMatrixIdLi1EiEEEESF_Li2EEEEC1Ev
00000000003c504e W _ZN5Eigen16SparseMatrixBaseINS_7ProductINS_13CwiseBinaryOpINS_8internal17scalar_product_opIddEEKNS_14CwiseNullaryOpINS3_18scalar_constant_opIdEEKNS_6MatrixIdLin1ELin1ELi1ELin1ELin1EEEEEKNS_12SparseMatrixIdLi1EiEEEESF_Li2EEEEC2Ev
000000000038fe34 W _ZN5Eigen16SparseMatrixBaseINS_7ProductINS1_INS_10SparseViewINS_6MatrixIdLi3ELi3ELi0ELi3ELi3EEEEENS_12SparseMatrixIdLi1EiEELi2EEENS2_INS_9TransposeIKS4_EEEELi2EEEEC1Ev
000000000038fe34 W _ZN5Eigen16SparseMatrixBaseINS_7ProductINS1_INS_10SparseViewINS_6MatrixIdLi3ELi3ELi0ELi3ELi3EEEEENS_12SparseMatrixIdLi1EiEELi2EEENS2_INS_9TransposeIKS4_EEEELi2EEEEC2Ev
000000000039135a W _ZN5Eigen16SparseMatrixBaseINS_7ProductINS1_INS_10SparseViewINS_6MatrixIdLi3ELi3ELi0ELi3ELi3EEEEENS_12SparseMatrixIdLi1EiEELi2EEES7_Li2EEEEC1Ev
000000000039135a W _ZN5Eigen16SparseMatrixBaseINS_7ProductINS1_INS_10SparseViewINS_6MatrixIdLi3ELi3ELi0ELi3ELi3EEEEENS_12SparseMatrixIdLi1EiEELi2EEES7_Li2EEEEC2Ev
00000000003cc648 W _ZN5Eigen16SparseMatrixBaseINS_7ProductINS1_INS_13CwiseBinaryOpINS_8internal17scalar_product_opIddEEKNS_14CwiseNullaryOpINS3_18scalar_constant_opIdEEKNS_6MatrixIdLin1ELin1ELi1ELin1ELin1EEEEEKNS_12SparseMatrixIdLi1EiEEEESF_Li2EEESF_Li2EEEEC1Ev
00000000003cc648 W _ZN5Eigen16SparseMatrixBaseINS_7ProductINS1_INS_13CwiseBinaryOpINS_8internal17scalar_product_opIddEEKNS_14CwiseNullaryOpINS3_18scalar_constant_opIdEEKNS_6MatrixIdLin1ELin1ELi1ELin1ELin1EEEEEKNS_12SparseMatrixIdLi1EiEEEESF_Li2EEESF_Li2EEEEC2Ev
0000000000420068 W _ZN5Eigen16SparseMatrixBaseINS_7ProductINS_5BlockINS_12SparseMatrixIdLi1EiEELi1ELin1ELb1EEES4_Li2EEEEC1Ev
0000000000420068 W _ZN5Eigen16SparseMatrixBaseINS_7ProductINS_5BlockINS_12SparseMatrixIdLi1EiEELi1ELin1ELb1EEES4_Li2EEEEC2Ev
00000000003da328 W _ZN5Eigen16SparseMatrixBaseINS_7ProductINS_9TransposeINS_12SparseMatrixIdLi1EiEEEENS_15DiagonalWrapperIKNS_6MatrixIdLin1ELi1ELi0ELin1ELi1EEEEELi0EEEEC1Ev
00000000003da328 W _ZN5Eigen16SparseMatrixBaseINS_7ProductINS_9TransposeINS_12SparseMatrixIdLi1EiEEEENS_15DiagonalWrapperIKNS_6MatrixIdLin1ELi1ELi0ELin1ELi1EEEEELi0EEEEC2Ev
00000000003c5198 W _ZN5Eigen16SparseMatrixBaseINS_9TransposeINS_12SparseMatrixIdLi1EiEEEEEC1Ev
00000000003c5198 W _ZN5Eigen16SparseMatrixBaseINS_9TransposeINS_12SparseMatrixIdLi1EiEEEEEC2Ev
00000000003913c4 W _ZN5Eigen17CwiseBinaryOpImplINS_8internal13scalar_sum_opIddEEKNS_12SparseMatrixIdLi1EiEES6_NS_6SparseEEC1Ev
00000000003913c4 W _ZN5Eigen17CwiseBinaryOpImplINS_8internal13scalar_sum_opIddEEKNS_12SparseMatrixIdLi1EiEES6_NS_6SparseEEC2Ev
00000000004210f4 W _ZN5Eigen17CwiseBinaryOpImplINS_8internal13scalar_sum_opIddEEKNS_13CwiseBinaryOpINS1_17scalar_product_opIddEEKNS_14CwiseNullaryOpINS1_18scalar_constant_opIdEEKNS_6MatrixIdLi1ELin1ELi1ELi1ELin1EEEEEKNS_12SparseVectorIdLi1EiEEEESJ_NS_6SparseEEC1Ev
00000000004210f4 W _ZN5Eigen17CwiseBinaryOpImplINS_8internal13scalar_sum_opIddEEKNS_13CwiseBinaryOpINS1_17scalar_product_opIddEEKNS_14CwiseNullaryOpINS1_18scalar_constant_opIdEEKNS_6MatrixIdLi1ELin1ELi1ELi1ELin1EEEEEKNS_12SparseVectorIdLi1EiEEEESJ_NS_6SparseEEC2Ev
00000000003ff75c W _ZN5Eigen17CwiseBinaryOpImplINS_8internal13scalar_sum_opIddEEKNS_13CwiseBinaryOpINS1_17scalar_product_opIddEEKNS_14CwiseNullaryOpINS1_18scalar_constant_opIdEEKNS_6MatrixIdLin1ELi1ELi0ELin1ELi1EEEEEKNS4_INS1_20scalar_difference_opIddEESC_SC_EEEEKNS4_IS6_SE_KNS4_IS3_KNS4_IS6_SE_SC_EESC_EEEENS_5DenseEEC1Ev
00000000003ff75c W _ZN5Eigen17CwiseBinaryOpImplINS_8internal13scalar_sum_opIddEEKNS_13CwiseBinaryOpINS1_17scalar_product_opIddEEKNS_14CwiseNullaryOpINS1_18scalar_constant_opIdEEKNS_6MatrixIdLin1ELi1ELi0ELin1ELi1EEEEEKNS4_INS1_20scalar_difference_opIddEESC_SC_EEEEKNS4_IS6_SE_KNS4_IS3_KNS4_IS6_SE_SC_EESC_EEEENS_5DenseEEC2Ev
00000000003ffcaa W _ZN5Eigen17CwiseBinaryOpImplINS_8internal13scalar_sum_opIddEEKNS_13CwiseBinaryOpINS1_17scalar_product_opIddEEKNS_14CwiseNullaryOpINS1_18scalar_constant_opIdEEKNS_6MatrixIdLin1ELi1ELi0ELin1ELi1EEEEEKNS4_INS1_20scalar_difference_opIddEESC_SC_EEEEKNS4_IS6_SE_KNS4_IS3_SC_SC_EEEENS_5DenseEEC1Ev
00000000003ffcaa W _ZN5Eigen17CwiseBinaryOpImplINS_8internal13scalar_sum_opIddEEKNS_13CwiseBinaryOpINS1_17scalar_product_opIddEEKNS_14CwiseNullaryOpINS1_18scalar_constant_opIdEEKNS_6MatrixIdLin1ELi1ELi0ELin1ELi1EEEEEKNS4_INS1_20scalar_difference_opIddEESC_SC_EEEEKNS4_IS6_SE_KNS4_IS3_SC_SC_EEEENS_5DenseEEC2Ev
00000000003ff50e W _ZN5Eigen17CwiseBinaryOpImplINS_8internal13scalar_sum_opIddEEKNS_13CwiseBinaryOpINS1_17scalar_product_opIddEEKNS_14CwiseNullaryOpINS1_18scalar_constant_opIdEEKNS_6MatrixIdLin1ELi1ELi0ELin1ELi1EEEEESC_EESC_NS_5DenseEEC1Ev
00000000003ff50e W _ZN5Eigen17CwiseBinaryOpImplINS_8internal13scalar_sum_opIddEEKNS_13CwiseBinaryOpINS1_17scalar_product_opIddEEKNS_14CwiseNullaryOpINS1_18scalar_constant_opIdEEKNS_6MatrixIdLin1ELi1ELi0ELin1ELi1EEEEESC_EESC_NS_5DenseEEC2Ev
00000000004003c8 W _ZN5Eigen17CwiseBinaryOpImplINS_8internal13scalar_sum_opIddEEKNS_13CwiseBinaryOpINS1_20scalar_difference_opIddEEKNS4_INS1_17scalar_product_opIddEEKNS_14CwiseNullaryOpINS1_18scalar_constant_opIdEEKNS_6MatrixIdLin1ELi1ELi0ELin1ELi1EEEEESE_EESI_EESI_NS_5DenseEEC1Ev
00000000004003c8 W _ZN5Eigen17CwiseBinaryOpImplINS_8internal13scalar_sum_opIddEEKNS_13CwiseBinaryOpINS1_20scalar_difference_opIddEEKNS4_INS1_17scalar_product_opIddEEKNS_14CwiseNullaryOpINS1_18scalar_constant_opIdEEKNS_6MatrixIdLin1ELi1ELi0ELin1ELi1EEEEESE_EESI_EESI_NS_5DenseEEC2Ev
0000000000420c0a W _ZN5Eigen17CwiseBinaryOpImplINS_8internal13scalar_sum_opIddEEKNS_13CwiseBinaryOpINS1_20scalar_difference_opIddEEKNS4_IS6_KNS4_INS1_17scalar_product_opIddEEKNS_14CwiseNullaryOpINS1_18scalar_constant_opIdEEKNS_6MatrixIdLi1ELin1ELi1ELi1ELin1EEEEEKNS_12SparseVectorIdLi1EiEEEESL_EESL_EESL_NS_6SparseEEC1Ev
0000000000420c0a W _ZN5Eigen17CwiseBinaryOpImplINS_8internal13scalar_sum_opIddEEKNS_13CwiseBinaryOpINS1_20scalar_difference_opIddEEKNS4_IS6_KNS4_INS1_17scalar_product_opIddEEKNS_14CwiseNullaryOpINS1_18scalar_constant_opIdEEKNS_6MatrixIdLi1ELin1ELi1ELi1ELin1EEEEEKNS_12SparseVectorIdLi1EiEEEESL_EESL_EESL_NS_6SparseEEC2Ev
000000000040098e W _ZN5Eigen17CwiseBinaryOpImplINS_8internal13scalar_sum_opIddEEKNS_13CwiseBinaryOpINS1_20scalar_difference_opIddEEKNS4_IS6_KNS4_INS1_18scalar_quotient_opIddEEKNS4_INS1_17scalar_product_opIddEEKNS_14CwiseNullaryOpINS1_18scalar_constant_opIdEEKNS_6MatrixIdLin1ELi1ELi0ELin1ELi1EEEEEKNS4_IS3_SG_SG_EEEESI_EEKNS4_IS8_KNS4_ISA_SI_KNS4_IS3_KNS4_ISA_SI_SG_EESG_EEEESI_EEEEKNS4_IS8_KNS4_ISA_SI_KNS4_IS3_KNS4_IS3_KNS4_IS6_SQ_SQ_EESQ_EESQ_EEEESI_EEEES18_NS_5DenseEEC1Ev
000000000040098e W _ZN5Eigen17CwiseBinaryOpImplINS_8internal13scalar_sum_opIddEEKNS_13CwiseBinaryOpINS1_20scalar_difference_opIddEEKNS4_IS6_KNS4_INS1_18scalar_quotient_opIddEEKNS4_INS1_17scalar_product_opIddEEKNS_14CwiseNullaryOpINS1_18scalar_constant_opIdEEKNS_6MatrixIdLin1ELi1ELi0ELin1ELi1EEEEEKNS4_IS3_SG_SG_EEEESI_EEKNS4_IS8_KNS4_ISA_SI_KNS4_IS3_KNS4_ISA_SI_SG_EESG_EEEESI_EEEEKNS4_IS8_KNS4_ISA_SI_KNS4_IS3_KNS4_IS3_KNS4_IS6_SQ_SQ_EESQ_EESQ_EEEESI_EEEES18_NS_5DenseEEC2Ev
00000000004211c0 W _ZN5Eigen17CwiseBinaryOpImplINS_8internal13scalar_sum_opIddEEKNS_13CwiseBinaryOpINS1_20scalar_difference_opIddEEKNS4_IS6_KNS4_IS3_KNS4_INS1_17scalar_product_opIddEEKNS_14CwiseNullaryOpINS1_18scalar_constant_opIdEEKNS_6MatrixIdLi1ELin1ELi1ELi1ELin1EEEEEKNS_12SparseVectorIdLi1EiEEEESL_EESL_EESL_EESL_NS_6SparseEEC1Ev
00000000004211c0 W _ZN5Eigen17CwiseBinaryOpImplINS_8internal13scalar_sum_opIddEEKNS_13CwiseBinaryOpINS1_20scalar_difference_opIddEEKNS4_IS6_KNS4_IS3_KNS4_INS1_17scalar_product_opIddEEKNS_14CwiseNullaryOpINS1_18scalar_constant_opIdEEKNS_6MatrixIdLi1ELin1ELi1ELi1ELin1EEEEEKNS_12SparseVectorIdLi1EiEEEESL_EESL_EESL_EESL_NS_6SparseEEC2Ev
00000000004218be W _ZN5Eigen17CwiseBinaryOpImplINS_8internal13scalar_sum_opIddEEKNS_13CwiseBinaryOpINS1_20scalar_difference_opIddEEKNS4_IS6_KNS4_IS6_KNS4_IS6_KNS4_INS1_17scalar_product_opIddEEKNS_14CwiseNullaryOpINS1_18scalar_constant_opIdEEKNS_6MatrixIdLi1ELin1ELi1ELi1ELin1EEEEEKNS_12SparseVectorIdLi1EiEEEESL_EESL_EESL_EESL_EEKNS4_IS8_SL_SG_EENS_6SparseEEC1Ev
00000000004218be W _ZN5Eigen17CwiseBinaryOpImplINS_8internal13scalar_sum_opIddEEKNS_13CwiseBinaryOpINS1_20scalar_difference_opIddEEKNS4_IS6_KNS4_IS6_KNS4_IS6_KNS4_INS1_17scalar_product_opIddEEKNS_14CwiseNullaryOpINS1_18scalar_constant_opIdEEKNS_6MatrixIdLi1ELin1ELi1ELi1ELin1EEEEEKNS_12SparseVectorIdLi1EiEEEESL_EESL_EESL_EESL_EEKNS4_IS8_SL_SG_EENS_6SparseEEC2Ev
00000000003913e0 W _ZN5Eigen17CwiseBinaryOpImplINS_8internal13scalar_sum_opIddEEKNS_13CwiseBinaryOpIS3_KNS_12SparseMatrixIdLi1EiEES7_EES7_NS_6SparseEEC1Ev
00000000003913e0 W _ZN5Eigen17CwiseBinaryOpImplINS_8internal13scalar_sum_opIddEEKNS_13CwiseBinaryOpIS3_KNS_12SparseMatrixIdLi1EiEES7_EES7_NS_6SparseEEC2Ev
00000000004004d2 W _ZN5Eigen17CwiseBinaryOpImplINS_8internal13scalar_sum_opIddEEKNS_13CwiseBinaryOpIS3_KNS4_INS1_20scalar_difference_opIddEEKNS4_INS1_17scalar_product_opIddEEKNS_14CwiseNullaryOpINS1_18scalar_constant_opIdEEKNS_6MatrixIdLin1ELi1ELi0ELin1ELi1EEEEESE_EESI_EESI_EESI_NS_5DenseEEC1Ev
00000000004004d2 W _ZN5Eigen17CwiseBinaryOpImplINS_8internal13scalar_sum_opIddEEKNS_13CwiseBinaryOpIS3_KNS4_INS1_20scalar_difference_opIddEEKNS4_INS1_17scalar_product_opIddEEKNS_14CwiseNullaryOpINS1_18scalar_constant_opIdEEKNS_6MatrixIdLin1ELi1ELi0ELin1ELi1EEEEESE_EESI_EESI_EESI_NS_5DenseEEC2Ev
0000000000420c62 W _ZN5Eigen17CwiseBinaryOpImplINS_8internal13scalar_sum_opIddEEKNS_13CwiseBinaryOpIS3_KNS4_INS1_20scalar_difference_opIddEEKNS4_IS6_KNS4_INS1_17scalar_product_opIddEEKNS_14CwiseNullaryOpINS1_18scalar_constant_opIdEEKNS_6MatrixIdLi1ELin1ELi1ELi1ELin1EEEEEKNS_12SparseVectorIdLi1EiEEEESL_EESL_EESL_EESL_NS_6SparseEEC1Ev
0000000000420c62 W _ZN5Eigen17CwiseBinaryOpImplINS_8internal13scalar_sum_opIddEEKNS_13CwiseBinaryOpIS3_KNS4_INS1_20scalar_difference_opIddEEKNS4_IS6_KNS4_INS1_17scalar_product_opIddEEKNS_14CwiseNullaryOpINS1_18scalar_constant_opIdEEKNS_6MatrixIdLi1ELin1ELi1ELi1ELin1EEEEEKNS_12SparseVectorIdLi1EiEEEESL_EESL_EESL_EESL_NS_6SparseEEC2Ev
0000000000420222 W _ZN5Eigen17CwiseBinaryOpImplINS_8internal13scalar_sum_opIddEEKNS_13CwiseBinaryOpIS3_KNS4_IS3_KNS_7ProductINS_12SparseVectorIdLi1EiEENS_12SparseMatrixIdLi1EiEELi2EEEKNS5_INS_5BlockIS9_Li1ELin1ELb1EEES9_Li2EEEEESB_EESF_NS_6SparseEEC1Ev
0000000000420222 W _ZN5Eigen17CwiseBinaryOpImplINS_8internal13scalar_sum_opIddEEKNS_13CwiseBinaryOpIS3_KNS4_IS3_KNS_7ProductINS_12SparseVectorIdLi1EiEENS_12SparseMatrixIdLi1EiEELi2EEEKNS5_INS_5BlockIS9_Li1ELin1ELb1EEES9_Li2EEEEESB_EESF_NS_6SparseEEC2Ev
00000000004201ca W _ZN5Eigen17CwiseBinaryOpImplINS_8internal13scalar_sum_opIddEEKNS_13CwiseBinaryOpIS3_KNS_7ProductINS_12SparseVectorIdLi1EiEENS_12SparseMatrixIdLi1EiEELi2EEEKNS5_INS_5BlockIS9_Li1ELin1ELb1EEES9_Li2EEEEESB_NS_6SparseEEC1Ev
00000000004201ca W _ZN5Eigen17CwiseBinaryOpImplINS_8internal13scalar_sum_opIddEEKNS_13CwiseBinaryOpIS3_KNS_7ProductINS_12SparseVectorIdLi1EiEENS_12SparseMatrixIdLi1EiEELi2EEEKNS5_INS_5BlockIS9_Li1ELin1ELb1EEES9_Li2EEEEESB_NS_6SparseEEC2Ev
000000000042259a W _ZN5Eigen17CwiseBinaryOpImplINS_8internal13scalar_sum_opIddEEKNS_5BlockINS_12SparseMatrixIdLi1EiEELi1ELin1ELb1EEEKNS_13CwiseBinaryOpINS1_17scalar_product_opIddEEKNS_14CwiseNullaryOpINS1_18scalar_constant_opIdEEKNS_6MatrixIdLi1ELin1ELi1ELi1ELin1EEEEEKNS_12SparseVectorIdLi1EiEEEENS_6SparseEEC1Ev
000000000042259a W _ZN5Eigen17CwiseBinaryOpImplINS_8internal13scalar_sum_opIddEEKNS_5BlockINS_12SparseMatrixIdLi1EiEELi1ELin1ELb1EEEKNS_13CwiseBinaryOpINS1_17scalar_product_opIddEEKNS_14CwiseNullaryOpINS1_18scalar_constant_opIdEEKNS_6MatrixIdLi1ELin1ELi1ELi1ELin1EEEEEKNS_12SparseVectorIdLi1EiEEEENS_6SparseEEC2Ev
00000000003b2a4e W _ZN5Eigen17CwiseBinaryOpImplINS_8internal13scalar_sum_opIddEEKNS_6MatrixIdLi2ELi1ELi0ELi2ELi1EEEKNS_13CwiseBinaryOpINS1_17scalar_product_opIddEEKNS_14CwiseNullaryOpINS1_18scalar_constant_opIdEES6_EES6_EENS_5DenseEEC1Ev
00000000003b2a4e W _ZN5Eigen17CwiseBinaryOpImplINS_8internal13scalar_sum_opIddEEKNS_6MatrixIdLi2ELi1ELi0ELi2ELi1EEEKNS_13CwiseBinaryOpINS1_17scalar_product_opIddEEKNS_14CwiseNullaryOpINS1_18scalar_constant_opIdEES6_EES6_EENS_5DenseEEC2Ev
00000000003b898e W _ZN5Eigen17CwiseBinaryOpImplINS_8internal13scalar_sum_opIddEEKNS_6MatrixIdLi3ELi1ELi0ELi3ELi1EEEKNS_13CwiseBinaryOpINS1_17scalar_product_opIddEEKNS_14CwiseNullaryOpINS1_18scalar_constant_opIdEES6_EES6_EENS_5DenseEEC1Ev
00000000003b898e W _ZN5Eigen17CwiseBinaryOpImplINS_8internal13scalar_sum_opIddEEKNS_6MatrixIdLi3ELi1ELi0ELi3ELi1EEEKNS_13CwiseBinaryOpINS1_17scalar_product_opIddEEKNS_14CwiseNullaryOpINS1_18scalar_constant_opIdEES6_EES6_EENS_5DenseEEC2Ev
000000000035d7aa W _ZN5Eigen17CwiseBinaryOpImplINS_8internal13scalar_sum_opIddEEKNS_6MatrixIdLin1ELi1ELi0ELin1ELi1EEEKNS_13CwiseBinaryOpINS1_17scalar_product_opIddEEKNS_14CwiseNullaryOpINS1_18scalar_constant_opIdEES6_EES6_EENS_5DenseEEC1Ev
000000000035d7aa W _ZN5Eigen17CwiseBinaryOpImplINS_8internal13scalar_sum_opIddEEKNS_6MatrixIdLin1ELi1ELi0ELin1ELi1EEEKNS_13CwiseBinaryOpINS1_17scalar_product_opIddEEKNS_14CwiseNullaryOpINS1_18scalar_constant_opIdEES6_EES6_EENS_5DenseEEC2Ev
000000000033cffe W _ZN5Eigen17CwiseBinaryOpImplINS_8internal13scalar_sum_opIddEEKNS_6MatrixIdLin1ELi1ELi0ELin1ELi1EEEKNS_7ProductINS4_IdLi3ELi3ELi0ELi3ELi3EEENS4_IdLi3ELi1ELi0ELi3ELi1EEELi0EEENS_5DenseEEC1Ev
000000000033cffe W _ZN5Eigen17CwiseBinaryOpImplINS_8internal13scalar_sum_opIddEEKNS_6MatrixIdLin1ELi1ELi0ELin1ELi1EEEKNS_7ProductINS4_IdLi3ELi3ELi0ELi3ELi3EEENS4_IdLi3ELi1ELi0ELi3ELi1EEELi0EEENS_5DenseEEC2Ev
00000000003ffa76 W _ZN5Eigen17CwiseBinaryOpImplINS_8internal13scalar_sum_opIddEEKNS_6MatrixIdLin1ELi1ELi0ELin1ELi1EEES6_NS_5DenseEEC1Ev
00000000003ffa76 W _ZN5Eigen17CwiseBinaryOpImplINS_8internal13scalar_sum_opIddEEKNS_6MatrixIdLin1ELi1ELi0ELin1ELi1EEES6_NS_5DenseEEC2Ev
000000000038be88 W _ZN5Eigen17CwiseBinaryOpImplINS_8internal13scalar_sum_opIddEEKNS_7ProductINS_12SparseMatrixIdLi1EiEENS_6MatrixIdLi3ELi1ELi0ELi3ELi1EEELi0EEEKNS4_IS6_S9_Li0EEENS_5DenseEEC1Ev
000000000038be88 W _ZN5Eigen17CwiseBinaryOpImplINS_8internal13scalar_sum_opIddEEKNS_7ProductINS_12SparseMatrixIdLi1EiEENS_6MatrixIdLi3ELi1ELi0ELi3ELi1EEELi0EEEKNS4_IS6_S9_Li0EEENS_5DenseEEC2Ev
000000000041c772 W _ZN5Eigen17CwiseBinaryOpImplINS_8internal13scalar_sum_opIddEEKNS_7ProductINS_12SparseMatrixIdLi1EiEENS_6MatrixIdLin1ELi1ELi0ELin1ELi1EEELi0EEESA_NS_5DenseEEC1Ev
000000000041c772 W _ZN5Eigen17CwiseBinaryOpImplINS_8internal13scalar_sum_opIddEEKNS_7ProductINS_12SparseMatrixIdLi1EiEENS_6MatrixIdLin1ELi1ELi0ELin1ELi1EEELi0EEESA_NS_5DenseEEC2Ev
00000000004200a8 W _ZN5Eigen17CwiseBinaryOpImplINS_8internal13scalar_sum_opIddEEKNS_7ProductINS_12SparseVectorIdLi1EiEENS_12SparseMatrixIdLi1EiEELi2EEEKNS4_INS_5BlockIS8_Li1ELin1ELb1EEES8_Li2EEENS_6SparseEEC1Ev
00000000004200a8 W _ZN5Eigen17CwiseBinaryOpImplINS_8internal13scalar_sum_opIddEEKNS_7ProductINS_12SparseVectorIdLi1EiEENS_12SparseMatrixIdLi1EiEELi2EEEKNS4_INS_5BlockIS8_Li1ELin1ELb1EEES8_Li2EEENS_6SparseEEC2Ev
00000000003cbc26 W _ZN5Eigen17CwiseBinaryOpImplINS_8internal17scalar_product_opIddEEKNS_12ArrayWrapperINS_6MatrixIdLi3ELi3ELi0ELi3ELi3EEEEES8_NS_5DenseEEC1Ev
00000000003cbc26 W _ZN5Eigen17CwiseBinaryOpImplINS_8internal17scalar_product_opIddEEKNS_12ArrayWrapperINS_6MatrixIdLi3ELi3ELi0ELi3ELi3EEEEES8_NS_5DenseEEC2Ev
00000000004218a2 W _ZN5Eigen17CwiseBinaryOpImplINS_8internal17scalar_product_opIddEEKNS_13CwiseBinaryOpIS3_KNS_14CwiseNullaryOpINS1_18scalar_constant_opIdEEKNS_6MatrixIdLi1ELin1ELi1ELi1ELin1EEEEEKNS_12SparseVectorIdLi1EiEEEESC_NS_6SparseEEC1Ev
00000000004218a2 W _ZN5Eigen17CwiseBinaryOpImplINS_8internal17scalar_product_opIddEEKNS_13CwiseBinaryOpIS3_KNS_14CwiseNullaryOpINS1_18scalar_constant_opIdEEKNS_6MatrixIdLi1ELin1ELi1ELi1ELin1EEEEEKNS_12SparseVectorIdLi1EiEEEESC_NS_6SparseEEC2Ev
00000000003a9d00 W _ZN5Eigen17CwiseBinaryOpImplINS_8internal17scalar_product_opIddEEKNS_14CwiseNullaryOpINS1_18scalar_constant_opIdEEKNS_6MatrixIdLi1ELi3ELi1ELi1ELi3EEEEEKNS_5BlockIKNS_9TransposeIKNS7_IdLi3ELi3ELi0ELi3ELi3EEEEELi1ELi3ELb1EEENS_5DenseEEC1Ev
00000000003a9d00 W _ZN5Eigen17CwiseBinaryOpImplINS_8internal17scalar_product_opIddEEKNS_14CwiseNullaryOpINS1_18scalar_constant_opIdEEKNS_6MatrixIdLi1ELi3ELi1ELi1ELi3EEEEEKNS_5BlockIKNS_9TransposeIKNS7_IdLi3ELi3ELi0ELi3ELi3EEEEELi1ELi3ELb1EEENS_5DenseEEC2Ev
0000000000420308 W _ZN5Eigen17CwiseBinaryOpImplINS_8internal17scalar_product_opIddEEKNS_14CwiseNullaryOpINS1_18scalar_constant_opIdEEKNS_6MatrixIdLi1ELin1ELi1ELi1ELin1EEEEEKNS_12SparseVectorIdLi1EiEENS_6SparseEEC1Ev
0000000000420308 W _ZN5Eigen17CwiseBinaryOpImplINS_8internal17scalar_product_opIddEEKNS_14CwiseNullaryOpINS1_18scalar_constant_opIdEEKNS_6MatrixIdLi1ELin1ELi1ELi1ELin1EEEEEKNS_12SparseVectorIdLi1EiEENS_6SparseEEC2Ev
00000000003d98a6 W _ZN5Eigen17CwiseBinaryOpImplINS_8internal17scalar_product_opIddEEKNS_14CwiseNullaryOpINS1_18scalar_constant_opIdEEKNS_6MatrixIdLi1ELin1ELi1ELi1ELin1EEEEEKNS_9TransposeIKNS_13CwiseBinaryOpINS1_20scalar_difference_opIddEEKNS7_IdLin1ELi1ELi0ELin1ELi1EEESH_EEEENS_5DenseEEC1Ev
00000000003d98a6 W _ZN5Eigen17CwiseBinaryOpImplINS_8internal17scalar_product_opIddEEKNS_14CwiseNullaryOpINS1_18scalar_constant_opIdEEKNS_6MatrixIdLi1ELin1ELi1ELi1ELin1EEEEEKNS_9TransposeIKNS_13CwiseBinaryOpINS1_20scalar_difference_opIddEEKNS7_IdLin1ELi1ELi0ELin1ELi1EEESH_EEEENS_5DenseEEC2Ev
00000000003b2952 W _ZN5Eigen17CwiseBinaryOpImplINS_8internal17scalar_product_opIddEEKNS_14CwiseNullaryOpINS1_18scalar_constant_opIdEEKNS_6MatrixIdLi2ELi1ELi0ELi2ELi1EEEEES9_NS_5DenseEEC1Ev
00000000003b2952 W _ZN5Eigen17CwiseBinaryOpImplINS_8internal17scalar_product_opIddEEKNS_14CwiseNullaryOpINS1_18scalar_constant_opIdEEKNS_6MatrixIdLi2ELi1ELi0ELi2ELi1EEEEES9_NS_5DenseEEC2Ev
00000000003f2d74 W _ZN5Eigen17CwiseBinaryOpImplINS_8internal17scalar_product_opIddEEKNS_14CwiseNullaryOpINS1_18scalar_constant_opIdEEKNS_6MatrixIdLi3ELi1ELi0ELi3ELi1EEEEEKNS_13CwiseBinaryOpINS1_20scalar_difference_opIddEEKNSC_IS3_SB_KNS_5BlockIKNS4_INS1_18scalar_identity_opIdEENS7_IdLi3ELi3ELi0ELi3ELi3EEEEELi3ELi1ELb0EEEEEKNSC_IS3_SB_S9_EEEENS_5DenseEEC1Ev
00000000003f2d74 W _ZN5Eigen17CwiseBinaryOpImplINS_8internal17scalar_product_opIddEEKNS_14CwiseNullaryOpINS1_18scalar_constant_opIdEEKNS_6MatrixIdLi3ELi1ELi0ELi3ELi1EEEEEKNS_13CwiseBinaryOpINS1_20scalar_difference_opIddEEKNSC_IS3_SB_KNS_5BlockIKNS4_INS1_18scalar_identity_opIdEENS7_IdLi3ELi3ELi0ELi3ELi3EEEEELi3ELi1ELb0EEEEEKNSC_IS3_SB_S9_EEEENS_5DenseEEC2Ev
00000000003f2b28 W _ZN5Eigen17CwiseBinaryOpImplINS_8internal17scalar_product_opIddEEKNS_14CwiseNullaryOpINS1_18scalar_constant_opIdEEKNS_6MatrixIdLi3ELi1ELi0ELi3ELi1EEEEEKNS_5BlockIKNS4_INS1_18scalar_identity_opIdEENS7_IdLi3ELi3ELi0ELi3ELi3EEEEELi3ELi1ELb0EEENS_5DenseEEC1Ev
00000000003f2b28 W _ZN5Eigen17CwiseBinaryOpImplINS_8internal17scalar_product_opIddEEKNS_14CwiseNullaryOpINS1_18scalar_constant_opIdEEKNS_6MatrixIdLi3ELi1ELi0ELi3ELi1EEEEEKNS_5BlockIKNS4_INS1_18scalar_identity_opIdEENS7_IdLi3ELi3ELi0ELi3ELi3EEEEELi3ELi1ELb0EEENS_5DenseEEC2Ev
000000000038c1b0 W _ZN5Eigen17CwiseBinaryOpImplINS_8internal17scalar_product_opIddEEKNS_14CwiseNullaryOpINS1_18scalar_constant_opIdEEKNS_6MatrixIdLi3ELi1ELi0ELi3ELi1EEEEES9_NS_5DenseEEC1Ev
000000000038c1b0 W _ZN5Eigen17CwiseBinaryOpImplINS_8internal17scalar_product_opIddEEKNS_14CwiseNullaryOpINS1_18scalar_constant_opIdEEKNS_6MatrixIdLi3ELi1ELi0ELi3ELi1EEEEES9_NS_5DenseEEC2Ev
00000000003ff646 W _ZN5Eigen17CwiseBinaryOpImplINS_8internal17scalar_product_opIddEEKNS_14CwiseNullaryOpINS1_18scalar_constant_opIdEEKNS_6MatrixIdLin1ELi1ELi0ELin1ELi1EEEEEKNS_13CwiseBinaryOpINS1_13scalar_sum_opIddEEKNSC_IS3_SB_S9_EES9_EENS_5DenseEEC1Ev
00000000003ff646 W _ZN5Eigen17CwiseBinaryOpImplINS_8internal17scalar_product_opIddEEKNS_14CwiseNullaryOpINS1_18scalar_constant_opIdEEKNS_6MatrixIdLin1ELi1ELi0ELin1ELi1EEEEEKNS_13CwiseBinaryOpINS1_13scalar_sum_opIddEEKNSC_IS3_SB_S9_EES9_EENS_5DenseEEC2Ev
000000000040061e W _ZN5Eigen17CwiseBinaryOpImplINS_8internal17scalar_product_opIddEEKNS_14CwiseNullaryOpINS1_18scalar_constant_opIdEEKNS_6MatrixIdLin1ELi1ELi0ELin1ELi1EEEEEKNS_13CwiseBinaryOpINS1_13scalar_sum_opIddEEKNSC_ISE_KNSC_INS1_20scalar_difference_opIddEEKNSC_IS3_SB_S9_EESI_EESI_EESI_EENS_5DenseEEC1Ev
000000000040061e W _ZN5Eigen17CwiseBinaryOpImplINS_8internal17scalar_product_opIddEEKNS_14CwiseNullaryOpINS1_18scalar_constant_opIdEEKNS_6MatrixIdLin1ELi1ELi0ELin1ELi1EEEEEKNS_13CwiseBinaryOpINS1_13scalar_sum_opIddEEKNSC_ISE_KNSC_INS1_20scalar_difference_opIddEEKNSC_IS3_SB_S9_EESI_EESI_EESI_EENS_5DenseEEC2Ev
00000000003ffba2 W _ZN5Eigen17CwiseBinaryOpImplINS_8internal17scalar_product_opIddEEKNS_14CwiseNullaryOpINS1_18scalar_constant_opIdEEKNS_6MatrixIdLin1ELi1ELi0ELin1ELi1EEEEEKNS_13CwiseBinaryOpINS1_13scalar_sum_opIddEES9_S9_EENS_5DenseEEC1Ev
00000000003ffba2 W _ZN5Eigen17CwiseBinaryOpImplINS_8internal17scalar_product_opIddEEKNS_14CwiseNullaryOpINS1_18scalar_constant_opIdEEKNS_6MatrixIdLin1ELi1ELi0ELin1ELi1EEEEEKNS_13CwiseBinaryOpINS1_13scalar_sum_opIddEES9_S9_EENS_5DenseEEC2Ev
000000000040b520 W _ZN5Eigen17CwiseBinaryOpImplINS_8internal17scalar_product_opIddEEKNS_14CwiseNullaryOpINS1_18scalar_constant_opIdEEKNS_6MatrixIdLin1ELi1ELi0ELin1ELi1EEEEEKNS_13CwiseBinaryOpINS1_20scalar_difference_opIddEES9_KNSC_IS3_SB_S9_EEEENS_5DenseEEC1Ev
000000000040b520 W _ZN5Eigen17CwiseBinaryOpImplINS_8internal17scalar_product_opIddEEKNS_14CwiseNullaryOpINS1_18scalar_constant_opIdEEKNS_6MatrixIdLin1ELi1ELi0ELin1ELi1EEEEEKNS_13CwiseBinaryOpINS1_20scalar_difference_opIddEES9_KNSC_IS3_SB_S9_EEEENS_5DenseEEC2Ev
00000000003ff414 W _ZN5Eigen17CwiseBinaryOpImplINS_8internal17scalar_product_opIddEEKNS_14CwiseNullaryOpINS1_18scalar_constant_opIdEEKNS_6MatrixIdLin1ELi1ELi0ELin1ELi1EEEEEKNS_13CwiseBinaryOpINS1_20scalar_difference_opIddEES9_S9_EENS_5DenseEEC1Ev
00000000003ff414 W _ZN5Eigen17CwiseBinaryOpImplINS_8internal17scalar_product_opIddEEKNS_14CwiseNullaryOpINS1_18scalar_constant_opIdEEKNS_6MatrixIdLin1ELi1ELi0ELin1ELi1EEEEEKNS_13CwiseBinaryOpINS1_20scalar_difference_opIddEES9_S9_EENS_5DenseEEC2Ev
000000000035d6ae W _ZN5Eigen17CwiseBinaryOpImplINS_8internal17scalar_product_opIddEEKNS_14CwiseNullaryOpINS1_18scalar_constant_opIdEEKNS_6MatrixIdLin1ELi1ELi0ELin1ELi1EEEEES9_NS_5DenseEEC1Ev
000000000035d6ae W _ZN5Eigen17CwiseBinaryOpImplINS_8internal17scalar_product_opIddEEKNS_14CwiseNullaryOpINS1_18scalar_constant_opIdEEKNS_6MatrixIdLin1ELi1ELi0ELin1ELi1EEEEES9_NS_5DenseEEC2Ev
00000000003910aa W _ZN5Eigen17CwiseBinaryOpImplINS_8internal17scalar_product_opIddEEKNS_14CwiseNullaryOpINS1_18scalar_constant_opIdEEKNS_6MatrixIdLin1ELin1ELi1ELin1ELin1EEEEEKNS_12SparseMatrixIdLi1EiEENS_6SparseEEC1Ev
00000000003910aa W _ZN5Eigen17CwiseBinaryOpImplINS_8internal17scalar_product_opIddEEKNS_14CwiseNullaryOpINS1_18scalar_constant_opIdEEKNS_6MatrixIdLin1ELin1ELi1ELin1ELin1EEEEEKNS_12SparseMatrixIdLi1EiEENS_6SparseEEC2Ev
00000000003f2720 W _ZN5Eigen17CwiseBinaryOpImplINS_8internal17scalar_product_opIddEEKNS_6MatrixIdLi3ELi1ELi0ELi3ELi1EEES6_NS_5DenseEEC1Ev
00000000003f2720 W _ZN5Eigen17CwiseBinaryOpImplINS_8internal17scalar_product_opIddEEKNS_6MatrixIdLi3ELi1ELi0ELi3ELi1EEES6_NS_5DenseEEC2Ev
00000000003ba4be W _ZN5Eigen17CwiseBinaryOpImplINS_8internal17scalar_product_opIddEEKNS_9TransposeIKNS4_INS_6MatrixIdLi3ELi1ELi0ELi3ELi1EEEEEEEKNS_13CwiseBinaryOpINS1_13scalar_sum_opIddEEKS6_KNSB_IS3_KNS_14CwiseNullaryOpINS1_18scalar_constant_opIdEESE_EESE_EEEENS_5DenseEEC1Ev
00000000003ba4be W _ZN5Eigen17CwiseBinaryOpImplINS_8internal17scalar_product_opIddEEKNS_9TransposeIKNS4_INS_6MatrixIdLi3ELi1ELi0ELi3ELi1EEEEEEEKNS_13CwiseBinaryOpINS1_13scalar_sum_opIddEEKS6_KNSB_IS3_KNS_14CwiseNullaryOpINS1_18scalar_constant_opIdEESE_EESE_EEEENS_5DenseEEC2Ev
00000000003ba192 W _ZN5Eigen17CwiseBinaryOpImplINS_8internal17scalar_product_opIddEEKNS_9TransposeIKNS4_INS_6MatrixIdLi3ELi1ELi0ELi3ELi1EEEEEEEKNS_13CwiseBinaryOpINS1_20scalar_difference_opIddEEKS6_KNSB_IS3_KNS_14CwiseNullaryOpINS1_18scalar_constant_opIdEESE_EESE_EEEENS_5DenseEEC1Ev
00000000003ba192 W _ZN5Eigen17CwiseBinaryOpImplINS_8internal17scalar_product_opIddEEKNS_9TransposeIKNS4_INS_6MatrixIdLi3ELi1ELi0ELi3ELi1EEEEEEEKNS_13CwiseBinaryOpINS1_20scalar_difference_opIddEEKS6_KNSB_IS3_KNS_14CwiseNullaryOpINS1_18scalar_constant_opIdEESE_EESE_EEEENS_5DenseEEC2Ev
00000000003b9e2a W _ZN5Eigen17CwiseBinaryOpImplINS_8internal17scalar_product_opIddEEKNS_9TransposeIKNS4_INS_6MatrixIdLi3ELi1ELi0ELi3ELi1EEEEEEEKS6_NS_5DenseEEC1Ev
00000000003b9e2a W _ZN5Eigen17CwiseBinaryOpImplINS_8internal17scalar_product_opIddEEKNS_9TransposeIKNS4_INS_6MatrixIdLi3ELi1ELi0ELi3ELi1EEEEEEEKS6_NS_5DenseEEC2Ev
0000000000353718 W _ZN5Eigen17CwiseBinaryOpImplINS_8internal17scalar_product_opIddEEKNS_9TransposeIKNS_5BlockIKNS_6MatrixIdLi3ELi3ELi0ELi3ELi3EEELi1ELi3ELb0EEEEEKNS5_IKNS6_IdLi3ELi1ELi0ELi3ELi1EEELi3ELi1ELb1EEENS_5DenseEEC1Ev
0000000000353718 W _ZN5Eigen17CwiseBinaryOpImplINS_8internal17scalar_product_opIddEEKNS_9TransposeIKNS_5BlockIKNS_6MatrixIdLi3ELi3ELi0ELi3ELi3EEELi1ELi3ELb0EEEEEKNS5_IKNS6_IdLi3ELi1ELi0ELi3ELi1EEELi3ELi1ELb1EEENS_5DenseEEC2Ev
00000000003a6278 W _ZN5Eigen17CwiseBinaryOpImplINS_8internal17scalar_product_opIddEEKNS_9TransposeIKNS_5BlockIKNS_6MatrixIdLin1ELi3ELi0ELin1ELi3EEELi1ELi3ELb0EEEEEKNS5_IKNS6_IdLi3ELi1ELi0ELi3ELi1EEELi3ELi1ELb1EEENS_5DenseEEC1Ev
00000000003a6278 W _ZN5Eigen17CwiseBinaryOpImplINS_8internal17scalar_product_opIddEEKNS_9TransposeIKNS_5BlockIKNS_6MatrixIdLin1ELi3ELi0ELin1ELi3EEELi1ELi3ELb0EEEEEKNS5_IKNS6_IdLi3ELi1ELi0ELi3ELi1EEELi3ELi1ELb1EEENS_5DenseEEC2Ev
00000000003db900 W _ZN5Eigen17CwiseBinaryOpImplINS_8internal17scalar_product_opIddEEKNS_9TransposeIKNS_7ProductINS_13CwiseBinaryOpIS3_KNS_14CwiseNullaryOpINS1_18scalar_constant_opIdEEKNS_6MatrixIdLi1ELin1ELi1ELi1ELin1EEEEEKNS4_IKNS6_INS1_20scalar_difference_opIddEEKNSA_IdLin1ELi1ELi0ELin1ELi1EEESI_EEEEEENS_15DiagonalWrapperISI_EELi1EEEEESK_NS_5DenseEEC1Ev
00000000003db900 W _ZN5Eigen17CwiseBinaryOpImplINS_8internal17scalar_product_opIddEEKNS_9TransposeIKNS_7ProductINS_13CwiseBinaryOpIS3_KNS_14CwiseNullaryOpINS1_18scalar_constant_opIdEEKNS_6MatrixIdLi1ELin1ELi1ELi1ELin1EEEEEKNS4_IKNS6_INS1_20scalar_difference_opIddEEKNSA_IdLin1ELi1ELi0ELin1ELi1EEESI_EEEEEENS_15DiagonalWrapperISI_EELi1EEEEESK_NS_5DenseEEC2Ev
00000000003ff92c W _ZN5Eigen17CwiseBinaryOpImplINS_8internal18scalar_quotient_opIddEEKNS_12CwiseUnaryOpINS1_18scalar_opposite_opIdEEKNS_13CwiseBinaryOpINS1_13scalar_sum_opIddEEKNS7_INS1_17scalar_product_opIddEEKNS_14CwiseNullaryOpINS1_18scalar_constant_opIdEEKNS_6MatrixIdLin1ELi1ELi0ELin1ELi1EEEEEKNS7_INS1_20scalar_difference_opIddEESH_SH_EEEEKNS7_ISB_SJ_KNS7_IS9_KNS7_ISB_SJ_SH_EESH_EEEEEEEESJ_NS_5DenseEEC1Ev
00000000003ff92c W _ZN5Eigen17CwiseBinaryOpImplINS_8internal18scalar_quotient_opIddEEKNS_12CwiseUnaryOpINS1_18scalar_opposite_opIdEEKNS_13CwiseBinaryOpINS1_13scalar_sum_opIddEEKNS7_INS1_17scalar_product_opIddEEKNS_14CwiseNullaryOpINS1_18scalar_constant_opIdEEKNS_6MatrixIdLin1ELi1ELi0ELin1ELi1EEEEEKNS7_INS1_20scalar_difference_opIddEESH_SH_EEEEKNS7_ISB_SJ_KNS7_IS9_KNS7_ISB_SJ_SH_EESH_EEEEEEEESJ_NS_5DenseEEC2Ev
00000000003ffdf0 W _ZN5Eigen17CwiseBinaryOpImplINS_8internal18scalar_quotient_opIddEEKNS_13CwiseBinaryOpINS1_13scalar_sum_opIddEEKNS4_INS1_17scalar_product_opIddEEKNS_14CwiseNullaryOpINS1_18scalar_constant_opIdEEKNS_6MatrixIdLin1ELi1ELi0ELin1ELi1EEEEEKNS4_INS1_20scalar_difference_opIddEESE_SE_EEEEKNS4_IS8_SG_KNS4_IS6_SE_SE_EEEEEESG_NS_5DenseEEC1Ev
00000000003ffdf0 W _ZN5Eigen17CwiseBinaryOpImplINS_8internal18scalar_quotient_opIddEEKNS_13CwiseBinaryOpINS1_13scalar_sum_opIddEEKNS4_INS1_17scalar_product_opIddEEKNS_14CwiseNullaryOpINS1_18scalar_constant_opIdEEKNS_6MatrixIdLin1ELi1ELi0ELin1ELi1EEEEEKNS4_INS1_20scalar_difference_opIddEESE_SE_EEEEKNS4_IS8_SG_KNS4_IS6_SE_SE_EEEEEESG_NS_5DenseEEC2Ev
00000000004000ac W _ZN5Eigen17CwiseBinaryOpImplINS_8internal18scalar_quotient_opIddEEKNS_13CwiseBinaryOpINS1_17scalar_product_opIddEEKNS_14CwiseNullaryOpINS1_18scalar_constant_opIdEEKNS_6MatrixIdLin1ELi1ELi0ELin1ELi1EEEEEKNS4_INS1_13scalar_sum_opIddEEKNS4_IS6_SE_SC_EESC_EEEESE_NS_5DenseEEC1Ev
00000000004000ac W _ZN5Eigen17CwiseBinaryOpImplINS_8internal18scalar_quotient_opIddEEKNS_13CwiseBinaryOpINS1_17scalar_product_opIddEEKNS_14CwiseNullaryOpINS1_18scalar_constant_opIdEEKNS_6MatrixIdLin1ELi1ELi0ELin1ELi1EEEEEKNS4_INS1_13scalar_sum_opIddEEKNS4_IS6_SE_SC_EESC_EEEESE_NS_5DenseEEC2Ev
0000000000400764 W _ZN5Eigen17CwiseBinaryOpImplINS_8internal18scalar_quotient_opIddEEKNS_13CwiseBinaryOpINS1_17scalar_product_opIddEEKNS_14CwiseNullaryOpINS1_18scalar_constant_opIdEEKNS_6MatrixIdLin1ELi1ELi0ELin1ELi1EEEEEKNS4_INS1_13scalar_sum_opIddEEKNS4_ISG_KNS4_INS1_20scalar_difference_opIddEEKNS4_IS6_SE_SC_EESK_EESK_EESK_EEEESE_NS_5DenseEEC1Ev
0000000000400764 W _ZN5Eigen17CwiseBinaryOpImplINS_8internal18scalar_quotient_opIddEEKNS_13CwiseBinaryOpINS1_17scalar_product_opIddEEKNS_14CwiseNullaryOpINS1_18scalar_constant_opIdEEKNS_6MatrixIdLin1ELi1ELi0ELin1ELi1EEEEEKNS4_INS1_13scalar_sum_opIddEEKNS4_ISG_KNS4_INS1_20scalar_difference_opIddEEKNS4_IS6_SE_SC_EESK_EESK_EESK_EEEESE_NS_5DenseEEC2Ev
00000000003fff76 W _ZN5Eigen17CwiseBinaryOpImplINS_8internal18scalar_quotient_opIddEEKNS_13CwiseBinaryOpINS1_17scalar_product_opIddEEKNS_14CwiseNullaryOpINS1_18scalar_constant_opIdEEKNS_6MatrixIdLin1ELi1ELi0ELin1ELi1EEEEEKNS4_INS1_13scalar_sum_opIddEESC_SC_EEEESE_NS_5DenseEEC1Ev
00000000003fff76 W _ZN5Eigen17CwiseBinaryOpImplINS_8internal18scalar_quotient_opIddEEKNS_13CwiseBinaryOpINS1_17scalar_product_opIddEEKNS_14CwiseNullaryOpINS1_18scalar_constant_opIdEEKNS_6MatrixIdLin1ELi1ELi0ELin1ELi1EEEEEKNS4_INS1_13scalar_sum_opIddEESC_SC_EEEESE_NS_5DenseEEC2Ev
00000000003b2ba0 W _ZN5Eigen17CwiseBinaryOpImplINS_8internal18scalar_quotient_opIddEEKNS_6MatrixIdLi2ELi1ELi0ELi2ELi1EEEKNS_14CwiseNullaryOpINS1_18scalar_constant_opIdEES6_EENS_5DenseEEC1Ev
00000000003b2ba0 W _ZN5Eigen17CwiseBinaryOpImplINS_8internal18scalar_quotient_opIddEEKNS_6MatrixIdLi2ELi1ELi0ELi2ELi1EEEKNS_14CwiseNullaryOpINS1_18scalar_constant_opIdEES6_EENS_5DenseEEC2Ev
00000000003f31ae W _ZN5Eigen17CwiseBinaryOpImplINS_8internal18scalar_quotient_opIddEEKNS_6MatrixIdLi3ELi1ELi0ELi3ELi1EEEKNS_14CwiseNullaryOpINS1_18scalar_constant_opIdEES6_EENS_5DenseEEC1Ev
00000000003f31ae W _ZN5Eigen17CwiseBinaryOpImplINS_8internal18scalar_quotient_opIddEEKNS_6MatrixIdLi3ELi1ELi0ELi3ELi1EEEKNS_14CwiseNullaryOpINS1_18scalar_constant_opIdEES6_EENS_5DenseEEC2Ev
000000000035d51a W _ZN5Eigen17CwiseBinaryOpImplINS_8internal18scalar_quotient_opIddEEKNS_6MatrixIdLin1ELi1ELi0ELin1ELi1EEEKNS_14CwiseNullaryOpINS1_18scalar_constant_opIdEES6_EENS_5DenseEEC1Ev
000000000035d51a W _ZN5Eigen17CwiseBinaryOpImplINS_8internal18scalar_quotient_opIddEEKNS_6MatrixIdLin1ELi1ELi0ELin1ELi1EEEKNS_14CwiseNullaryOpINS1_18scalar_constant_opIdEES6_EENS_5DenseEEC2Ev
00000000003d2124 W _ZN5Eigen17CwiseBinaryOpImplINS_8internal20scalar_difference_opIddEEKNS_12SparseMatrixIdLi1EiEES6_NS_6SparseEEC1Ev
00000000003d2124 W _ZN5Eigen17CwiseBinaryOpImplINS_8internal20scalar_difference_opIddEEKNS_12SparseMatrixIdLi1EiEES6_NS_6SparseEEC2Ev
0000000000421110 W _ZN5Eigen17CwiseBinaryOpImplINS_8internal20scalar_difference_opIddEEKNS_13CwiseBinaryOpINS1_13scalar_sum_opIddEEKNS4_INS1_17scalar_product_opIddEEKNS_14CwiseNullaryOpINS1_18scalar_constant_opIdEEKNS_6MatrixIdLi1ELin1ELi1ELi1ELin1EEEEEKNS_12SparseVectorIdLi1EiEEEESL_EESL_NS_6SparseEEC1Ev
0000000000421110 W _ZN5Eigen17CwiseBinaryOpImplINS_8internal20scalar_difference_opIddEEKNS_13CwiseBinaryOpINS1_13scalar_sum_opIddEEKNS4_INS1_17scalar_product_opIddEEKNS_14CwiseNullaryOpINS1_18scalar_constant_opIdEEKNS_6MatrixIdLi1ELin1ELi1ELi1ELin1EEEEEKNS_12SparseVectorIdLi1EiEEEESL_EESL_NS_6SparseEEC2Ev
000000000038bf9a W _ZN5Eigen17CwiseBinaryOpImplINS_8internal20scalar_difference_opIddEEKNS_13CwiseBinaryOpINS1_13scalar_sum_opIddEEKNS_7ProductINS_12SparseMatrixIdLi1EiEENS_6MatrixIdLi3ELi1ELi0ELi3ELi1EEELi0EEEKNS7_IS9_SC_Li0EEEEEKSB_NS_5DenseEEC1Ev
000000000038bf9a W _ZN5Eigen17CwiseBinaryOpImplINS_8internal20scalar_difference_opIddEEKNS_13CwiseBinaryOpINS1_13scalar_sum_opIddEEKNS_7ProductINS_12SparseMatrixIdLi1EiEENS_6MatrixIdLi3ELi1ELi0ELi3ELi1EEELi0EEEKNS7_IS9_SC_Li0EEEEEKSB_NS_5DenseEEC2Ev
00000000004203b2 W _ZN5Eigen17CwiseBinaryOpImplINS_8internal20scalar_difference_opIddEEKNS_13CwiseBinaryOpINS1_17scalar_product_opIddEEKNS_14CwiseNullaryOpINS1_18scalar_constant_opIdEEKNS_6MatrixIdLi1ELin1ELi1ELi1ELin1EEEEEKNS_12SparseVectorIdLi1EiEEEESJ_NS_6SparseEEC1Ev
00000000004203b2 W _ZN5Eigen17CwiseBinaryOpImplINS_8internal20scalar_difference_opIddEEKNS_13CwiseBinaryOpINS1_17scalar_product_opIddEEKNS_14CwiseNullaryOpINS1_18scalar_constant_opIdEEKNS_6MatrixIdLi1ELin1ELi1ELi1ELin1EEEEEKNS_12SparseVectorIdLi1EiEEEESJ_NS_6SparseEEC2Ev
00000000003f2c30 W _ZN5Eigen17CwiseBinaryOpImplINS_8internal20scalar_difference_opIddEEKNS_13CwiseBinaryOpINS1_17scalar_product_opIddEEKNS_14CwiseNullaryOpINS1_18scalar_constant_opIdEEKNS_6MatrixIdLi3ELi1ELi0ELi3ELi1EEEEEKNS_5BlockIKNS7_INS1_18scalar_identity_opIdEENSA_IdLi3ELi3ELi0ELi3ELi3EEEEELi3ELi1ELb0EEEEEKNS4_IS6_SE_SC_EENS_5DenseEEC1Ev
00000000003f2c30 W _ZN5Eigen17CwiseBinaryOpImplINS_8internal20scalar_difference_opIddEEKNS_13CwiseBinaryOpINS1_17scalar_product_opIddEEKNS_14CwiseNullaryOpINS1_18scalar_constant_opIdEEKNS_6MatrixIdLi3ELi1ELi0ELi3ELi1EEEEEKNS_5BlockIKNS7_INS1_18scalar_identity_opIdEENSA_IdLi3ELi3ELi0ELi3ELi3EEEEELi3ELi1ELb0EEEEEKNS4_IS6_SE_SC_EENS_5DenseEEC2Ev
000000000038c2ac W _ZN5Eigen17CwiseBinaryOpImplINS_8internal20scalar_difference_opIddEEKNS_13CwiseBinaryOpINS1_17scalar_product_opIddEEKNS_14CwiseNullaryOpINS1_18scalar_constant_opIdEEKNS_6MatrixIdLi3ELi1ELi0ELi3ELi1EEEEESC_EESC_NS_5DenseEEC1Ev
000000000038c2ac W _ZN5Eigen17CwiseBinaryOpImplINS_8internal20scalar_difference_opIddEEKNS_13CwiseBinaryOpINS1_17scalar_product_opIddEEKNS_14CwiseNullaryOpINS1_18scalar_constant_opIdEEKNS_6MatrixIdLi3ELi1ELi0ELi3ELi1EEEEESC_EESC_NS_5DenseEEC2Ev
00000000004002c0 W _ZN5Eigen17CwiseBinaryOpImplINS_8internal20scalar_difference_opIddEEKNS_13CwiseBinaryOpINS1_17scalar_product_opIddEEKNS_14CwiseNullaryOpINS1_18scalar_constant_opIdEEKNS_6MatrixIdLin1ELi1ELi0ELin1ELi1EEEEESC_EESG_NS_5DenseEEC1Ev
00000000004002c0 W _ZN5Eigen17CwiseBinaryOpImplINS_8internal20scalar_difference_opIddEEKNS_13CwiseBinaryOpINS1_17scalar_product_opIddEEKNS_14CwiseNullaryOpINS1_18scalar_constant_opIdEEKNS_6MatrixIdLin1ELi1ELi0ELin1ELi1EEEEESC_EESG_NS_5DenseEEC2Ev
00000000004001c4 W _ZN5Eigen17CwiseBinaryOpImplINS_8internal20scalar_difference_opIddEEKNS_13CwiseBinaryOpINS1_18scalar_quotient_opIddEEKNS4_INS1_17scalar_product_opIddEEKNS_14CwiseNullaryOpINS1_18scalar_constant_opIdEEKNS_6MatrixIdLin1ELi1ELi0ELin1ELi1EEEEEKNS4_INS1_13scalar_sum_opIddEESE_SE_EEEESG_EEKNS4_IS6_KNS4_IS8_SG_KNS4_ISI_KNS4_IS8_SG_SE_EESE_EEEESG_EENS_5DenseEEC1Ev
00000000004001c4 W _ZN5Eigen17CwiseBinaryOpImplINS_8internal20scalar_difference_opIddEEKNS_13CwiseBinaryOpINS1_18scalar_quotient_opIddEEKNS4_INS1_17scalar_product_opIddEEKNS_14CwiseNullaryOpINS1_18scalar_constant_opIdEEKNS_6MatrixIdLin1ELi1ELi0ELin1ELi1EEEEEKNS4_INS1_13scalar_sum_opIddEESE_SE_EEEESG_EEKNS4_IS6_KNS4_IS8_SG_KNS4_ISI_KNS4_IS8_SG_SE_EESE_EEEESG_EENS_5DenseEEC2Ev
0000000000421168 W _ZN5Eigen17CwiseBinaryOpImplINS_8internal20scalar_difference_opIddEEKNS_13CwiseBinaryOpIS3_KNS4_INS1_13scalar_sum_opIddEEKNS4_INS1_17scalar_product_opIddEEKNS_14CwiseNullaryOpINS1_18scalar_constant_opIdEEKNS_6MatrixIdLi1ELin1ELi1ELi1ELin1EEEEEKNS_12SparseVectorIdLi1EiEEEESL_EESL_EESL_NS_6SparseEEC1Ev
0000000000421168 W _ZN5Eigen17CwiseBinaryOpImplINS_8internal20scalar_difference_opIddEEKNS_13CwiseBinaryOpIS3_KNS4_INS1_13scalar_sum_opIddEEKNS4_INS1_17scalar_product_opIddEEKNS_14CwiseNullaryOpINS1_18scalar_constant_opIdEEKNS_6MatrixIdLi1ELin1ELi1ELi1ELin1EEEEEKNS_12SparseVectorIdLi1EiEEEESL_EESL_EESL_NS_6SparseEEC2Ev
0000000000420bb2 W _ZN5Eigen17CwiseBinaryOpImplINS_8internal20scalar_difference_opIddEEKNS_13CwiseBinaryOpIS3_KNS4_INS1_17scalar_product_opIddEEKNS_14CwiseNullaryOpINS1_18scalar_constant_opIdEEKNS_6MatrixIdLi1ELin1ELi1ELi1ELin1EEEEEKNS_12SparseVectorIdLi1EiEEEESJ_EESJ_NS_6SparseEEC1Ev
0000000000420bb2 W _ZN5Eigen17CwiseBinaryOpImplINS_8internal20scalar_difference_opIddEEKNS_13CwiseBinaryOpIS3_KNS4_INS1_17scalar_product_opIddEEKNS_14CwiseNullaryOpINS1_18scalar_constant_opIdEEKNS_6MatrixIdLi1ELin1ELi1ELi1ELin1EEEEEKNS_12SparseVectorIdLi1EiEEEESJ_EESJ_NS_6SparseEEC2Ev
000000000038c3a8 W _ZN5Eigen17CwiseBinaryOpImplINS_8internal20scalar_difference_opIddEEKNS_13CwiseBinaryOpIS3_KNS4_INS1_17scalar_product_opIddEEKNS_14CwiseNullaryOpINS1_18scalar_constant_opIdEEKNS_6MatrixIdLi3ELi1ELi0ELi3ELi1EEEEESC_EESC_EESC_NS_5DenseEEC1Ev
000000000038c3a8 W _ZN5Eigen17CwiseBinaryOpImplINS_8internal20scalar_difference_opIddEEKNS_13CwiseBinaryOpIS3_KNS4_INS1_17scalar_product_opIddEEKNS_14CwiseNullaryOpINS1_18scalar_constant_opIdEEKNS_6MatrixIdLi3ELi1ELi0ELi3ELi1EEEEESC_EESC_EESC_NS_5DenseEEC2Ev
0000000000400880 W _ZN5Eigen17CwiseBinaryOpImplINS_8internal20scalar_difference_opIddEEKNS_13CwiseBinaryOpIS3_KNS4_INS1_18scalar_quotient_opIddEEKNS4_INS1_17scalar_product_opIddEEKNS_14CwiseNullaryOpINS1_18scalar_constant_opIdEEKNS_6MatrixIdLin1ELi1ELi0ELin1ELi1EEEEEKNS4_INS1_13scalar_sum_opIddEESE_SE_EEEESG_EEKNS4_IS6_KNS4_IS8_SG_KNS4_ISI_KNS4_IS8_SG_SE_EESE_EEEESG_EEEEKNS4_IS6_KNS4_IS8_SG_KNS4_ISI_KNS4_ISI_KNS4_IS3_SQ_SQ_EESQ_EESQ_EEEESG_EENS_5DenseEEC1Ev
0000000000400880 W _ZN5Eigen17CwiseBinaryOpImplINS_8internal20scalar_difference_opIddEEKNS_13CwiseBinaryOpIS3_KNS4_INS1_18scalar_quotient_opIddEEKNS4_INS1_17scalar_product_opIddEEKNS_14CwiseNullaryOpINS1_18scalar_constant_opIdEEKNS_6MatrixIdLin1ELi1ELi0ELin1ELi1EEEEEKNS4_INS1_13scalar_sum_opIddEESE_SE_EEEESG_EEKNS4_IS6_KNS4_IS8_SG_KNS4_ISI_KNS4_IS8_SG_SE_EESE_EEEESG_EEEEKNS4_IS6_KNS4_IS8_SG_KNS4_ISI_KNS4_ISI_KNS4_IS3_SQ_SQ_EESQ_EESQ_EEEESG_EENS_5DenseEEC2Ev
000000000042182c W _ZN5Eigen17CwiseBinaryOpImplINS_8internal20scalar_difference_opIddEEKNS_13CwiseBinaryOpIS3_KNS4_IS3_KNS4_INS1_17scalar_product_opIddEEKNS_14CwiseNullaryOpINS1_18scalar_constant_opIdEEKNS_6MatrixIdLi1ELin1ELi1ELi1ELin1EEEEEKNS_12SparseVectorIdLi1EiEEEESJ_EESJ_EESJ_NS_6SparseEEC1Ev
000000000042182c W _ZN5Eigen17CwiseBinaryOpImplINS_8internal20scalar_difference_opIddEEKNS_13CwiseBinaryOpIS3_KNS4_IS3_KNS4_INS1_17scalar_product_opIddEEKNS_14CwiseNullaryOpINS1_18scalar_constant_opIdEEKNS_6MatrixIdLi1ELin1ELi1ELi1ELin1EEEEEKNS_12SparseVectorIdLi1EiEEEESJ_EESJ_EESJ_NS_6SparseEEC2Ev
00000000004219e2 W _ZN5Eigen17CwiseBinaryOpImplINS_8internal20scalar_difference_opIddEEKNS_13CwiseBinaryOpIS3_KNS4_IS3_KNS4_IS3_KNS4_INS1_17scalar_product_opIddEEKNS_14CwiseNullaryOpINS1_18scalar_constant_opIdEEKNS_6MatrixIdLi1ELin1ELi1ELi1ELin1EEEEEKNS_12SparseVectorIdLi1EiEEEESJ_EESJ_EESJ_EEKNS4_IS6_SJ_SE_EENS_6SparseEEC1Ev
00000000004219e2 W _ZN5Eigen17CwiseBinaryOpImplINS_8internal20scalar_difference_opIddEEKNS_13CwiseBinaryOpIS3_KNS4_IS3_KNS4_IS3_KNS4_INS1_17scalar_product_opIddEEKNS_14CwiseNullaryOpINS1_18scalar_constant_opIdEEKNS_6MatrixIdLi1ELin1ELi1ELi1ELin1EEEEEKNS_12SparseVectorIdLi1EiEEEESJ_EESJ_EESJ_EEKNS4_IS6_SJ_SE_EENS_6SparseEEC2Ev
0000000000421848 W _ZN5Eigen17CwiseBinaryOpImplINS_8internal20scalar_difference_opIddEEKNS_13CwiseBinaryOpIS3_KNS4_IS3_KNS4_IS3_KNS4_INS1_17scalar_product_opIddEEKNS_14CwiseNullaryOpINS1_18scalar_constant_opIdEEKNS_6MatrixIdLi1ELin1ELi1ELi1ELin1EEEEEKNS_12SparseVectorIdLi1EiEEEESJ_EESJ_EESJ_EESJ_NS_6SparseEEC1Ev
0000000000421848 W _ZN5Eigen17CwiseBinaryOpImplINS_8internal20scalar_difference_opIddEEKNS_13CwiseBinaryOpIS3_KNS4_IS3_KNS4_IS3_KNS4_INS1_17scalar_product_opIddEEKNS_14CwiseNullaryOpINS1_18scalar_constant_opIdEEKNS_6MatrixIdLi1ELin1ELi1ELi1ELin1EEEEEKNS_12SparseVectorIdLi1EiEEEESJ_EESJ_EESJ_EESJ_NS_6SparseEEC2Ev
00000000004219fe W _ZN5Eigen17CwiseBinaryOpImplINS_8internal20scalar_difference_opIddEEKNS_13CwiseBinaryOpIS3_KNS4_IS3_KNS4_IS3_KNS4_IS3_KNS4_INS1_17scalar_product_opIddEEKNS_14CwiseNullaryOpINS1_18scalar_constant_opIdEEKNS_6MatrixIdLi1ELin1ELi1ELi1ELin1EEEEEKNS_12SparseVectorIdLi1EiEEEESJ_EESJ_EESJ_EEKNS4_IS6_SJ_SE_EEEESJ_NS_6SparseEEC1Ev
00000000004219fe W _ZN5Eigen17CwiseBinaryOpImplINS_8internal20scalar_difference_opIddEEKNS_13CwiseBinaryOpIS3_KNS4_IS3_KNS4_IS3_KNS4_IS3_KNS4_INS1_17scalar_product_opIddEEKNS_14CwiseNullaryOpINS1_18scalar_constant_opIdEEKNS_6MatrixIdLi1ELin1ELi1ELi1ELin1EEEEEKNS_12SparseVectorIdLi1EiEEEESJ_EESJ_EESJ_EEKNS4_IS6_SJ_SE_EEEESJ_NS_6SparseEEC2Ev
00000000003b2734 W _ZN5Eigen17CwiseBinaryOpImplINS_8internal20scalar_difference_opIddEEKNS_6MatrixIdLi2ELi1ELi0ELi2ELi1EEES6_NS_5DenseEEC1Ev
00000000003b2734 W _ZN5Eigen17CwiseBinaryOpImplINS_8internal20scalar_difference_opIddEEKNS_6MatrixIdLi2ELi1ELi0ELi2ELi1EEES6_NS_5DenseEEC2Ev
00000000003b8798 W _ZN5Eigen17CwiseBinaryOpImplINS_8internal20scalar_difference_opIddEEKNS_6MatrixIdLi3ELi1ELi0ELi3ELi1EEEKNS_13CwiseBinaryOpINS1_17scalar_product_opIddEEKNS_14CwiseNullaryOpINS1_18scalar_constant_opIdEES6_EES6_EENS_5DenseEEC1Ev
00000000003b8798 W _ZN5Eigen17CwiseBinaryOpImplINS_8internal20scalar_difference_opIddEEKNS_6MatrixIdLi3ELi1ELi0ELi3ELi1EEEKNS_13CwiseBinaryOpINS1_17scalar_product_opIddEEKNS_14CwiseNullaryOpINS1_18scalar_constant_opIdEES6_EES6_EENS_5DenseEEC2Ev
000000000038b6a0 W _ZN5Eigen17CwiseBinaryOpImplINS_8internal20scalar_difference_opIddEEKNS_6MatrixIdLi3ELi1ELi0ELi3ELi1EEES6_NS_5DenseEEC1Ev
000000000038b6a0 W _ZN5Eigen17CwiseBinaryOpImplINS_8internal20scalar_difference_opIddEEKNS_6MatrixIdLi3ELi1ELi0ELi3ELi1EEES6_NS_5DenseEEC2Ev
000000000040b3e8 W _ZN5Eigen17CwiseBinaryOpImplINS_8internal20scalar_difference_opIddEEKNS_6MatrixIdLin1ELi1ELi0ELin1ELi1EEEKNS_13CwiseBinaryOpINS1_17scalar_product_opIddEEKNS_14CwiseNullaryOpINS1_18scalar_constant_opIdEES6_EES6_EENS_5DenseEEC1Ev
000000000040b3e8 W _ZN5Eigen17CwiseBinaryOpImplINS_8internal20scalar_difference_opIddEEKNS_6MatrixIdLin1ELi1ELi0ELin1ELi1EEEKNS_13CwiseBinaryOpINS1_17scalar_product_opIddEEKNS_14CwiseNullaryOpINS1_18scalar_constant_opIdEES6_EES6_EENS_5DenseEEC2Ev
000000000035d2ce W _ZN5Eigen17CwiseBinaryOpImplINS_8internal20scalar_difference_opIddEEKNS_6MatrixIdLin1ELi1ELi0ELin1ELi1EEES6_NS_5DenseEEC1Ev
000000000035d2ce W _ZN5Eigen17CwiseBinaryOpImplINS_8internal20scalar_difference_opIddEEKNS_6MatrixIdLin1ELi1ELi0ELin1ELi1EEES6_NS_5DenseEEC2Ev
000000000039161a W _ZN5Eigen17CwiseBinaryOpImplINS_8internal20scalar_difference_opIddEEKNS_7ProductINS_12SparseMatrixIdLi1EiEENS_13CwiseBinaryOpINS1_13scalar_sum_opIddEEKNS7_IS9_KS6_SA_EESA_EELi2EEEKNS4_IS6_S6_Li2EEENS_6SparseEEC1Ev
000000000039161a W _ZN5Eigen17CwiseBinaryOpImplINS_8internal20scalar_difference_opIddEEKNS_7ProductINS_12SparseMatrixIdLi1EiEENS_13CwiseBinaryOpINS1_13scalar_sum_opIddEEKNS7_IS9_KS6_SA_EESA_EELi2EEEKNS4_IS6_S6_Li2EEENS_6SparseEEC2Ev
000000000039063e W _ZN5Eigen20SparseCompressedBaseINS_12SparseMatrixIdLi0EiEEE13InnerIteratorC1ERKS3_l
000000000039063e W _ZN5Eigen20SparseCompressedBaseINS_12SparseMatrixIdLi0EiEEE13InnerIteratorC2ERKS3_l
0000000000390756 W _ZN5Eigen20SparseCompressedBaseINS_12SparseMatrixIdLi0EiEEE13InnerIteratorppEv
0000000000392a6e W _ZN5Eigen20SparseCompressedBaseINS_12SparseMatrixIdLi0EiEEEC1Ev
0000000000392a6e W _ZN5Eigen20SparseCompressedBaseINS_12SparseMatrixIdLi0EiEEEC2Ev
00000000003a1606 W _ZN5Eigen20SparseCompressedBaseINS_12SparseMatrixIdLi0ElEEE13InnerIteratorC1ERKS3_l
00000000003a1606 W _ZN5Eigen20SparseCompressedBaseINS_12SparseMatrixIdLi0ElEEE13InnerIteratorC2ERKS3_l
00000000003a1718 W _ZN5Eigen20SparseCompressedBaseINS_12SparseMatrixIdLi0ElEEE13InnerIteratorppEv
00000000003a00e4 W _ZN5Eigen20SparseCompressedBaseINS_12SparseMatrixIdLi0ElEEEC1Ev
00000000003a00e4 W _ZN5Eigen20SparseCompressedBaseINS_12SparseMatrixIdLi0ElEEEC2Ev
0000000000350fa0 W _ZN5Eigen20SparseCompressedBaseINS_12SparseMatrixIdLi1EiEEE13InnerIteratorC1ERKS3_l
0000000000350fa0 W _ZN5Eigen20SparseCompressedBaseINS_12SparseMatrixIdLi1EiEEE13InnerIteratorC2ERKS3_l
00000000003510b8 W _ZN5Eigen20SparseCompressedBaseINS_12SparseMatrixIdLi1EiEEE13InnerIteratorppEv
000000000036d044 W _ZN5Eigen20SparseCompressedBaseINS_12SparseMatrixIdLi1EiEEEC1Ev
000000000036d044 W _ZN5Eigen20SparseCompressedBaseINS_12SparseMatrixIdLi1EiEEEC2Ev
000000000038ff28 W _ZN5Eigen20SparseCompressedBaseINS_12SparseMatrixIdLi1ElEEE13InnerIteratorC1ERKS3_l
000000000038ff28 W _ZN5Eigen20SparseCompressedBaseINS_12SparseMatrixIdLi1ElEEE13InnerIteratorC2ERKS3_l
000000000039003a W _ZN5Eigen20SparseCompressedBaseINS_12SparseMatrixIdLi1ElEEE13InnerIteratorppEv
0000000000392376 W _ZN5Eigen20SparseCompressedBaseINS_12SparseMatrixIdLi1ElEEEC1Ev
0000000000392376 W _ZN5Eigen20SparseCompressedBaseINS_12SparseMatrixIdLi1ElEEEC2Ev
000000000042326c W _ZN5Eigen20SparseCompressedBaseINS_12SparseVectorIdLi1EiEEE13InnerIteratorC1ERKS3_l
000000000042326c W _ZN5Eigen20SparseCompressedBaseINS_12SparseVectorIdLi1EiEEE13InnerIteratorC2ERKS3_l
00000000004233c2 W _ZN5Eigen20SparseCompressedBaseINS_12SparseVectorIdLi1EiEEE13InnerIteratorppEv
000000000041c93c W _ZN5Eigen20SparseCompressedBaseINS_12SparseVectorIdLi1EiEEEC1Ev
000000000041c93c W _ZN5Eigen20SparseCompressedBaseINS_12SparseVectorIdLi1EiEEEC2Ev
0000000000390f54 W _ZN5Eigen20SparseCompressedBaseINS_3RefIKNS_12SparseMatrixIdLi1EiEELi0ENS_11OuterStrideILin1EEEEEE13InnerIteratorC1ERKS8_l
0000000000390f54 W _ZN5Eigen20SparseCompressedBaseINS_3RefIKNS_12SparseMatrixIdLi1EiEELi0ENS_11OuterStrideILin1EEEEEE13InnerIteratorC2ERKS8_l
000000000039106c W _ZN5Eigen20SparseCompressedBaseINS_3RefIKNS_12SparseMatrixIdLi1EiEELi0ENS_11OuterStrideILin1EEEEEE13InnerIteratorppEv
0000000000395d14 W _ZN5Eigen20SparseCompressedBaseINS_3RefIKNS_12SparseMatrixIdLi1EiEELi0ENS_11OuterStrideILin1EEEEEEC1Ev
0000000000395d14 W _ZN5Eigen20SparseCompressedBaseINS_3RefIKNS_12SparseMatrixIdLi1EiEELi0ENS_11OuterStrideILin1EEEEEEC2Ev
000000000042375c W _ZN5Eigen20SparseCompressedBaseINS_5BlockINS_12SparseMatrixIdLi1EiEELi1ELin1ELb1EEEE13InnerIteratorC1ERKS5_l
000000000042375c W _ZN5Eigen20SparseCompressedBaseINS_5BlockINS_12SparseMatrixIdLi1EiEELi1ELin1ELb1EEEE13InnerIteratorC2ERKS5_l
00000000004238b2 W _ZN5Eigen20SparseCompressedBaseINS_5BlockINS_12SparseMatrixIdLi1EiEELi1ELin1ELb1EEEE13InnerIteratorppEv
0000000000423d8a W _ZN5Eigen20SparseCompressedBaseINS_5BlockINS_12SparseMatrixIdLi1EiEELi1ELin1ELb1EEEEC1Ev
0000000000423d8a W _ZN5Eigen20SparseCompressedBaseINS_5BlockINS_12SparseMatrixIdLi1EiEELi1ELin1ELb1EEEEC2Ev
0000000000395cf8 W _ZN5Eigen20SparseCompressedBaseINS_5BlockINS_12SparseMatrixIdLi1EiEELin1ELin1ELb1EEEEC1Ev
0000000000395cf8 W _ZN5Eigen20SparseCompressedBaseINS_5BlockINS_12SparseMatrixIdLi1EiEELin1ELin1ELb1EEEEC2Ev
00000000003c4f32 W _ZN5Eigen20SparseCompressedBaseINS_9TransposeINS_12SparseMatrixIdLi1EiEEEEEC1Ev
00000000003c4f32 W _ZN5Eigen20SparseCompressedBaseINS_9TransposeINS_12SparseMatrixIdLi1EiEEEEEC2Ev
0000000000396e1c W _ZN5Eigen3MapIKNS_6MatrixIiLin1ELi1ELi0ELin1ELi1EEELi0ENS_6StrideILi0ELi0EEEE20cast_to_pointer_typeEPKi
0000000000393a64 W _ZN5Eigen3MapIKNS_6MatrixIiLin1ELi1ELi0ELin1ELi1EEELi0ENS_6StrideILi0ELi0EEEEC1EPKilRKS5_
0000000000393a64 W _ZN5Eigen3MapIKNS_6MatrixIiLin1ELi1ELi0ELin1ELi1EEELi0ENS_6StrideILi0ELi0EEEEC2EPKilRKS5_
0000000000399c62 W _ZN5Eigen3MapIKNS_6MatrixIlLin1ELi1ELi0ELin1ELi1EEELi0ENS_6StrideILi0ELi0EEEE20cast_to_pointer_typeEPKl
0000000000397b18 W _ZN5Eigen3MapIKNS_6MatrixIlLin1ELi1ELi0ELin1ELi1EEELi0ENS_6StrideILi0ELi0EEEEC1EPKllRKS5_
0000000000397b18 W _ZN5Eigen3MapIKNS_6MatrixIlLin1ELi1ELi0ELin1ELi1EEELi0ENS_6StrideILi0ELi0EEEEC2EPKllRKS5_
000000000036f376 W _ZN5Eigen3MapINS_6MatrixIiLin1ELi1ELi0ELin1ELi1EEELi0ENS_6StrideILi0ELi0EEEE20cast_to_pointer_typeEPi
000000000036e5b4 W _ZN5Eigen3MapINS_6MatrixIiLin1ELi1ELi0ELin1ELi1EEELi0ENS_6StrideILi0ELi0EEEEC1EPilRKS4_
000000000036e5b4 W _ZN5Eigen3MapINS_6MatrixIiLin1ELi1ELi0ELin1ELi1EEELi0ENS_6StrideILi0ELi0EEEEC2EPilRKS4_
00000000003975ec W _ZN5Eigen3MapINS_6MatrixIlLin1ELi1ELi0ELin1ELi1EEELi0ENS_6StrideILi0ELi0EEEE20cast_to_pointer_typeEPl
0000000000394bbc W _ZN5Eigen3MapINS_6MatrixIlLin1ELi1ELi0ELin1ELi1EEELi0ENS_6StrideILi0ELi0EEEEC1EPllRKS4_
0000000000394bbc W _ZN5Eigen3MapINS_6MatrixIlLin1ELi1ELi0ELin1ELi1EEELi0ENS_6StrideILi0ELi0EEEEC2EPllRKS4_
0000000000390d1e W _ZN5Eigen3RefIKNS_12SparseMatrixIdLi1EiEELi0ENS_11OuterStrideILin1EEEE9constructINS_12CwiseUnaryOpINS_8internal18scalar_opposite_opIdEES3_EEEEvRKT_NS9_10false_typeE
00000000004225b6 W _ZN5Eigen3RefIKNS_12SparseMatrixIdLi1EiEELi0ENS_11OuterStrideILin1EEEE9constructINS_13CwiseBinaryOpINS_8internal13scalar_sum_opIddEEKNS_5BlockIS2_Li1ELin1ELb1EEEKNS8_INS9_17scalar_product_opIddEEKNS_14CwiseNullaryOpINS9_18scalar_constant_opIdEEKNS_6MatrixIdLi1ELin1ELi1ELi1ELin1EEEEEKNS_12SparseVectorIdLi1EiEEEEEEEEvRKT_NS9_10false_typeE
000000000042013c W _ZN5Eigen3RefIKNS_12SparseMatrixIdLi1EiEELi0ENS_11OuterStrideILin1EEEE9constructINS_13CwiseBinaryOpINS_8internal13scalar_sum_opIddEEKNS_7ProductINS_12SparseVectorIdLi1EiEES2_Li2EEEKNSC_INS_5BlockIS2_Li1ELin1ELb1EEES2_Li2EEEEEEEvRKT_NS9_10false_typeE
0000000000421954 W _ZN5Eigen3RefIKNS_12SparseMatrixIdLi1EiEELi0ENS_11OuterStrideILin1EEEE9constructINS_13CwiseBinaryOpINS_8internal13scalar_sum_opIddEEKNS8_INS9_20scalar_difference_opIddEEKNS8_ISD_KNS8_ISD_KNS8_ISD_KNS8_INS9_17scalar_product_opIddEEKNS_14CwiseNullaryOpINS9_18scalar_constant_opIdEEKNS_6MatrixIdLi1ELin1ELi1ELi1ELin1EEEEEKNS_12SparseVectorIdLi1EiEEEESS_EESS_EESS_EESS_EEKNS8_ISF_SS_SN_EEEEEEvRKT_NS9_10false_typeE
000000000042027a W _ZN5Eigen3RefIKNS_12SparseMatrixIdLi1EiEELi0ENS_11OuterStrideILin1EEEE9constructINS_13CwiseBinaryOpINS_8internal13scalar_sum_opIddEEKNS8_ISB_KNS8_ISB_KNS_7ProductINS_12SparseVectorIdLi1EiEES2_Li2EEEKNSC_INS_5BlockIS2_Li1ELin1ELb1EEES2_Li2EEEEESG_EESK_EEEEvRKT_NS9_10false_typeE
0000000000391a92 W _ZN5Eigen3RefIKNS_12SparseMatrixIdLi1EiEELi0ENS_11OuterStrideILin1EEEE9constructINS_13CwiseBinaryOpINS_8internal13scalar_sum_opIddEES3_S3_EEEEvRKT_NS9_10false_typeE
0000000000420324 W _ZN5Eigen3RefIKNS_12SparseMatrixIdLi1EiEELi0ENS_11OuterStrideILin1EEEE9constructINS_13CwiseBinaryOpINS_8internal17scalar_product_opIddEEKNS_14CwiseNullaryOpINS9_18scalar_constant_opIdEEKNS_6MatrixIdLi1ELin1ELi1ELi1ELin1EEEEEKNS_12SparseVectorIdLi1EiEEEEEEvRKT_NS9_10false_typeE
00000000003910fe W _ZN5Eigen3RefIKNS_12SparseMatrixIdLi1EiEELi0ENS_11OuterStrideILin1EEEE9constructINS_13CwiseBinaryOpINS_8internal17scalar_product_opIddEEKNS_14CwiseNullaryOpINS9_18scalar_constant_opIdEEKNS_6MatrixIdLin1ELin1ELi1ELin1ELin1EEEEES3_EEEEvRKT_NS9_10false_typeE
00000000004203ce W _ZN5Eigen3RefIKNS_12SparseMatrixIdLi1EiEELi0ENS_11OuterStrideILin1EEEE9constructINS_13CwiseBinaryOpINS_8internal20scalar_difference_opIddEEKNS8_INS9_17scalar_product_opIddEEKNS_14CwiseNullaryOpINS9_18scalar_constant_opIdEEKNS_6MatrixIdLi1ELin1ELi1ELi1ELin1EEEEEKNS_12SparseVectorIdLi1EiEEEESQ_EEEEvRKT_NS9_10false_typeE
0000000000421a58 W _ZN5Eigen3RefIKNS_12SparseMatrixIdLi1EiEELi0ENS_11OuterStrideILin1EEEE9constructINS_13CwiseBinaryOpINS_8internal20scalar_difference_opIddEEKNS8_ISB_KNS8_ISB_KNS8_ISB_KNS8_ISB_KNS8_INS9_17scalar_product_opIddEEKNS_14CwiseNullaryOpINS9_18scalar_constant_opIdEEKNS_6MatrixIdLi1ELin1ELi1ELi1ELin1EEEEEKNS_12SparseVectorIdLi1EiEEEESQ_EESQ_EESQ_EEKNS8_ISD_SQ_SL_EEEESQ_EEEEvRKT_NS9_10false_typeE
00000000003d2140 W _ZN5Eigen3RefIKNS_12SparseMatrixIdLi1EiEELi0ENS_11OuterStrideILin1EEEE9constructINS_13CwiseBinaryOpINS_8internal20scalar_difference_opIddEES3_S3_EEEEvRKT_NS9_10false_typeE
00000000003cc5ae W _ZN5Eigen3RefIKNS_12SparseMatrixIdLi1EiEELi0ENS_11OuterStrideILin1EEEE9constructINS_7ProductINS_13CwiseBinaryOpINS_8internal17scalar_product_opIddEEKNS_14CwiseNullaryOpINSA_18scalar_constant_opIdEEKNS_6MatrixIdLin1ELin1ELi1ELin1ELin1EEEEES3_EENS8_ISL_S2_Li2EEELi2EEEEEvRKT_NSA_10false_typeE
00000000003c5070 W _ZN5Eigen3RefIKNS_12SparseMatrixIdLi1EiEELi0ENS_11OuterStrideILin1EEEE9constructINS_7ProductINS_13CwiseBinaryOpINS_8internal17scalar_product_opIddEEKNS_14CwiseNullaryOpINSA_18scalar_constant_opIdEEKNS_6MatrixIdLin1ELin1ELi1ELin1ELin1EEEEES3_EES2_Li2EEEEEvRKT_NSA_10false_typeE
00000000003cc66a W _ZN5Eigen3RefIKNS_12SparseMatrixIdLi1EiEELi0ENS_11OuterStrideILin1EEEE9constructINS_7ProductINS8_INS_13CwiseBinaryOpINS_8internal17scalar_product_opIddEEKNS_14CwiseNullaryOpINSA_18scalar_constant_opIdEEKNS_6MatrixIdLin1ELin1ELi1ELin1ELin1EEEEES3_EES2_Li2EEES2_Li2EEEEEvRKT_NSA_10false_typeE
00000000003c50fe W _ZN5Eigen3RefIKNS_12SparseMatrixIdLi1EiEELi0ENS_11OuterStrideILin1EEEE9constructINS_7ProductIS2_S2_Li2EEEEEvRKT_NS_8internal10false_typeE
00000000003aeda8 W _ZN5Eigen3RefIKNS_12SparseMatrixIdLi1EiEELi0ENS_11OuterStrideILin1EEEE9constructIS2_EEvRKT_NS_8internal9true_typeE
000000000038cd58 W _ZN5Eigen3RefIKNS_12SparseMatrixIdLi1EiEELi0ENS_11OuterStrideILin1EEEEC1INS_12CwiseUnaryOpINS_8internal18scalar_opposite_opIdEES3_EEEERKNS_16SparseMatrixBaseIT_EE
0000000000420548 W _ZN5Eigen3RefIKNS_12SparseMatrixIdLi1EiEELi0ENS_11OuterStrideILin1EEEEC1INS_13CwiseBinaryOpINS_8internal13scalar_sum_opIddEEKNS_5BlockIS2_Li1ELin1ELb1EEEKNS8_INS9_17scalar_product_opIddEEKNS_14CwiseNullaryOpINS9_18scalar_constant_opIdEEKNS_6MatrixIdLi1ELin1ELi1ELi1ELin1EEEEEKNS_12SparseVectorIdLi1EiEEEEEEEERKNS_16SparseMatrixBaseIT_EE
000000000041cd7e W _ZN5Eigen3RefIKNS_12SparseMatrixIdLi1EiEELi0ENS_11OuterStrideILin1EEEEC1INS_13CwiseBinaryOpINS_8internal13scalar_sum_opIddEEKNS_7ProductINS_12SparseVectorIdLi1EiEES2_Li2EEEKNSC_INS_5BlockIS2_Li1ELin1ELb1EEES2_Li2EEEEEEERKNS_16SparseMatrixBaseIT_EE
000000000041f308 W _ZN5Eigen3RefIKNS_12SparseMatrixIdLi1EiEELi0ENS_11OuterStrideILin1EEEEC1INS_13CwiseBinaryOpINS_8internal13scalar_sum_opIddEEKNS8_INS9_20scalar_difference_opIddEEKNS8_ISD_KNS8_ISD_KNS8_ISD_KNS8_INS9_17scalar_product_opIddEEKNS_14CwiseNullaryOpINS9_18scalar_constant_opIdEEKNS_6MatrixIdLi1ELin1ELi1ELi1ELin1EEEEEKNS_12SparseVectorIdLi1EiEEEESS_EESS_EESS_EESS_EEKNS8_ISF_SS_SN_EEEEEERKNS_16SparseMatrixBaseIT_EE
000000000041d00a W _ZN5Eigen3RefIKNS_12SparseMatrixIdLi1EiEELi0ENS_11OuterStrideILin1EEEEC1INS_13CwiseBinaryOpINS_8internal13scalar_sum_opIddEEKNS8_ISB_KNS8_ISB_KNS_7ProductINS_12SparseVectorIdLi1EiEES2_Li2EEEKNSC_INS_5BlockIS2_Li1ELin1ELb1EEES2_Li2EEEEESG_EESK_EEEERKNS_16SparseMatrixBaseIT_EE
000000000038e126 W _ZN5Eigen3RefIKNS_12SparseMatrixIdLi1EiEELi0ENS_11OuterStrideILin1EEEEC1INS_13CwiseBinaryOpINS_8internal13scalar_sum_opIddEES3_S3_EEEERKNS_16SparseMatrixBaseIT_EE
000000000041d1a2 W _ZN5Eigen3RefIKNS_12SparseMatrixIdLi1EiEELi0ENS_11OuterStrideILin1EEEEC1INS_13CwiseBinaryOpINS_8internal17scalar_product_opIddEEKNS_14CwiseNullaryOpINS9_18scalar_constant_opIdEEKNS_6MatrixIdLi1ELin1ELi1ELi1ELin1EEEEEKNS_12SparseVectorIdLi1EiEEEEEERKNS_16SparseMatrixBaseIT_EE
000000000038d318 W _ZN5Eigen3RefIKNS_12SparseMatrixIdLi1EiEELi0ENS_11OuterStrideILin1EEEEC1INS_13CwiseBinaryOpINS_8internal17scalar_product_opIddEEKNS_14CwiseNullaryOpINS9_18scalar_constant_opIdEEKNS_6MatrixIdLin1ELin1ELi1ELin1ELin1EEEEES3_EEEERKNS_16SparseMatrixBaseIT_EE
000000000041d324 W _ZN5Eigen3RefIKNS_12SparseMatrixIdLi1EiEELi0ENS_11OuterStrideILin1EEEEC1INS_13CwiseBinaryOpINS_8internal20scalar_difference_opIddEEKNS8_INS9_17scalar_product_opIddEEKNS_14CwiseNullaryOpINS9_18scalar_constant_opIdEEKNS_6MatrixIdLi1ELin1ELi1ELi1ELin1EEEEEKNS_12SparseVectorIdLi1EiEEEESQ_EEEERKNS_16SparseMatrixBaseIT_EE
000000000041f582 W _ZN5Eigen3RefIKNS_12SparseMatrixIdLi1EiEELi0ENS_11OuterStrideILin1EEEEC1INS_13CwiseBinaryOpINS_8internal20scalar_difference_opIddEEKNS8_ISB_KNS8_ISB_KNS8_ISB_KNS8_ISB_KNS8_INS9_17scalar_product_opIddEEKNS_14CwiseNullaryOpINS9_18scalar_constant_opIdEEKNS_6MatrixIdLi1ELin1ELi1ELi1ELin1EEEEEKNS_12SparseVectorIdLi1EiEEEESQ_EESQ_EESQ_EEKNS8_ISD_SQ_SL_EEEESQ_EEEERKNS_16SparseMatrixBaseIT_EE
00000000003d1f54 W _ZN5Eigen3RefIKNS_12SparseMatrixIdLi1EiEELi0ENS_11OuterStrideILin1EEEEC1INS_13CwiseBinaryOpINS_8internal20scalar_difference_opIddEES3_S3_EEEERKNS_16SparseMatrixBaseIT_EE
00000000003cbf00 W _ZN5Eigen3RefIKNS_12SparseMatrixIdLi1EiEELi0ENS_11OuterStrideILin1EEEEC1INS_7ProductINS_13CwiseBinaryOpINS_8internal17scalar_product_opIddEEKNS_14CwiseNullaryOpINSA_18scalar_constant_opIdEEKNS_6MatrixIdLin1ELin1ELi1ELin1ELin1EEEEES3_EENS8_ISL_S2_Li2EEELi2EEEEERKNS_16SparseMatrixBaseIT_EE
00000000003c4e06 W _ZN5Eigen3RefIKNS_12SparseMatrixIdLi1EiEELi0ENS_11OuterStrideILin1EEEEC1INS_7ProductINS_13CwiseBinaryOpINS_8internal17scalar_product_opIddEEKNS_14CwiseNullaryOpINSA_18scalar_constant_opIdEEKNS_6MatrixIdLin1ELin1ELi1ELin1ELin1EEEEES3_EES2_Li2EEEEERKNS_16SparseMatrixBaseIT_EE
00000000003cc04c W _ZN5Eigen3RefIKNS_12SparseMatrixIdLi1EiEELi0ENS_11OuterStrideILin1EEEEC1INS_7ProductINS8_INS_13CwiseBinaryOpINS_8internal17scalar_product_opIddEEKNS_14CwiseNullaryOpINSA_18scalar_constant_opIdEEKNS_6MatrixIdLin1ELin1ELi1ELin1ELin1EEEEES3_EES2_Li2EEES2_Li2EEEEERKNS_16SparseMatrixBaseIT_EE
00000000003c4e9c W _ZN5Eigen3RefIKNS_12SparseMatrixIdLi1EiEELi0ENS_11OuterStrideILin1EEEEC1INS_7ProductIS2_S2_Li2EEEEERKNS_16SparseMatrixBaseIT_EE
00000000003aec96 W _ZN5Eigen3RefIKNS_12SparseMatrixIdLi1EiEELi0ENS_11OuterStrideILin1EEEEC1IS2_EERKNS_16SparseMatrixBaseIT_EE
000000000038cd58 W _ZN5Eigen3RefIKNS_12SparseMatrixIdLi1EiEELi0ENS_11OuterStrideILin1EEEEC2INS_12CwiseUnaryOpINS_8internal18scalar_opposite_opIdEES3_EEEERKNS_16SparseMatrixBaseIT_EE
0000000000420548 W _ZN5Eigen3RefIKNS_12SparseMatrixIdLi1EiEELi0ENS_11OuterStrideILin1EEEEC2INS_13CwiseBinaryOpINS_8internal13scalar_sum_opIddEEKNS_5BlockIS2_Li1ELin1ELb1EEEKNS8_INS9_17scalar_product_opIddEEKNS_14CwiseNullaryOpINS9_18scalar_constant_opIdEEKNS_6MatrixIdLi1ELin1ELi1ELi1ELin1EEEEEKNS_12SparseVectorIdLi1EiEEEEEEEERKNS_16SparseMatrixBaseIT_EE
000000000041cd7e W _ZN5Eigen3RefIKNS_12SparseMatrixIdLi1EiEELi0ENS_11OuterStrideILin1EEEEC2INS_13CwiseBinaryOpINS_8internal13scalar_sum_opIddEEKNS_7ProductINS_12SparseVectorIdLi1EiEES2_Li2EEEKNSC_INS_5BlockIS2_Li1ELin1ELb1EEES2_Li2EEEEEEERKNS_16SparseMatrixBaseIT_EE
000000000041f308 W _ZN5Eigen3RefIKNS_12SparseMatrixIdLi1EiEELi0ENS_11OuterStrideILin1EEEEC2INS_13CwiseBinaryOpINS_8internal13scalar_sum_opIddEEKNS8_INS9_20scalar_difference_opIddEEKNS8_ISD_KNS8_ISD_KNS8_ISD_KNS8_INS9_17scalar_product_opIddEEKNS_14CwiseNullaryOpINS9_18scalar_constant_opIdEEKNS_6MatrixIdLi1ELin1ELi1ELi1ELin1EEEEEKNS_12SparseVectorIdLi1EiEEEESS_EESS_EESS_EESS_EEKNS8_ISF_SS_SN_EEEEEERKNS_16SparseMatrixBaseIT_EE
000000000041d00a W _ZN5Eigen3RefIKNS_12SparseMatrixIdLi1EiEELi0ENS_11OuterStrideILin1EEEEC2INS_13CwiseBinaryOpINS_8internal13scalar_sum_opIddEEKNS8_ISB_KNS8_ISB_KNS_7ProductINS_12SparseVectorIdLi1EiEES2_Li2EEEKNSC_INS_5BlockIS2_Li1ELin1ELb1EEES2_Li2EEEEESG_EESK_EEEERKNS_16SparseMatrixBaseIT_EE
000000000038e126 W _ZN5Eigen3RefIKNS_12SparseMatrixIdLi1EiEELi0ENS_11OuterStrideILin1EEEEC2INS_13CwiseBinaryOpINS_8internal13scalar_sum_opIddEES3_S3_EEEERKNS_16SparseMatrixBaseIT_EE
000000000041d1a2 W _ZN5Eigen3RefIKNS_12SparseMatrixIdLi1EiEELi0ENS_11OuterStrideILin1EEEEC2INS_13CwiseBinaryOpINS_8internal17scalar_product_opIddEEKNS_14CwiseNullaryOpINS9_18scalar_constant_opIdEEKNS_6MatrixIdLi1ELin1ELi1ELi1ELin1EEEEEKNS_12SparseVectorIdLi1EiEEEEEERKNS_16SparseMatrixBaseIT_EE
000000000038d318 W _ZN5Eigen3RefIKNS_12SparseMatrixIdLi1EiEELi0ENS_11OuterStrideILin1EEEEC2INS_13CwiseBinaryOpINS_8internal17scalar_product_opIddEEKNS_14CwiseNullaryOpINS9_18scalar_constant_opIdEEKNS_6MatrixIdLin1ELin1ELi1ELin1ELin1EEEEES3_EEEERKNS_16SparseMatrixBaseIT_EE
000000000041d324 W _ZN5Eigen3RefIKNS_12SparseMatrixIdLi1EiEELi0ENS_11OuterStrideILin1EEEEC2INS_13CwiseBinaryOpINS_8internal20scalar_difference_opIddEEKNS8_INS9_17scalar_product_opIddEEKNS_14CwiseNullaryOpINS9_18scalar_constant_opIdEEKNS_6MatrixIdLi1ELin1ELi1ELi1ELin1EEEEEKNS_12SparseVectorIdLi1EiEEEESQ_EEEERKNS_16SparseMatrixBaseIT_EE
000000000041f582 W _ZN5Eigen3RefIKNS_12SparseMatrixIdLi1EiEELi0ENS_11OuterStrideILin1EEEEC2INS_13CwiseBinaryOpINS_8internal20scalar_difference_opIddEEKNS8_ISB_KNS8_ISB_KNS8_ISB_KNS8_ISB_KNS8_INS9_17scalar_product_opIddEEKNS_14CwiseNullaryOpINS9_18scalar_constant_opIdEEKNS_6MatrixIdLi1ELin1ELi1ELi1ELin1EEEEEKNS_12SparseVectorIdLi1EiEEEESQ_EESQ_EESQ_EEKNS8_ISD_SQ_SL_EEEESQ_EEEERKNS_16SparseMatrixBaseIT_EE
00000000003d1f54 W _ZN5Eigen3RefIKNS_12SparseMatrixIdLi1EiEELi0ENS_11OuterStrideILin1EEEEC2INS_13CwiseBinaryOpINS_8internal20scalar_difference_opIddEES3_S3_EEEERKNS_16SparseMatrixBaseIT_EE
00000000003cbf00 W _ZN5Eigen3RefIKNS_12SparseMatrixIdLi1EiEELi0ENS_11OuterStrideILin1EEEEC2INS_7ProductINS_13CwiseBinaryOpINS_8internal17scalar_product_opIddEEKNS_14CwiseNullaryOpINSA_18scalar_constant_opIdEEKNS_6MatrixIdLin1ELin1ELi1ELin1ELin1EEEEES3_EENS8_ISL_S2_Li2EEELi2EEEEERKNS_16SparseMatrixBaseIT_EE
00000000003c4e06 W _ZN5Eigen3RefIKNS_12SparseMatrixIdLi1EiEELi0ENS_11OuterStrideILin1EEEEC2INS_7ProductINS_13CwiseBinaryOpINS_8internal17scalar_product_opIddEEKNS_14CwiseNullaryOpINSA_18scalar_constant_opIdEEKNS_6MatrixIdLin1ELin1ELi1ELin1ELin1EEEEES3_EES2_Li2EEEEERKNS_16SparseMatrixBaseIT_EE
00000000003cc04c W _ZN5Eigen3RefIKNS_12SparseMatrixIdLi1EiEELi0ENS_11OuterStrideILin1EEEEC2INS_7ProductINS8_INS_13CwiseBinaryOpINS_8internal17scalar_product_opIddEEKNS_14CwiseNullaryOpINSA_18scalar_constant_opIdEEKNS_6MatrixIdLin1ELin1ELi1ELin1ELin1EEEEES3_EES2_Li2EEES2_Li2EEEEERKNS_16SparseMatrixBaseIT_EE
00000000003c4e9c W _ZN5Eigen3RefIKNS_12SparseMatrixIdLi1EiEELi0ENS_11OuterStrideILin1EEEEC2INS_7ProductIS2_S2_Li2EEEEERKNS_16SparseMatrixBaseIT_EE
00000000003aec96 W _ZN5Eigen3RefIKNS_12SparseMatrixIdLi1EiEELi0ENS_11OuterStrideILin1EEEEC2IS2_EERKNS_16SparseMatrixBaseIT_EE
000000000038cdee W _ZN5Eigen3RefIKNS_12SparseMatrixIdLi1EiEELi0ENS_11OuterStrideILin1EEEED1Ev
000000000038cdee W _ZN5Eigen3RefIKNS_12SparseMatrixIdLi1EiEELi0ENS_11OuterStrideILin1EEEED2Ev
0000000000395d30 W _ZN5Eigen5ArrayIiLi2ELi1ELi0ELi2ELi1EEC1IiiEERKT_RKT0_
0000000000395d30 W _ZN5Eigen5ArrayIiLi2ELi1ELi0ELi2ELi1EEC2IiiEERKT_RKT0_
00000000003f19aa W _ZN5Eigen5BlockIKNS_14CwiseNullaryOpINS_8internal18scalar_identity_opIdEENS_6MatrixIdLi3ELi3ELi0ELi3ELi3EEEEELi3ELi1ELb0EEC1ERKS9_
00000000003f2a8c W _ZN5Eigen5BlockIKNS_14CwiseNullaryOpINS_8internal18scalar_identity_opIdEENS_6MatrixIdLi3ELi3ELi0ELi3ELi3EEEEELi3ELi1ELb0EEC1ERS8_l
00000000003f19aa W _ZN5Eigen5BlockIKNS_14CwiseNullaryOpINS_8internal18scalar_identity_opIdEENS_6MatrixIdLi3ELi3ELi0ELi3ELi3EEEEELi3ELi1ELb0EEC2ERKS9_
00000000003f2a8c W _ZN5Eigen5BlockIKNS_14CwiseNullaryOpINS_8internal18scalar_identity_opIdEENS_6MatrixIdLi3ELi3ELi0ELi3ELi3EEEEELi3ELi1ELb0EEC2ERS8_l
0000000000353158 W _ZN5Eigen5BlockIKNS_6MatrixIdLi3ELi1ELi0ELi3ELi1EEELi3ELi1ELb1EEC1ERKS4_
000000000035366a W _ZN5Eigen5BlockIKNS_6MatrixIdLi3ELi1ELi0ELi3ELi1EEELi3ELi1ELb1EEC1ERS3_l
0000000000353158 W _ZN5Eigen5BlockIKNS_6MatrixIdLi3ELi1ELi0ELi3ELi1EEELi3ELi1ELb1EEC2ERKS4_
000000000035366a W _ZN5Eigen5BlockIKNS_6MatrixIdLi3ELi1ELi0ELi3ELi1EEELi3ELi1ELb1EEC2ERS3_l
0000000000352faa W _ZN5Eigen5BlockIKNS_6MatrixIdLi3ELi3ELi0ELi3ELi3EEELi1ELi3ELb0EEC1ERKS4_
00000000003535a8 W _ZN5Eigen5BlockIKNS_6MatrixIdLi3ELi3ELi0ELi3ELi3EEELi1ELi3ELb0EEC1ERS3_l
0000000000352faa W _ZN5Eigen5BlockIKNS_6MatrixIdLi3ELi3ELi0ELi3ELi3EEELi1ELi3ELb0EEC2ERKS4_
00000000003535a8 W _ZN5Eigen5BlockIKNS_6MatrixIdLi3ELi3ELi0ELi3ELi3EEELi1ELi3ELb0EEC2ERS3_l
00000000003b25cc W _ZN5Eigen5BlockIKNS_6MatrixIdLin1ELi1ELi0ELin1ELi1EEELi2ELi1ELb0EEC1ERS3_llll
00000000003b25cc W _ZN5Eigen5BlockIKNS_6MatrixIdLin1ELi1ELi0ELin1ELi1EEELi2ELi1ELb0EEC2ERS3_llll
00000000003a5782 W _ZN5Eigen5BlockIKNS_6MatrixIdLin1ELi3ELi0ELin1ELi3EEELi1ELi3ELb0EEC1ERKS4_
00000000003a61a8 W _ZN5Eigen5BlockIKNS_6MatrixIdLin1ELi3ELi0ELin1ELi3EEELi1ELi3ELb0EEC1ERS3_l
00000000003a5782 W _ZN5Eigen5BlockIKNS_6MatrixIdLin1ELi3ELi0ELin1ELi3EEELi1ELi3ELb0EEC2ERKS4_
00000000003a61a8 W _ZN5Eigen5BlockIKNS_6MatrixIdLin1ELi3ELi0ELin1ELi3EEELi1ELi3ELb0EEC2ERS3_l
00000000003a9806 W _ZN5Eigen5BlockIKNS_9TransposeIKNS_6MatrixIdLi3ELi3ELi0ELi3ELi3EEEEELi1ELi3ELb1EEC1ERKS7_
00000000003a9bb4 W _ZN5Eigen5BlockIKNS_9TransposeIKNS_6MatrixIdLi3ELi3ELi0ELi3ELi3EEEEELi1ELi3ELb1EEC1ERS6_l
00000000003a9806 W _ZN5Eigen5BlockIKNS_9TransposeIKNS_6MatrixIdLi3ELi3ELi0ELi3ELi3EEEEELi1ELi3ELb1EEC2ERKS7_
00000000003a9bb4 W _ZN5Eigen5BlockIKNS_9TransposeIKNS_6MatrixIdLi3ELi3ELi0ELi3ELi3EEEEELi1ELi3ELb1EEC2ERS6_l
00000000004177ce W _ZN5Eigen5BlockINS_12SparseMatrixIdLi1EiEELi1ELin1ELb1EEC1ERKS3_
000000000041cab4 W _ZN5Eigen5BlockINS_12SparseMatrixIdLi1EiEELi1ELin1ELb1EEC1ERS2_l
00000000004177ce W _ZN5Eigen5BlockINS_12SparseMatrixIdLi1EiEELi1ELin1ELb1EEC2ERKS3_
000000000041cab4 W _ZN5Eigen5BlockINS_12SparseMatrixIdLi1EiEELi1ELin1ELb1EEC2ERS2_l
000000000038cbf4 W _ZN5Eigen5BlockINS_12SparseMatrixIdLi1EiEELin1ELin1ELb1EEC1ERS2_llll
000000000038cbf4 W _ZN5Eigen5BlockINS_12SparseMatrixIdLi1EiEELin1ELin1ELb1EEC2ERS2_llll
0000000000390eaa W _ZN5Eigen5BlockINS_3RefIKNS_12SparseMatrixIdLi1EiEELi0ENS_11OuterStrideILin1EEEEELi1ELin1ELb1EEC1ERS7_l
0000000000390eaa W _ZN5Eigen5BlockINS_3RefIKNS_12SparseMatrixIdLi1EiEELi0ENS_11OuterStrideILin1EEEEELi1ELin1ELb1EEC2ERS7_l
0000000000390120 W _ZN5Eigen5BlockINS_6MatrixIdLi6ELi1ELi0ELi6ELi1EEELin1ELi1ELb0EEC1ERS2_llll
0000000000390120 W _ZN5Eigen5BlockINS_6MatrixIdLi6ELi1ELi0ELi6ELi1EEELin1ELi1ELb0EEC2ERS2_llll
00000000003aeb36 W _ZN5Eigen5BlockINS_6MatrixIdLin1ELi1ELi0ELin1ELi1EEELin1ELi1ELb0EEC1ERS2_llll
00000000003aeb36 W _ZN5Eigen5BlockINS_6MatrixIdLin1ELi1ELi0ELin1ELi1EEELin1ELi1ELb0EEC2ERS2_llll
00000000003a9b4e W _ZN5Eigen5BlockINS_6MatrixIdLin1ELi3ELi0ELin1ELi3EEELi1ELi3ELb0EEC1ERS2_l
00000000003a9b4e W _ZN5Eigen5BlockINS_6MatrixIdLin1ELi3ELi0ELin1ELi3EEELi1ELi3ELb0EEC2ERS2_l
000000000036ce78 W _ZN5Eigen5BlockINS_6MatrixIdLin1ELin1ELi0ELin1ELin1EEELin1ELi1ELb1EEC1ERS2_l
000000000036ce78 W _ZN5Eigen5BlockINS_6MatrixIdLin1ELin1ELi0ELin1ELin1EEELin1ELi1ELb1EEC2ERS2_l
00000000003b938c W _ZN5Eigen6MatrixIdLi1ELi1ELi0ELi1ELi1EEC1IllEERKT_RKT0_
00000000003b938c W _ZN5Eigen6MatrixIdLi1ELi1ELi0ELi1ELi1EEC2IllEERKT_RKT0_
00000000003b2370 W _ZN5Eigen6MatrixIdLi2ELi1ELi0ELi2ELi1EEC1INS_13CwiseBinaryOpINS_8internal13scalar_sum_opIddEEKS1_KNS3_INS4_17scalar_product_opIddEEKNS_14CwiseNullaryOpINS4_18scalar_constant_opIdEES7_EES7_EEEEEERKNS_9EigenBaseIT_EE
00000000003b2476 W _ZN5Eigen6MatrixIdLi2ELi1ELi0ELi2ELi1EEC1INS_13CwiseBinaryOpINS_8internal18scalar_quotient_opIddEEKS1_KNS_14CwiseNullaryOpINS4_18scalar_constant_opIdEES7_EEEEEERKNS_9EigenBaseIT_EE
00000000003b2126 W _ZN5Eigen6MatrixIdLi2ELi1ELi0ELi2ELi1EEC1INS_13CwiseBinaryOpINS_8internal20scalar_difference_opIddEEKS1_S7_EEEERKNS_9EigenBaseIT_EE
00000000003b2070 W _ZN5Eigen6MatrixIdLi2ELi1ELi0ELi2ELi1EEC1INS_5BlockIKNS0_IdLin1ELi1ELi0ELin1ELi1EEELi2ELi1ELb0EEEEERKNS_9EigenBaseIT_EE
00000000003b2370 W _ZN5Eigen6MatrixIdLi2ELi1ELi0ELi2ELi1EEC2INS_13CwiseBinaryOpINS_8internal13scalar_sum_opIddEEKS1_KNS3_INS4_17scalar_product_opIddEEKNS_14CwiseNullaryOpINS4_18scalar_constant_opIdEES7_EES7_EEEEEERKNS_9EigenBaseIT_EE
00000000003b2476 W _ZN5Eigen6MatrixIdLi2ELi1ELi0ELi2ELi1EEC2INS_13CwiseBinaryOpINS_8internal18scalar_quotient_opIddEEKS1_KNS_14CwiseNullaryOpINS4_18scalar_constant_opIdEES7_EEEEEERKNS_9EigenBaseIT_EE
00000000003b2126 W _ZN5Eigen6MatrixIdLi2ELi1ELi0ELi2ELi1EEC2INS_13CwiseBinaryOpINS_8internal20scalar_difference_opIddEEKS1_S7_EEEERKNS_9EigenBaseIT_EE
00000000003b2070 W _ZN5Eigen6MatrixIdLi2ELi1ELi0ELi2ELi1EEC2INS_5BlockIKNS0_IdLin1ELi1ELi0ELin1ELi1EEELi2ELi1ELb0EEEEERKNS_9EigenBaseIT_EE
0000000000376040 W _ZN5Eigen6MatrixIdLi3ELi1ELi0ELi3ELi1EEaSEOS1_
0000000000380c62 W _ZN5Eigen6MatrixIdLi3ELi1ELi0ELi3ELi1EEaSERKS1_
0000000000378402 W _ZN5Eigen6MatrixIdLi3ELi1ELi0ELi3ELi1EEaSINS_14CwiseNullaryOpINS_8internal18scalar_constant_opIdEES1_EEEERS1_RKNS_9DenseBaseIT_EE
000000000037d5e0 W _ZN5Eigen6MatrixIdLi3ELi1ELi0ELi3ELi1EEC1EOS1_
0000000000339888 W _ZN5Eigen6MatrixIdLi3ELi1ELi0ELi3ELi1EEC1ERKdS3_S3_
0000000000375ed2 W _ZN5Eigen6MatrixIdLi3ELi1ELi0ELi3ELi1EEC1ERKS1_
0000000000375cba W _ZN5Eigen6MatrixIdLi3ELi1ELi0ELi3ELi1EEC1Ev
0000000000364fa2 W _ZN5Eigen6MatrixIdLi3ELi1ELi0ELi3ELi1EEC1INS0_IdLin1ELi1ELi0ELin1ELi1EEEEERKNS_9EigenBaseIT_EE
0000000000339e66 W _ZN5Eigen6MatrixIdLi3ELi1ELi0ELi3ELi1EEC1INS_13CwiseBinaryOpINS_8internal13scalar_sum_opIddEEKNS0_IdLin1ELi1ELi0ELin1ELi1EEEKNS_7ProductINS0_IdLi3ELi3ELi0ELi3ELi3EEES1_Li0EEEEEEERKNS_9EigenBaseIT_EE
00000000004175b0 W _ZN5Eigen6MatrixIdLi3ELi1ELi0ELi3ELi1EEC1INS_13CwiseBinaryOpINS_8internal13scalar_sum_opIddEEKNS_7ProductINS_12SparseMatrixIdLi1EiEENS0_IdLin1ELi1ELi0ELin1ELi1EEELi0EEESC_EEEERKNS_9EigenBaseIT_EE
00000000003f1d34 W _ZN5Eigen6MatrixIdLi3ELi1ELi0ELi3ELi1EEC1INS_13CwiseBinaryOpINS_8internal17scalar_product_opIddEEKNS_14CwiseNullaryOpINS4_18scalar_constant_opIdEEKS1_EEKNS3_INS4_20scalar_difference_opIddEEKNS3_IS6_SC_KNS_5BlockIKNS7_INS4_18scalar_identity_opIdEENS0_IdLi3ELi3ELi0ELi3ELi3EEEEELi3ELi1ELb0EEEEEKNS3_IS6_SC_SA_EEEEEEEERKNS_9EigenBaseIT_EE
00000000003f16ce W _ZN5Eigen6MatrixIdLi3ELi1ELi0ELi3ELi1EEC1INS_13CwiseBinaryOpINS_8internal17scalar_product_opIddEEKS1_S7_EEEERKNS_9EigenBaseIT_EE
00000000003f261a W _ZN5Eigen6MatrixIdLi3ELi1ELi0ELi3ELi1EEC1INS_13CwiseBinaryOpINS_8internal18scalar_quotient_opIddEEKS1_KNS_14CwiseNullaryOpINS4_18scalar_constant_opIdEES7_EEEEEERKNS_9EigenBaseIT_EE
000000000038a83a W _ZN5Eigen6MatrixIdLi3ELi1ELi0ELi3ELi1EEC1INS_13CwiseBinaryOpINS_8internal20scalar_difference_opIddEEKS1_S7_EEEERKNS_9EigenBaseIT_EE
00000000003ca39c W _ZN5Eigen6MatrixIdLi3ELi1ELi0ELi3ELi1EEC1INS_16PartialReduxExprINS0_IdLi3ELi3ELi0ELi3ELi3EEENS_8internal10member_sumIdEELi1EEEEERKNS_9EigenBaseIT_EE
0000000000389c6c W _ZN5Eigen6MatrixIdLi3ELi1ELi0ELi3ELi1EEC1INS_7ProductINS_12SparseMatrixIdLi1EiEES1_Li0EEEEERKNS_9EigenBaseIT_EE
0000000000389878 W _ZN5Eigen6MatrixIdLi3ELi1ELi0ELi3ELi1EEC1INS_7ProductINS3_INS_12SparseMatrixIdLi1EiEENS_9TransposeIKNS0_IdLi3ELi3ELi0ELi3ELi3EEEEELi0EEES1_Li0EEEEERKNS_9EigenBaseIT_EE
000000000037d5e0 W _ZN5Eigen6MatrixIdLi3ELi1ELi0ELi3ELi1EEC2EOS1_
0000000000339888 W _ZN5Eigen6MatrixIdLi3ELi1ELi0ELi3ELi1EEC2ERKdS3_S3_
0000000000375ed2 W _ZN5Eigen6MatrixIdLi3ELi1ELi0ELi3ELi1EEC2ERKS1_
0000000000375cba W _ZN5Eigen6MatrixIdLi3ELi1ELi0ELi3ELi1EEC2Ev
0000000000364fa2 W _ZN5Eigen6MatrixIdLi3ELi1ELi0ELi3ELi1EEC2INS0_IdLin1ELi1ELi0ELin1ELi1EEEEERKNS_9EigenBaseIT_EE
0000000000339e66 W _ZN5Eigen6MatrixIdLi3ELi1ELi0ELi3ELi1EEC2INS_13CwiseBinaryOpINS_8internal13scalar_sum_opIddEEKNS0_IdLin1ELi1ELi0ELin1ELi1EEEKNS_7ProductINS0_IdLi3ELi3ELi0ELi3ELi3EEES1_Li0EEEEEEERKNS_9EigenBaseIT_EE
00000000004175b0 W _ZN5Eigen6MatrixIdLi3ELi1ELi0ELi3ELi1EEC2INS_13CwiseBinaryOpINS_8internal13scalar_sum_opIddEEKNS_7ProductINS_12SparseMatrixIdLi1EiEENS0_IdLin1ELi1ELi0ELin1ELi1EEELi0EEESC_EEEERKNS_9EigenBaseIT_EE
00000000003f1d34 W _ZN5Eigen6MatrixIdLi3ELi1ELi0ELi3ELi1EEC2INS_13CwiseBinaryOpINS_8internal17scalar_product_opIddEEKNS_14CwiseNullaryOpINS4_18scalar_constant_opIdEEKS1_EEKNS3_INS4_20scalar_difference_opIddEEKNS3_IS6_SC_KNS_5BlockIKNS7_INS4_18scalar_identity_opIdEENS0_IdLi3ELi3ELi0ELi3ELi3EEEEELi3ELi1ELb0EEEEEKNS3_IS6_SC_SA_EEEEEEEERKNS_9EigenBaseIT_EE
00000000003f16ce W _ZN5Eigen6MatrixIdLi3ELi1ELi0ELi3ELi1EEC2INS_13CwiseBinaryOpINS_8internal17scalar_product_opIddEEKS1_S7_EEEERKNS_9EigenBaseIT_EE
00000000003f261a W _ZN5Eigen6MatrixIdLi3ELi1ELi0ELi3ELi1EEC2INS_13CwiseBinaryOpINS_8internal18scalar_quotient_opIddEEKS1_KNS_14CwiseNullaryOpINS4_18scalar_constant_opIdEES7_EEEEEERKNS_9EigenBaseIT_EE
000000000038a83a W _ZN5Eigen6MatrixIdLi3ELi1ELi0ELi3ELi1EEC2INS_13CwiseBinaryOpINS_8internal20scalar_difference_opIddEEKS1_S7_EEEERKNS_9EigenBaseIT_EE
00000000003ca39c W _ZN5Eigen6MatrixIdLi3ELi1ELi0ELi3ELi1EEC2INS_16PartialReduxExprINS0_IdLi3ELi3ELi0ELi3ELi3EEENS_8internal10member_sumIdEELi1EEEEERKNS_9EigenBaseIT_EE
0000000000389c6c W _ZN5Eigen6MatrixIdLi3ELi1ELi0ELi3ELi1EEC2INS_7ProductINS_12SparseMatrixIdLi1EiEES1_Li0EEEEERKNS_9EigenBaseIT_EE
0000000000389878 W _ZN5Eigen6MatrixIdLi3ELi1ELi0ELi3ELi1EEC2INS_7ProductINS3_INS_12SparseMatrixIdLi1EiEENS_9TransposeIKNS0_IdLi3ELi3ELi0ELi3ELi3EEEEELi0EEES1_Li0EEEEERKNS_9EigenBaseIT_EE
00000000003ca0b0 W _ZN5Eigen6MatrixIdLi3ELi3ELi0ELi3ELi3EEaSEOS1_
0000000000380c88 W _ZN5Eigen6MatrixIdLi3ELi3ELi0ELi3ELi3EEaSERKS1_
00000000003ca30e W _ZN5Eigen6MatrixIdLi3ELi3ELi0ELi3ELi3EEaSINS_13CwiseBinaryOpINS_8internal17scalar_product_opIddEEKNS_12ArrayWrapperIS1_EES9_EEEERS1_RKNS_9DenseBaseIT_EE
0000000000351c1a W _ZN5Eigen6MatrixIdLi3ELi3ELi0ELi3ELi3EEaSINS_14CwiseNullaryOpINS_8internal18scalar_constant_opIdEES1_EEEERS1_RKNS_9DenseBaseIT_EE
0000000000381532 W _ZN5Eigen6MatrixIdLi3ELi3ELi0ELi3ELi3EEaSINS_14CwiseNullaryOpINS_8internal18scalar_identity_opIdEES1_EEEERS1_RKNS_9DenseBaseIT_EE
000000000037d6c6 W _ZN5Eigen6MatrixIdLi3ELi3ELi0ELi3ELi3EEC1EOS1_
000000000037601a W _ZN5Eigen6MatrixIdLi3ELi3ELi0ELi3ELi3EEC1ERKS1_
000000000037c76e W _ZN5Eigen6MatrixIdLi3ELi3ELi0ELi3ELi3EEC1Ev
00000000003ca142 W _ZN5Eigen6MatrixIdLi3ELi3ELi0ELi3ELi3EEC1INS_12CwiseUnaryOpINS_8internal18scalar_opposite_opIdEEKS1_EEEERKNS_9EigenBaseIT_EE
0000000000339d04 W _ZN5Eigen6MatrixIdLi3ELi3ELi0ELi3ELi3EEC1INS_12SparseMatrixIdLi1EiEEEERKNS_9EigenBaseIT_EE
000000000037d6c6 W _ZN5Eigen6MatrixIdLi3ELi3ELi0ELi3ELi3EEC2EOS1_
000000000037601a W _ZN5Eigen6MatrixIdLi3ELi3ELi0ELi3ELi3EEC2ERKS1_
000000000037c76e W _ZN5Eigen6MatrixIdLi3ELi3ELi0ELi3ELi3EEC2Ev
00000000003ca142 W _ZN5Eigen6MatrixIdLi3ELi3ELi0ELi3ELi3EEC2INS_12CwiseUnaryOpINS_8internal18scalar_opposite_opIdEEKS1_EEEERKNS_9EigenBaseIT_EE
0000000000339d04 W _ZN5Eigen6MatrixIdLi3ELi3ELi0ELi3ELi3EEC2INS_12SparseMatrixIdLi1EiEEEERKNS_9EigenBaseIT_EE
000000000041c650 W _ZN5Eigen6MatrixIdLi4ELi1ELi0ELi4ELi1EEC1Ev
000000000041c650 W _ZN5Eigen6MatrixIdLi4ELi1ELi0ELi4ELi1EEC2Ev
00000000003879d8 W _ZN5Eigen6MatrixIdLi6ELi1ELi0ELi6ELi1EEC1Ev
00000000003879d8 W _ZN5Eigen6MatrixIdLi6ELi1ELi0ELi6ELi1EEC2Ev
00000000003d8fd4 W _ZN5Eigen6MatrixIdLin1ELi1ELi0ELin1ELi1EEaSEOS1_
00000000003d3ab4 W _ZN5Eigen6MatrixIdLin1ELi1ELi0ELin1ELi1EEaSERKS1_
00000000003fe050 W _ZN5Eigen6MatrixIdLin1ELi1ELi0ELin1ELi1EEaSINS_13CwiseBinaryOpINS_8internal18scalar_quotient_opIddEEKNS_12CwiseUnaryOpINS4_18scalar_opposite_opIdEEKNS3_INS4_13scalar_sum_opIddEEKNS3_INS4_17scalar_product_opIddEEKNS_14CwiseNullaryOpINS4_18scalar_constant_opIdEEKS1_EEKNS3_INS4_20scalar_difference_opIddEESH_SH_EEEEKNS3_ISD_SJ_KNS3_ISB_KNS3_ISD_SJ_SH_EESH_EEEEEEEESJ_EEEERS1_RKNS_9DenseBaseIT_EE
00000000003fe44a W _ZN5Eigen6MatrixIdLin1ELi1ELi0ELin1ELi1EEaSINS_13CwiseBinaryOpINS_8internal18scalar_quotient_opIddEEKNS3_INS4_13scalar_sum_opIddEEKNS3_INS4_17scalar_product_opIddEEKNS_14CwiseNullaryOpINS4_18scalar_constant_opIdEEKS1_EEKNS3_INS4_20scalar_difference_opIddEESE_SE_EEEEKNS3_ISA_SG_KNS3_IS8_SE_SE_EEEEEESG_EEEERS1_RKNS_9DenseBaseIT_EE
00000000003682cc W _ZN5Eigen6MatrixIdLin1ELi1ELi0ELin1ELi1EEaSINS_14CwiseNullaryOpINS_8internal18scalar_constant_opIdEES1_EEEERS1_RKNS_9DenseBaseIT_EE
00000000003feece W _ZN5Eigen6MatrixIdLin1ELi1ELi0ELin1ELi1EEC1EOS1_
0000000000360f64 W _ZN5Eigen6MatrixIdLin1ELi1ELi0ELin1ELi1EEC1ERKS1_
00000000003d3a6e W _ZN5Eigen6MatrixIdLin1ELi1ELi0ELin1ELi1EEC1Ev
000000000035bb64 W _ZN5Eigen6MatrixIdLin1ELi1ELi0ELin1ELi1EEC1IiEERKT_
00000000003a5316 W _ZN5Eigen6MatrixIdLin1ELi1ELi0ELin1ELi1EEC1IllEERKT_RKT0_
000000000033991a W _ZN5Eigen6MatrixIdLin1ELi1ELi0ELin1ELi1EEC1INS0_IdLi3ELi1ELi0ELi3ELi1EEEEERKNS_9EigenBaseIT_EE
00000000003fee9c W _ZN5Eigen6MatrixIdLin1ELi1ELi0ELin1ELi1EEC1INS_13CwiseBinaryOpINS_8internal13scalar_sum_opIddEEKNS3_INS4_20scalar_difference_opIddEEKNS3_IS8_KNS3_INS4_18scalar_quotient_opIddEEKNS3_INS4_17scalar_product_opIddEEKNS_14CwiseNullaryOpINS4_18scalar_constant_opIdEEKS1_EEKNS3_IS6_SG_SG_EEEESI_EEKNS3_ISA_KNS3_ISC_SI_KNS3_IS6_KNS3_ISC_SI_SG_EESG_EEEESI_EEEEKNS3_ISA_KNS3_ISC_SI_KNS3_IS6_KNS3_IS6_KNS3_IS8_SQ_SQ_EESQ_EESQ_EEEESI_EEEES18_EEEERKNS_9EigenBaseIT_EE
000000000035c4fc W _ZN5Eigen6MatrixIdLin1ELi1ELi0ELin1ELi1EEC1INS_13CwiseBinaryOpINS_8internal13scalar_sum_opIddEEKS1_KNS3_INS4_17scalar_product_opIddEEKNS_14CwiseNullaryOpINS4_18scalar_constant_opIdEES7_EES7_EEEEEERKNS_9EigenBaseIT_EE
000000000040b3b6 W _ZN5Eigen6MatrixIdLin1ELi1ELi0ELin1ELi1EEC1INS_13CwiseBinaryOpINS_8internal17scalar_product_opIddEEKNS_14CwiseNullaryOpINS4_18scalar_constant_opIdEEKS1_EEKNS3_INS4_20scalar_difference_opIddEESA_KNS3_IS6_SC_SA_EEEEEEEERKNS_9EigenBaseIT_EE
000000000035c310 W _ZN5Eigen6MatrixIdLin1ELi1ELi0ELin1ELi1EEC1INS_13CwiseBinaryOpINS_8internal18scalar_quotient_opIddEEKS1_KNS_14CwiseNullaryOpINS4_18scalar_constant_opIdEES7_EEEEEERKNS_9EigenBaseIT_EE
000000000035c1b2 W _ZN5Eigen6MatrixIdLin1ELi1ELi0ELin1ELi1EEC1INS_13CwiseBinaryOpINS_8internal20scalar_difference_opIddEEKS1_S7_EEEERKNS_9EigenBaseIT_EE
00000000003ac1ee W _ZN5Eigen6MatrixIdLin1ELi1ELi0ELin1ELi1EEC1INS_14CwiseNullaryOpINS_8internal18scalar_constant_opIdEES1_EEEERKNS_9EigenBaseIT_EE
00000000003d3b60 W _ZN5Eigen6MatrixIdLin1ELi1ELi0ELin1ELi1EEC1INS_7ProductINS0_IdLin1ELin1ELi0ELin1ELin1EEES1_Li0EEEEERKNS_9EigenBaseIT_EE
00000000003a755c W _ZN5Eigen6MatrixIdLin1ELi1ELi0ELin1ELi1EEC1INS_7ProductINS_12SparseMatrixIdLi1EiEENS0_IdLi3ELi1ELi0ELi3ELi1EEELi0EEEEERKT_
00000000003d94bc W _ZN5Eigen6MatrixIdLin1ELi1ELi0ELin1ELi1EEC1INS_7ProductINS3_INS_13CwiseBinaryOpINS_8internal17scalar_product_opIddEEKNS_14CwiseNullaryOpINS5_18scalar_constant_opIdEEKNS0_IdLi1ELin1ELi1ELi1ELin1EEEEEKNS_9TransposeIKNS4_INS5_20scalar_difference_opIddEEKS1_SI_EEEEEENS_15DiagonalWrapperISI_EELi1EEESJ_Li0EEEEERKNS_9EigenBaseIT_EE
00000000003d958e W _ZN5Eigen6MatrixIdLin1ELi1ELi0ELin1ELi1EEC1INS_7ProductINS3_INS_9TransposeINS_12SparseMatrixIdLi1EiEEEENS_15DiagonalWrapperIKS1_EELi0EEENS_13CwiseBinaryOpINS_8internal20scalar_difference_opIddEES9_S9_EELi0EEEEERKNS_9EigenBaseIT_EE
00000000003feece W _ZN5Eigen6MatrixIdLin1ELi1ELi0ELin1ELi1EEC2EOS1_
0000000000360f64 W _ZN5Eigen6MatrixIdLin1ELi1ELi0ELin1ELi1EEC2ERKS1_
00000000003d3a6e W _ZN5Eigen6MatrixIdLin1ELi1ELi0ELin1ELi1EEC2Ev
000000000035bb64 W _ZN5Eigen6MatrixIdLin1ELi1ELi0ELin1ELi1EEC2IiEERKT_
00000000003a5316 W _ZN5Eigen6MatrixIdLin1ELi1ELi0ELin1ELi1EEC2IllEERKT_RKT0_
000000000033991a W _ZN5Eigen6MatrixIdLin1ELi1ELi0ELin1ELi1EEC2INS0_IdLi3ELi1ELi0ELi3ELi1EEEEERKNS_9EigenBaseIT_EE
00000000003fee9c W _ZN5Eigen6MatrixIdLin1ELi1ELi0ELin1ELi1EEC2INS_13CwiseBinaryOpINS_8internal13scalar_sum_opIddEEKNS3_INS4_20scalar_difference_opIddEEKNS3_IS8_KNS3_INS4_18scalar_quotient_opIddEEKNS3_INS4_17scalar_product_opIddEEKNS_14CwiseNullaryOpINS4_18scalar_constant_opIdEEKS1_EEKNS3_IS6_SG_SG_EEEESI_EEKNS3_ISA_KNS3_ISC_SI_KNS3_IS6_KNS3_ISC_SI_SG_EESG_EEEESI_EEEEKNS3_ISA_KNS3_ISC_SI_KNS3_IS6_KNS3_IS6_KNS3_IS8_SQ_SQ_EESQ_EESQ_EEEESI_EEEES18_EEEERKNS_9EigenBaseIT_EE
000000000035c4fc W _ZN5Eigen6MatrixIdLin1ELi1ELi0ELin1ELi1EEC2INS_13CwiseBinaryOpINS_8internal13scalar_sum_opIddEEKS1_KNS3_INS4_17scalar_product_opIddEEKNS_14CwiseNullaryOpINS4_18scalar_constant_opIdEES7_EES7_EEEEEERKNS_9EigenBaseIT_EE
000000000040b3b6 W _ZN5Eigen6MatrixIdLin1ELi1ELi0ELin1ELi1EEC2INS_13CwiseBinaryOpINS_8internal17scalar_product_opIddEEKNS_14CwiseNullaryOpINS4_18scalar_constant_opIdEEKS1_EEKNS3_INS4_20scalar_difference_opIddEESA_KNS3_IS6_SC_SA_EEEEEEEERKNS_9EigenBaseIT_EE
000000000035c310 W _ZN5Eigen6MatrixIdLin1ELi1ELi0ELin1ELi1EEC2INS_13CwiseBinaryOpINS_8internal18scalar_quotient_opIddEEKS1_KNS_14CwiseNullaryOpINS4_18scalar_constant_opIdEES7_EEEEEERKNS_9EigenBaseIT_EE
000000000035c1b2 W _ZN5Eigen6MatrixIdLin1ELi1ELi0ELin1ELi1EEC2INS_13CwiseBinaryOpINS_8internal20scalar_difference_opIddEEKS1_S7_EEEERKNS_9EigenBaseIT_EE
00000000003ac1ee W _ZN5Eigen6MatrixIdLin1ELi1ELi0ELin1ELi1EEC2INS_14CwiseNullaryOpINS_8internal18scalar_constant_opIdEES1_EEEERKNS_9EigenBaseIT_EE
00000000003d3b60 W _ZN5Eigen6MatrixIdLin1ELi1ELi0ELin1ELi1EEC2INS_7ProductINS0_IdLin1ELin1ELi0ELin1ELin1EEES1_Li0EEEEERKNS_9EigenBaseIT_EE
00000000003a755c W _ZN5Eigen6MatrixIdLin1ELi1ELi0ELin1ELi1EEC2INS_7ProductINS_12SparseMatrixIdLi1EiEENS0_IdLi3ELi1ELi0ELi3ELi1EEELi0EEEEERKT_
00000000003d94bc W _ZN5Eigen6MatrixIdLin1ELi1ELi0ELin1ELi1EEC2INS_7ProductINS3_INS_13CwiseBinaryOpINS_8internal17scalar_product_opIddEEKNS_14CwiseNullaryOpINS5_18scalar_constant_opIdEEKNS0_IdLi1ELin1ELi1ELi1ELin1EEEEEKNS_9TransposeIKNS4_INS5_20scalar_difference_opIddEEKS1_SI_EEEEEENS_15DiagonalWrapperISI_EELi1EEESJ_Li0EEEEERKNS_9EigenBaseIT_EE
00000000003d958e W _ZN5Eigen6MatrixIdLin1ELi1ELi0ELin1ELi1EEC2INS_7ProductINS3_INS_9TransposeINS_12SparseMatrixIdLi1EiEEEENS_15DiagonalWrapperIKS1_EELi0EEENS_13CwiseBinaryOpINS_8internal20scalar_difference_opIddEES9_S9_EELi0EEEEERKNS_9EigenBaseIT_EE
00000000003380f0 W _ZN5Eigen6MatrixIdLin1ELi1ELi0ELin1ELi1EED1Ev
00000000003380f0 W _ZN5Eigen6MatrixIdLin1ELi1ELi0ELin1ELi1EED2Ev
00000000003a8a04 W _ZN5Eigen6MatrixIdLin1ELi3ELi0ELin1ELi3EEaSINS_14CwiseNullaryOpINS_8internal18scalar_constant_opIdEES1_EEEERS1_RKNS_9DenseBaseIT_EE
00000000003a29aa W _ZN5Eigen6MatrixIdLin1ELi3ELi0ELin1ELi3EEC1INS_7ProductINS_12SparseMatrixIdLi1EiEENS_9TransposeIKNS0_IdLi3ELi3ELi0ELi3ELi3EEEEELi0EEEEERKT_
00000000003a29aa W _ZN5Eigen6MatrixIdLin1ELi3ELi0ELin1ELi3EEC2INS_7ProductINS_12SparseMatrixIdLi1EiEENS_9TransposeIKNS0_IdLi3ELi3ELi0ELi3ELi3EEEEELi0EEEEERKT_
000000000039ee1a W _ZN5Eigen6MatrixIdLin1ELi3ELi0ELin1ELi3EED1Ev
000000000039ee1a W _ZN5Eigen6MatrixIdLin1ELi3ELi0ELin1ELi3EED2Ev
00000000003d3a8e W _ZN5Eigen6MatrixIdLin1ELin1ELi0ELin1ELin1EEaSERKS1_
00000000003d3a4e W _ZN5Eigen6MatrixIdLin1ELin1ELi0ELin1ELin1EEC1Ev
000000000036bff4 W _ZN5Eigen6MatrixIdLin1ELin1ELi0ELin1ELin1EEC1INS_14CwiseNullaryOpINS_8internal18scalar_constant_opIdEES1_EEEERKNS_9EigenBaseIT_EE
00000000003d3a4e W _ZN5Eigen6MatrixIdLin1ELin1ELi0ELin1ELin1EEC2Ev
000000000036bff4 W _ZN5Eigen6MatrixIdLin1ELin1ELi0ELin1ELin1EEC2INS_14CwiseNullaryOpINS_8internal18scalar_constant_opIdEES1_EEEERKNS_9EigenBaseIT_EE
000000000036b7cc W _ZN5Eigen6MatrixIdLin1ELin1ELi0ELin1ELin1EED1Ev
000000000036b7cc W _ZN5Eigen6MatrixIdLin1ELin1ELi0ELin1ELin1EED2Ev
000000000036e75c W _ZN5Eigen6MatrixIiLin1ELi1ELi0ELin1ELi1EEC1IlEERKT_
000000000036e75c W _ZN5Eigen6MatrixIiLin1ELi1ELi0ELin1ELi1EEC2IlEERKT_
000000000036d184 W _ZN5Eigen6MatrixIiLin1ELi1ELi0ELin1ELi1EED1Ev
000000000036d184 W _ZN5Eigen6MatrixIiLin1ELi1ELi0ELin1ELi1EED2Ev
0000000000394c68 W _ZN5Eigen6MatrixIlLin1ELi1ELi0ELin1ELi1EEC1IlEERKT_
0000000000394c68 W _ZN5Eigen6MatrixIlLin1ELi1ELi0ELin1ELi1EEC2IlEERKT_
0000000000392436 W _ZN5Eigen6MatrixIlLin1ELi1ELi0ELin1ELi1EED1Ev
0000000000392436 W _ZN5Eigen6MatrixIlLin1ELi1ELi0ELin1ELi1EED2Ev
00000000003f91e1 W _ZN5Eigen6numext4abs2IdEENS_8internal11abs2_retvalINS2_36global_math_functions_filtering_baseIT_vE4typeEE4typeERKS5_
000000000038b8ee W _ZN5Eigen6numext4conjIdEENS_8internal11conj_retvalINS2_36global_math_functions_filtering_baseIT_vE4typeEE4typeERKS5_
0000000000386a89 W _ZN5Eigen6numext4log2Ei
00000000003d70b4 W _ZN5Eigen6numext4realIdEENS_8internal11real_retvalINS2_36global_math_functions_filtering_baseIT_vE4typeEE4typeERKS5_
000000000036f3b6 W _ZN5Eigen6StrideILi0ELi0EEC1ERKS1_
000000000036e57e W _ZN5Eigen6StrideILi0ELi0EEC1Ev
000000000036f3b6 W _ZN5Eigen6StrideILi0ELi0EEC2ERKS1_
000000000036e57e W _ZN5Eigen6StrideILi0ELi0EEC2Ev
0000000000396e2e W _ZN5Eigen7MapBaseINS_3MapIKNS_6MatrixIiLin1ELi1ELi0ELin1ELi1EEELi0ENS_6StrideILi0ELi0EEEEELi0EEC1EPKil
0000000000396e2e W _ZN5Eigen7MapBaseINS_3MapIKNS_6MatrixIiLin1ELi1ELi0ELin1ELi1EEELi0ENS_6StrideILi0ELi0EEEEELi0EEC2EPKil
0000000000399c74 W _ZN5Eigen7MapBaseINS_3MapIKNS_6MatrixIlLin1ELi1ELi0ELin1ELi1EEELi0ENS_6StrideILi0ELi0EEEEELi0EEC1EPKll
0000000000399c74 W _ZN5Eigen7MapBaseINS_3MapIKNS_6MatrixIlLin1ELi1ELi0ELin1ELi1EEELi0ENS_6StrideILi0ELi0EEEEELi0EEC2EPKll
000000000037019c W _ZN5Eigen7MapBaseINS_3MapINS_6MatrixIiLin1ELi1ELi0ELin1ELi1EEELi0ENS_6StrideILi0ELi0EEEEELi0EEC1EPil
000000000037019c W _ZN5Eigen7MapBaseINS_3MapINS_6MatrixIiLin1ELi1ELi0ELin1ELi1EEELi0ENS_6StrideILi0ELi0EEEEELi0EEC2EPil
00000000003731ba W _ZN5Eigen7MapBaseINS_3MapINS_6MatrixIiLin1ELi1ELi0ELin1ELi1EEELi0ENS_6StrideILi0ELi0EEEEELi1EE4dataEv
000000000036f388 W _ZN5Eigen7MapBaseINS_3MapINS_6MatrixIiLin1ELi1ELi0ELin1ELi1EEELi0ENS_6StrideILi0ELi0EEEEELi1EEC1EPil
000000000036f388 W _ZN5Eigen7MapBaseINS_3MapINS_6MatrixIiLin1ELi1ELi0ELin1ELi1EEELi0ENS_6StrideILi0ELi0EEEEELi1EEC2EPil
00000000003998be W _ZN5Eigen7MapBaseINS_3MapINS_6MatrixIlLin1ELi1ELi0ELin1ELi1EEELi0ENS_6StrideILi0ELi0EEEEELi0EEC1EPll
00000000003998be W _ZN5Eigen7MapBaseINS_3MapINS_6MatrixIlLin1ELi1ELi0ELin1ELi1EEELi0ENS_6StrideILi0ELi0EEEEELi0EEC2EPll
00000000003975fe W _ZN5Eigen7MapBaseINS_3MapINS_6MatrixIlLin1ELi1ELi0ELin1ELi1EEELi0ENS_6StrideILi0ELi0EEEEELi1EEC1EPll
00000000003975fe W _ZN5Eigen7MapBaseINS_3MapINS_6MatrixIlLin1ELi1ELi0ELin1ELi1EEELi0ENS_6StrideILi0ELi0EEEEELi1EEC2EPll
000000000035455c W _ZN5Eigen7MapBaseINS_5BlockIKNS_6MatrixIdLi3ELi1ELi0ELi3ELi1EEELi3ELi1ELb1EEELi0EEC1EPKdll
0000000000353066 W _ZN5Eigen7MapBaseINS_5BlockIKNS_6MatrixIdLi3ELi1ELi0ELi3ELi1EEELi3ELi1ELb1EEELi0EEC1ERKS6_
000000000035455c W _ZN5Eigen7MapBaseINS_5BlockIKNS_6MatrixIdLi3ELi1ELi0ELi3ELi1EEELi3ELi1ELb1EEELi0EEC2EPKdll
0000000000353066 W _ZN5Eigen7MapBaseINS_5BlockIKNS_6MatrixIdLi3ELi1ELi0ELi3ELi1EEELi3ELi1ELb1EEELi0EEC2ERKS6_
000000000035446e W _ZN5Eigen7MapBaseINS_5BlockIKNS_6MatrixIdLi3ELi3ELi0ELi3ELi3EEELi1ELi3ELb0EEELi0EEC1EPKdll
0000000000352ec0 W _ZN5Eigen7MapBaseINS_5BlockIKNS_6MatrixIdLi3ELi3ELi0ELi3ELi3EEELi1ELi3ELb0EEELi0EEC1ERKS6_
000000000035446e W _ZN5Eigen7MapBaseINS_5BlockIKNS_6MatrixIdLi3ELi3ELi0ELi3ELi3EEELi1ELi3ELb0EEELi0EEC2EPKdll
0000000000352ec0 W _ZN5Eigen7MapBaseINS_5BlockIKNS_6MatrixIdLi3ELi3ELi0ELi3ELi3EEELi1ELi3ELb0EEELi0EEC2ERKS6_
00000000003b3c66 W _ZN5Eigen7MapBaseINS_5BlockIKNS_6MatrixIdLin1ELi1ELi0ELin1ELi1EEELi2ELi1ELb0EEELi0EEC1EPKdll
00000000003b3c66 W _ZN5Eigen7MapBaseINS_5BlockIKNS_6MatrixIdLin1ELi1ELi0ELin1ELi1EEELi2ELi1ELb0EEELi0EEC2EPKdll
00000000003a7f5c W _ZN5Eigen7MapBaseINS_5BlockIKNS_6MatrixIdLin1ELi3ELi0ELin1ELi3EEELi1ELi3ELb0EEELi0EEC1EPKdll
00000000003a5698 W _ZN5Eigen7MapBaseINS_5BlockIKNS_6MatrixIdLin1ELi3ELi0ELin1ELi3EEELi1ELi3ELb0EEELi0EEC1ERKS6_
00000000003a7f5c W _ZN5Eigen7MapBaseINS_5BlockIKNS_6MatrixIdLin1ELi3ELi0ELin1ELi3EEELi1ELi3ELb0EEELi0EEC2EPKdll
00000000003a5698 W _ZN5Eigen7MapBaseINS_5BlockIKNS_6MatrixIdLin1ELi3ELi0ELin1ELi3EEELi1ELi3ELb0EEELi0EEC2ERKS6_
00000000003aa52e W _ZN5Eigen7MapBaseINS_5BlockIKNS_9TransposeIKNS_6MatrixIdLi3ELi3ELi0ELi3ELi3EEEEELi1ELi3ELb1EEELi0EEC1EPKdll
00000000003a9718 W _ZN5Eigen7MapBaseINS_5BlockIKNS_9TransposeIKNS_6MatrixIdLi3ELi3ELi0ELi3ELi3EEEEELi1ELi3ELb1EEELi0EEC1ERKS9_
00000000003aa52e W _ZN5Eigen7MapBaseINS_5BlockIKNS_9TransposeIKNS_6MatrixIdLi3ELi3ELi0ELi3ELi3EEEEELi1ELi3ELb1EEELi0EEC2EPKdll
00000000003a9718 W _ZN5Eigen7MapBaseINS_5BlockIKNS_9TransposeIKNS_6MatrixIdLi3ELi3ELi0ELi3ELi3EEEEELi1ELi3ELb1EEELi0EEC2ERKS9_
0000000000399ffa W _ZN5Eigen7MapBaseINS_5BlockINS_6MatrixIdLi6ELi1ELi0ELi6ELi1EEELin1ELi1ELb0EEELi0EEC1EPdll
0000000000399ffa W _ZN5Eigen7MapBaseINS_5BlockINS_6MatrixIdLi6ELi1ELi0ELi6ELi1EEELin1ELi1ELb0EEELi0EEC2EPdll
000000000039e910 W _ZN5Eigen7MapBaseINS_5BlockINS_6MatrixIdLi6ELi1ELi0ELi6ELi1EEELin1ELi1ELb0EEELi1EE4dataEv
0000000000397d98 W _ZN5Eigen7MapBaseINS_5BlockINS_6MatrixIdLi6ELi1ELi0ELi6ELi1EEELin1ELi1ELb0EEELi1EEC1EPdll
0000000000397d98 W _ZN5Eigen7MapBaseINS_5BlockINS_6MatrixIdLi6ELi1ELi0ELi6ELi1EEELin1ELi1ELb0EEELi1EEC2EPdll
00000000003af158 W _ZN5Eigen7MapBaseINS_5BlockINS_6MatrixIdLin1ELi1ELi0ELin1ELi1EEELin1ELi1ELb0EEELi0EEC1EPdll
00000000003af158 W _ZN5Eigen7MapBaseINS_5BlockINS_6MatrixIdLin1ELi1ELi0ELin1ELi1EEELin1ELi1ELb0EEELi0EEC2EPdll
00000000003af95e W _ZN5Eigen7MapBaseINS_5BlockINS_6MatrixIdLin1ELi1ELi0ELin1ELi1EEELin1ELi1ELb0EEELi1EE4dataEv
00000000003af09e W _ZN5Eigen7MapBaseINS_5BlockINS_6MatrixIdLin1ELi1ELi0ELin1ELi1EEELin1ELi1ELb0EEELi1EEC1EPdll
00000000003af09e W _ZN5Eigen7MapBaseINS_5BlockINS_6MatrixIdLin1ELi1ELi0ELin1ELi1EEELin1ELi1ELb0EEELi1EEC2EPdll
00000000003aac08 W _ZN5Eigen7MapBaseINS_5BlockINS_6MatrixIdLin1ELi3ELi0ELin1ELi3EEELi1ELi3ELb0EEELi0EEC1EPdll
00000000003aac08 W _ZN5Eigen7MapBaseINS_5BlockINS_6MatrixIdLin1ELi3ELi0ELin1ELi3EEELi1ELi3ELb0EEELi0EEC2EPdll
00000000003aa452 W _ZN5Eigen7MapBaseINS_5BlockINS_6MatrixIdLin1ELi3ELi0ELin1ELi3EEELi1ELi3ELb0EEELi1EEC1EPdll
00000000003aa452 W _ZN5Eigen7MapBaseINS_5BlockINS_6MatrixIdLin1ELi3ELi0ELin1ELi3EEELi1ELi3ELb0EEELi1EEC2EPdll
0000000000370a18 W _ZN5Eigen7MapBaseINS_5BlockINS_6MatrixIdLin1ELin1ELi0ELin1ELin1EEELin1ELi1ELb1EEELi0EEC1EPdll
0000000000370a18 W _ZN5Eigen7MapBaseINS_5BlockINS_6MatrixIdLin1ELin1ELi0ELin1ELin1EEELin1ELi1ELb1EEELi0EEC2EPdll
000000000037238a W _ZN5Eigen7MapBaseINS_5BlockINS_6MatrixIdLin1ELin1ELi0ELin1ELin1EEELin1ELi1ELb1EEELi1EE4dataEv
000000000036fed0 W _ZN5Eigen7MapBaseINS_5BlockINS_6MatrixIdLin1ELin1ELi0ELin1ELin1EEELin1ELi1ELb1EEELi1EEC1EPdll
000000000036fed0 W _ZN5Eigen7MapBaseINS_5BlockINS_6MatrixIdLin1ELin1ELi0ELin1ELin1EEELin1ELi1ELb1EEELi1EEC2EPdll
000000000038baea W _ZN5Eigen7ProductINS0_INS_10SparseViewINS_6MatrixIdLi3ELi3ELi0ELi3ELi3EEEEENS_12SparseMatrixIdLi1EiEELi2EEENS1_INS_9TransposeIKS3_EEEELi2EEC1ERKS7_RKSB_
000000000038baea W _ZN5Eigen7ProductINS0_INS_10SparseViewINS_6MatrixIdLi3ELi3ELi0ELi3ELi3EEEEENS_12SparseMatrixIdLi1EiEELi2EEENS1_INS_9TransposeIKS3_EEEELi2EEC2ERKS7_RKSB_
000000000038d5bc W _ZN5Eigen7ProductINS0_INS_10SparseViewINS_6MatrixIdLi3ELi3ELi0ELi3ELi3EEEEENS_12SparseMatrixIdLi1EiEELi2EEES6_Li2EEC1ERKS7_RKS6_
000000000038d5bc W _ZN5Eigen7ProductINS0_INS_10SparseViewINS_6MatrixIdLi3ELi3ELi0ELi3ELi3EEEEENS_12SparseMatrixIdLi1EiEELi2EEES6_Li2EEC2ERKS7_RKS6_
000000000038d4b2 W _ZN5Eigen7ProductINS0_INS_12SparseMatrixIdLi1EiEENS_9TransposeIKNS_6MatrixIdLi3ELi3ELi0ELi3ELi3EEEEELi0EEENS4_IdLi3ELi1ELi0ELi3ELi1EEELi0EEC1ERKS8_RKS9_
000000000038d4b2 W _ZN5Eigen7ProductINS0_INS_12SparseMatrixIdLi1EiEENS_9TransposeIKNS_6MatrixIdLi3ELi3ELi0ELi3ELi3EEEEELi0EEENS4_IdLi3ELi1ELi0ELi3ELi1EEELi0EEC2ERKS8_RKS9_
000000000039db34 W _ZN5Eigen7ProductINS0_INS_12SparseMatrixIdLi1EiEENS_9TransposeIKNS_6MatrixIdLi3ELi3ELi0ELi3ELi3EEEEELi0EEENS4_IdLi3ELi1ELi0ELi3ELi1EEELi1EEC1ERKS8_RKS9_
000000000039db34 W _ZN5Eigen7ProductINS0_INS_12SparseMatrixIdLi1EiEENS_9TransposeIKNS_6MatrixIdLi3ELi3ELi0ELi3ELi3EEEEELi0EEENS4_IdLi3ELi1ELi0ELi3ELi1EEELi1EEC2ERKS8_RKS9_
00000000003d9b26 W _ZN5Eigen7ProductINS0_INS_13CwiseBinaryOpINS_8internal17scalar_product_opIddEEKNS_14CwiseNullaryOpINS2_18scalar_constant_opIdEEKNS_6MatrixIdLi1ELin1ELi1ELi1ELin1EEEEEKNS_9TransposeIKNS1_INS2_20scalar_difference_opIddEEKNS8_IdLin1ELi1ELi0ELin1ELi1EEESH_EEEEEENS_15DiagonalWrapperISH_EELi1EEESI_Li0EEC1ERKSP_RSJ_
00000000003d9b26 W _ZN5Eigen7ProductINS0_INS_13CwiseBinaryOpINS_8internal17scalar_product_opIddEEKNS_14CwiseNullaryOpINS2_18scalar_constant_opIdEEKNS_6MatrixIdLi1ELin1ELi1ELi1ELin1EEEEEKNS_9TransposeIKNS1_INS2_20scalar_difference_opIddEEKNS8_IdLin1ELi1ELi0ELin1ELi1EEESH_EEEEEENS_15DiagonalWrapperISH_EELi1EEESI_Li0EEC2ERKSP_RSJ_
00000000003cbfb2 W _ZN5Eigen7ProductINS0_INS_13CwiseBinaryOpINS_8internal17scalar_product_opIddEEKNS_14CwiseNullaryOpINS2_18scalar_constant_opIdEEKNS_6MatrixIdLin1ELin1ELi1ELin1ELin1EEEEEKNS_12SparseMatrixIdLi1EiEEEESE_Li2EEESE_Li2EEC1ERKSH_RSF_
00000000003cbfb2 W _ZN5Eigen7ProductINS0_INS_13CwiseBinaryOpINS_8internal17scalar_product_opIddEEKNS_14CwiseNullaryOpINS2_18scalar_constant_opIdEEKNS_6MatrixIdLin1ELin1ELi1ELin1ELin1EEEEEKNS_12SparseMatrixIdLi1EiEEEESE_Li2EEESE_Li2EEC2ERKSH_RSF_
00000000003d9d34 W _ZN5Eigen7ProductINS0_INS_9TransposeINS_12SparseMatrixIdLi1EiEEEENS_15DiagonalWrapperIKNS_6MatrixIdLin1ELi1ELi0ELin1ELi1EEEEELi0EEENS_13CwiseBinaryOpINS_8internal20scalar_difference_opIddEES8_S8_EELi0EEC1ERKSA_RKSF_
00000000003d9d34 W _ZN5Eigen7ProductINS0_INS_9TransposeINS_12SparseMatrixIdLi1EiEEEENS_15DiagonalWrapperIKNS_6MatrixIdLin1ELi1ELi0ELin1ELi1EEEEELi0EEENS_13CwiseBinaryOpINS_8internal20scalar_difference_opIddEES8_S8_EELi0EEC2ERKSA_RKSF_
000000000038b964 W _ZN5Eigen7ProductINS_10SparseViewINS_6MatrixIdLi3ELi3ELi0ELi3ELi3EEEEENS_12SparseMatrixIdLi1EiEELi2EEC1ERKS4_RKS6_
000000000038b964 W _ZN5Eigen7ProductINS_10SparseViewINS_6MatrixIdLi3ELi3ELi0ELi3ELi3EEEEENS_12SparseMatrixIdLi1EiEELi2EEC2ERKS4_RKS6_
000000000038e22e W _ZN5Eigen7ProductINS_12CwiseUnaryOpINS_8internal18scalar_opposite_opIdEEKNS_12SparseMatrixIdLi1EiEEEES6_Li2EEC1ERKS8_RS7_
000000000038e22e W _ZN5Eigen7ProductINS_12CwiseUnaryOpINS_8internal18scalar_opposite_opIdEEKNS_12SparseMatrixIdLi1EiEEEES6_Li2EEC2ERKS8_RS7_
000000000038bdec W _ZN5Eigen7ProductINS_12SparseMatrixIdLi1EiEENS0_IS2_NS_6MatrixIdLi3ELi1ELi0ELi3ELi1EEELi0EEELi0EEC1ERKS2_RKS5_
000000000038bdec W _ZN5Eigen7ProductINS_12SparseMatrixIdLi1EiEENS0_IS2_NS_6MatrixIdLi3ELi1ELi0ELi3ELi1EEELi0EEELi0EEC2ERKS2_RKS5_
000000000038e77c W _ZN5Eigen7ProductINS_12SparseMatrixIdLi1EiEENS_12CwiseUnaryOpINS_8internal18scalar_opposite_opIdEEKS2_EELi2EEC1ERS7_RKS8_
000000000038e77c W _ZN5Eigen7ProductINS_12SparseMatrixIdLi1EiEENS_12CwiseUnaryOpINS_8internal18scalar_opposite_opIdEEKS2_EELi2EEC2ERS7_RKS8_
0000000000389c9e W _ZN5Eigen7ProductINS_12SparseMatrixIdLi1EiEENS_13CwiseBinaryOpINS_8internal13scalar_sum_opIddEEKNS3_IS6_KS2_S7_EES7_EELi2EEC1ERKSB_
000000000038d8fe W _ZN5Eigen7ProductINS_12SparseMatrixIdLi1EiEENS_13CwiseBinaryOpINS_8internal13scalar_sum_opIddEEKNS3_IS6_KS2_S7_EES7_EELi2EEC1ERS7_RKSA_
0000000000389c9e W _ZN5Eigen7ProductINS_12SparseMatrixIdLi1EiEENS_13CwiseBinaryOpINS_8internal13scalar_sum_opIddEEKNS3_IS6_KS2_S7_EES7_EELi2EEC2ERKSB_
000000000038d8fe W _ZN5Eigen7ProductINS_12SparseMatrixIdLi1EiEENS_13CwiseBinaryOpINS_8internal13scalar_sum_opIddEEKNS3_IS6_KS2_S7_EES7_EELi2EEC2ERS7_RKSA_
000000000038bd26 W _ZN5Eigen7ProductINS_12SparseMatrixIdLi1EiEENS_6MatrixIdLi3ELi1ELi0ELi3ELi1EEELi0EEC1ERKS2_RKS4_
000000000038bd26 W _ZN5Eigen7ProductINS_12SparseMatrixIdLi1EiEENS_6MatrixIdLi3ELi1ELi0ELi3ELi1EEELi0EEC2ERKS2_RKS4_
000000000041c6e4 W _ZN5Eigen7ProductINS_12SparseMatrixIdLi1EiEENS_6MatrixIdLin1ELi1ELi0ELin1ELi1EEELi0EEC1ERKS2_RKS4_
000000000041c6e4 W _ZN5Eigen7ProductINS_12SparseMatrixIdLi1EiEENS_6MatrixIdLin1ELi1ELi0ELin1ELi1EEELi0EEC2ERKS2_RKS4_
000000000038d3e6 W _ZN5Eigen7ProductINS_12SparseMatrixIdLi1EiEENS_9TransposeIKNS_6MatrixIdLi3ELi3ELi0ELi3ELi3EEEEELi0EEC1ERKS2_RKS7_
000000000038d3e6 W _ZN5Eigen7ProductINS_12SparseMatrixIdLi1EiEENS_9TransposeIKNS_6MatrixIdLi3ELi3ELi0ELi3ELi3EEEEELi0EEC2ERKS2_RKS7_
000000000038c51c W _ZN5Eigen7ProductINS_12SparseMatrixIdLi1EiEES2_Li2EEC1ERKS2_S5_
000000000038c51c W _ZN5Eigen7ProductINS_12SparseMatrixIdLi1EiEES2_Li2EEC2ERKS2_S5_
000000000041cb36 W _ZN5Eigen7ProductINS_12SparseVectorIdLi1EiEENS_12SparseMatrixIdLi1EiEELi2EEC1ERKS2_RKS4_
000000000041cb36 W _ZN5Eigen7ProductINS_12SparseVectorIdLi1EiEENS_12SparseMatrixIdLi1EiEELi2EEC2ERKS2_RKS4_
00000000003d9a52 W _ZN5Eigen7ProductINS_13CwiseBinaryOpINS_8internal17scalar_product_opIddEEKNS_14CwiseNullaryOpINS2_18scalar_constant_opIdEEKNS_6MatrixIdLi1ELin1ELi1ELi1ELin1EEEEEKNS_9TransposeIKNS1_INS2_20scalar_difference_opIddEEKNS8_IdLin1ELi1ELi0ELin1ELi1EEESH_EEEEEENS_15DiagonalWrapperISH_EELi1EEC1ERKSM_RKSO_
00000000003d9432 W _ZN5Eigen7ProductINS_13CwiseBinaryOpINS_8internal17scalar_product_opIddEEKNS_14CwiseNullaryOpINS2_18scalar_constant_opIdEEKNS_6MatrixIdLi1ELin1ELi1ELi1ELin1EEEEEKNS_9TransposeIKNS1_INS2_20scalar_difference_opIddEEKNS8_IdLin1ELi1ELi0ELin1ELi1EEESH_EEEEEENS_15DiagonalWrapperISH_EELi1EEC1ERKSP_
00000000003d9a52 W _ZN5Eigen7ProductINS_13CwiseBinaryOpINS_8internal17scalar_product_opIddEEKNS_14CwiseNullaryOpINS2_18scalar_constant_opIdEEKNS_6MatrixIdLi1ELin1ELi1ELi1ELin1EEEEEKNS_9TransposeIKNS1_INS2_20scalar_difference_opIddEEKNS8_IdLin1ELi1ELi0ELin1ELi1EEESH_EEEEEENS_15DiagonalWrapperISH_EELi1EEC2ERKSM_RKSO_
00000000003d9432 W _ZN5Eigen7ProductINS_13CwiseBinaryOpINS_8internal17scalar_product_opIddEEKNS_14CwiseNullaryOpINS2_18scalar_constant_opIdEEKNS_6MatrixIdLi1ELin1ELi1ELi1ELin1EEEEEKNS_9TransposeIKNS1_INS2_20scalar_difference_opIddEEKNS8_IdLin1ELi1ELi0ELin1ELi1EEESH_EEEEEENS_15DiagonalWrapperISH_EELi1EEC2ERKSP_
00000000003cbe5c W _ZN5Eigen7ProductINS_13CwiseBinaryOpINS_8internal17scalar_product_opIddEEKNS_14CwiseNullaryOpINS2_18scalar_constant_opIdEEKNS_6MatrixIdLin1ELin1ELi1ELin1ELin1EEEEEKNS_12SparseMatrixIdLi1EiEEEENS0_ISG_SE_Li2EEELi2EEC1ERKSG_RKSH_
00000000003cbe5c W _ZN5Eigen7ProductINS_13CwiseBinaryOpINS_8internal17scalar_product_opIddEEKNS_14CwiseNullaryOpINS2_18scalar_constant_opIdEEKNS_6MatrixIdLin1ELin1ELi1ELin1ELin1EEEEEKNS_12SparseMatrixIdLi1EiEEEENS0_ISG_SE_Li2EEELi2EEC2ERKSG_RKSH_
00000000003c4d6c W _ZN5Eigen7ProductINS_13CwiseBinaryOpINS_8internal17scalar_product_opIddEEKNS_14CwiseNullaryOpINS2_18scalar_constant_opIdEEKNS_6MatrixIdLin1ELin1ELi1ELin1ELin1EEEEEKNS_12SparseMatrixIdLi1EiEEEESE_Li2EEC1ERKSG_RSF_
00000000003ca47a W _ZN5Eigen7ProductINS_13CwiseBinaryOpINS_8internal17scalar_product_opIddEEKNS_14CwiseNullaryOpINS2_18scalar_constant_opIdEEKNS_6MatrixIdLin1ELin1ELi1ELin1ELin1EEEEEKNS_12SparseMatrixIdLi1EiEEEESE_Li2EEC1ERKSH_
00000000003c4d6c W _ZN5Eigen7ProductINS_13CwiseBinaryOpINS_8internal17scalar_product_opIddEEKNS_14CwiseNullaryOpINS2_18scalar_constant_opIdEEKNS_6MatrixIdLin1ELin1ELi1ELin1ELin1EEEEEKNS_12SparseMatrixIdLi1EiEEEESE_Li2EEC2ERKSG_RSF_
00000000003ca47a W _ZN5Eigen7ProductINS_13CwiseBinaryOpINS_8internal17scalar_product_opIddEEKNS_14CwiseNullaryOpINS2_18scalar_constant_opIdEEKNS_6MatrixIdLin1ELin1ELi1ELin1ELin1EEEEEKNS_12SparseMatrixIdLi1EiEEEESE_Li2EEC2ERKSH_
000000000041cbe0 W _ZN5Eigen7ProductINS_5BlockINS_12SparseMatrixIdLi1EiEELi1ELin1ELb1EEES3_Li2EEC1ERKS4_RKS3_
00000000004178d0 W _ZN5Eigen7ProductINS_5BlockINS_12SparseMatrixIdLi1EiEELi1ELin1ELb1EEES3_Li2EEC1ERKS5_
000000000041cbe0 W _ZN5Eigen7ProductINS_5BlockINS_12SparseMatrixIdLi1EiEELi1ELin1ELb1EEES3_Li2EEC2ERKS4_RKS3_
00000000004178d0 W _ZN5Eigen7ProductINS_5BlockINS_12SparseMatrixIdLi1EiEELi1ELin1ELb1EEES3_Li2EEC2ERKS5_
000000000033cf3a W _ZN5Eigen7ProductINS_6MatrixIdLi3ELi3ELi0ELi3ELi3EEENS1_IdLi3ELi1ELi0ELi3ELi1EEELi0EEC1ERKS2_RKS3_
000000000033cf3a W _ZN5Eigen7ProductINS_6MatrixIdLi3ELi3ELi0ELi3ELi3EEENS1_IdLi3ELi1ELi0ELi3ELi1EEELi0EEC2ERKS2_RKS3_
0000000000351a16 W _ZN5Eigen7ProductINS_6MatrixIdLi3ELi3ELi0ELi3ELi3EEENS1_IdLi3ELi1ELi0ELi3ELi1EEELi1EEC1ERKS2_RKS3_
0000000000351a16 W _ZN5Eigen7ProductINS_6MatrixIdLi3ELi3ELi0ELi3ELi3EEENS1_IdLi3ELi1ELi0ELi3ELi1EEELi1EEC2ERKS2_RKS3_
00000000003d3c86 W _ZN5Eigen7ProductINS_6MatrixIdLin1ELin1ELi0ELin1ELin1EEENS1_IdLin1ELi1ELi0ELin1ELi1EEELi0EEC1ERKS2_RKS3_
00000000003d3c86 W _ZN5Eigen7ProductINS_6MatrixIdLin1ELin1ELi0ELin1ELin1EEENS1_IdLin1ELi1ELi0ELin1ELi1EEELi0EEC2ERKS2_RKS3_
00000000003d9c5a W _ZN5Eigen7ProductINS_9TransposeINS_12SparseMatrixIdLi1EiEEEENS_15DiagonalWrapperIKNS_6MatrixIdLin1ELi1ELi0ELin1ELi1EEEEELi0EEC1ERKS4_RKS9_
00000000003d9c5a W _ZN5Eigen7ProductINS_9TransposeINS_12SparseMatrixIdLi1EiEEEENS_15DiagonalWrapperIKNS_6MatrixIdLin1ELi1ELi0ELin1ELi1EEEEELi0EEC2ERKS4_RKS9_
00000000003b8ac2 W _ZN5Eigen7ProductINS_9TransposeINS_6MatrixIdLi3ELi1ELi0ELi3ELi1EEEEENS_13CwiseBinaryOpINS_8internal13scalar_sum_opIddEEKS3_KNS5_INS6_17scalar_product_opIddEEKNS_14CwiseNullaryOpINS6_18scalar_constant_opIdEES9_EES9_EEEELi0EEC1ERKS4_RKSJ_
00000000003b8ac2 W _ZN5Eigen7ProductINS_9TransposeINS_6MatrixIdLi3ELi1ELi0ELi3ELi1EEEEENS_13CwiseBinaryOpINS_8internal13scalar_sum_opIddEEKS3_KNS5_INS6_17scalar_product_opIddEEKNS_14CwiseNullaryOpINS6_18scalar_constant_opIdEES9_EES9_EEEELi0EEC2ERKS4_RKSJ_
00000000003b88cc W _ZN5Eigen7ProductINS_9TransposeINS_6MatrixIdLi3ELi1ELi0ELi3ELi1EEEEENS_13CwiseBinaryOpINS_8internal20scalar_difference_opIddEEKS3_KNS5_INS6_17scalar_product_opIddEEKNS_14CwiseNullaryOpINS6_18scalar_constant_opIdEES9_EES9_EEEELi0EEC1ERKS4_RKSJ_
00000000003b88cc W _ZN5Eigen7ProductINS_9TransposeINS_6MatrixIdLi3ELi1ELi0ELi3ELi1EEEEENS_13CwiseBinaryOpINS_8internal20scalar_difference_opIddEEKS3_KNS5_INS6_17scalar_product_opIddEEKNS_14CwiseNullaryOpINS6_18scalar_constant_opIdEES9_EES9_EEEELi0EEC2ERKS4_RKSJ_
00000000003b86a4 W _ZN5Eigen7ProductINS_9TransposeINS_6MatrixIdLi3ELi1ELi0ELi3ELi1EEEEES3_Li0EEC1ERKS4_RKS3_
00000000003b86a4 W _ZN5Eigen7ProductINS_9TransposeINS_6MatrixIdLi3ELi1ELi0ELi3ELi1EEEEES3_Li0EEC2ERKS4_RKS3_
0000000000424ecc W _ZN5Eigen8DiagonalIKNS_6MatrixIdLi3ELi3ELi0ELi3ELi3EEELi0EEC1ERS3_l
0000000000424ecc W _ZN5Eigen8DiagonalIKNS_6MatrixIdLi3ELi3ELi0ELi3ELi3EEELi0EEC2ERS3_l
000000000039917b W _ZN5Eigen8internal10AssignmentINS_12SparseMatrixIdLi0EiEENS_7ProductINS_12CwiseUnaryOpINS0_18scalar_opposite_opIdEEKNS2_IdLi1EiEEEES8_Li2EEENS0_9assign_opIddEENS0_13Sparse2SparseEvE3runERS3_RKSB_RKSD_
00000000003991e4 W _ZN5Eigen8internal10AssignmentINS_12SparseMatrixIdLi0EiEENS_7ProductINS2_IdLi1EiEENS_12CwiseUnaryOpINS0_18scalar_opposite_opIdEEKS5_EELi2EEENS0_9assign_opIddEENS0_13Sparse2SparseEvE3runERS3_RKSB_RKSD_
00000000003985b7 W _ZN5Eigen8internal10AssignmentINS_12SparseMatrixIdLi0EiEENS_7ProductINS2_IdLi1EiEES5_Li2EEENS0_9assign_opIddEENS0_13Sparse2SparseEvE3runERS3_RKS6_RKS8_
00000000003a2865 W _ZN5Eigen8internal10AssignmentINS_12SparseMatrixIdLi0EiEES3_NS0_9assign_opIddEENS0_13Sparse2SparseEvE3runERS3_RKS3_RKS5_
00000000003a3384 W _ZN5Eigen8internal10AssignmentINS_12SparseMatrixIdLi0ElEENS_7ProductINS_10SparseViewINS_6MatrixIdLi3ELi3ELi0ELi3ELi3EEEEENS2_IdLi1EiEELi2EEENS0_9assign_opIddEENS0_13Sparse2SparseEvE3runERS3_RKSA_RKSC_
00000000003c5ece W _ZN5Eigen8internal10AssignmentINS_12SparseMatrixIdLi0ElEENS_7ProductINS_13CwiseBinaryOpINS0_17scalar_product_opIddEEKNS_14CwiseNullaryOpINS0_18scalar_constant_opIdEEKNS_6MatrixIdLin1ELin1ELi1ELin1ELin1EEEEEKNS2_IdLi1EiEEEESG_Li2EEENS0_9assign_opIddEENS0_13Sparse2SparseEvE3runERS3_RKSJ_RKSL_
00000000003a5ab6 W _ZN5Eigen8internal10AssignmentINS_12SparseMatrixIdLi0ElEES3_NS0_9assign_opIddEENS0_13Sparse2SparseEvE3runERS3_RKS3_RKS5_
00000000003dacc3 W _ZN5Eigen8internal10AssignmentINS_12SparseMatrixIdLi1EiEENS_10SparseViewINS_9TransposeINS_6MatrixIdLin1ELi1ELi0ELin1ELi1EEEEEEENS0_9assign_opIddEENS0_13Sparse2SparseEvE3runERS3_RKS9_RKSB_
000000000039aad0 W _ZN5Eigen8internal10AssignmentINS_12SparseMatrixIdLi1EiEENS_12CwiseUnaryOpINS0_18scalar_opposite_opIdEEKS3_EENS0_9assign_opIddEENS0_13Sparse2SparseEvE3runERS3_RKS8_RKSA_
00000000004267b6 W _ZN5Eigen8internal10AssignmentINS_12SparseMatrixIdLi1EiEENS_13CwiseBinaryOpINS0_13scalar_sum_opIddEEKNS4_INS0_20scalar_difference_opIddEEKNS4_IS8_KNS4_IS8_KNS4_IS8_KNS4_INS0_17scalar_product_opIddEEKNS_14CwiseNullaryOpINS0_18scalar_constant_opIdEEKNS_6MatrixIdLi1ELin1ELi1ELi1ELin1EEEEEKNS_12SparseVectorIdLi1EiEEEESN_EESN_EESN_EESN_EEKNS4_ISA_SN_SI_EEEENS0_9assign_opIddEENS0_13Sparse2SparseEvE3runERS3_RKSY_RKS10_
00000000004264be W _ZN5Eigen8internal10AssignmentINS_12SparseMatrixIdLi1EiEENS_13CwiseBinaryOpINS0_13scalar_sum_opIddEEKNS4_IS6_KNS4_IS6_KNS_7ProductINS_12SparseVectorIdLi1EiEES3_Li2EEEKNS7_INS_5BlockIS3_Li1ELin1ELb1EEES3_Li2EEEEESB_EESF_EENS0_9assign_opIddEENS0_13Sparse2SparseEvE3runERS3_RKSK_RKSM_
0000000000393652 W _ZN5Eigen8internal10AssignmentINS_12SparseMatrixIdLi1EiEENS_13CwiseBinaryOpINS0_13scalar_sum_opIddEEKNS4_IS6_KS3_S7_EES7_EENS0_9assign_opIddEENS0_13Sparse2SparseEvE3runERS3_RKSA_RKSC_
0000000000427fa0 W _ZN5Eigen8internal10AssignmentINS_12SparseMatrixIdLi1EiEENS_13CwiseBinaryOpINS0_13scalar_sum_opIddEEKNS_5BlockIS3_Li1ELin1ELb1EEEKNS4_INS0_17scalar_product_opIddEEKNS_14CwiseNullaryOpINS0_18scalar_constant_opIdEEKNS_6MatrixIdLi1ELin1ELi1ELi1ELin1EEEEEKNS_12SparseVectorIdLi1EiEEEEEENS0_9assign_opIddEENS0_13Sparse2SparseEvE3runERS3_RKSP_RKSR_
000000000042643d W _ZN5Eigen8internal10AssignmentINS_12SparseMatrixIdLi1EiEENS_13CwiseBinaryOpINS0_13scalar_sum_opIddEEKNS_7ProductINS_12SparseVectorIdLi1EiEES3_Li2EEEKNS7_INS_5BlockIS3_Li1ELin1ELb1EEES3_Li2EEEEENS0_9assign_opIddEENS0_13Sparse2SparseEvE3runERS3_RKSG_RKSI_
0000000000392cd9 W _ZN5Eigen8internal10AssignmentINS_12SparseMatrixIdLi1EiEENS_13CwiseBinaryOpINS0_13scalar_sum_opIddEEKS3_S7_EENS0_9assign_opIddEENS0_13Sparse2SparseEvE3runERS3_RKS8_RKSA_
0000000000426501 W _ZN5Eigen8internal10AssignmentINS_12SparseMatrixIdLi1EiEENS_13CwiseBinaryOpINS0_17scalar_product_opIddEEKNS_14CwiseNullaryOpINS0_18scalar_constant_opIdEEKNS_6MatrixIdLi1ELin1ELi1ELi1ELin1EEEEEKNS_12SparseVectorIdLi1EiEEEENS0_9assign_opIddEENS0_13Sparse2SparseEvE3runERS3_RKSI_RKSK_
000000000039abe6 W _ZN5Eigen8internal10AssignmentINS_12SparseMatrixIdLi1EiEENS_13CwiseBinaryOpINS0_17scalar_product_opIddEEKNS_14CwiseNullaryOpINS0_18scalar_constant_opIdEEKNS_6MatrixIdLin1ELin1ELi1ELin1ELin1EEEEEKS3_EENS0_9assign_opIddEENS0_13Sparse2SparseEvE3runERS3_RKSG_RKSI_
0000000000426544 W _ZN5Eigen8internal10AssignmentINS_12SparseMatrixIdLi1EiEENS_13CwiseBinaryOpINS0_20scalar_difference_opIddEEKNS4_INS0_17scalar_product_opIddEEKNS_14CwiseNullaryOpINS0_18scalar_constant_opIdEEKNS_6MatrixIdLi1ELin1ELi1ELi1ELin1EEEEEKNS_12SparseVectorIdLi1EiEEEESL_EENS0_9assign_opIddEENS0_13Sparse2SparseEvE3runERS3_RKSM_RKSO_
0000000000426838 W _ZN5Eigen8internal10AssignmentINS_12SparseMatrixIdLi1EiEENS_13CwiseBinaryOpINS0_20scalar_difference_opIddEEKNS4_IS6_KNS4_IS6_KNS4_IS6_KNS4_IS6_KNS4_INS0_17scalar_product_opIddEEKNS_14CwiseNullaryOpINS0_18scalar_constant_opIdEEKNS_6MatrixIdLi1ELin1ELi1ELi1ELin1EEEEEKNS_12SparseVectorIdLi1EiEEEESL_EESL_EESL_EEKNS4_IS8_SL_SG_EEEESL_EENS0_9assign_opIddEENS0_13Sparse2SparseEvE3runERS3_RKSW_RKSY_
00000000003d2c3a W _ZN5Eigen8internal10AssignmentINS_12SparseMatrixIdLi1EiEENS_13CwiseBinaryOpINS0_20scalar_difference_opIddEEKS3_S7_EENS0_9assign_opIddEENS0_13Sparse2SparseEvE3runERS3_RKS8_RKSA_
00000000003cdac4 W _ZN5Eigen8internal10AssignmentINS_12SparseMatrixIdLi1EiEENS_7ProductINS_13CwiseBinaryOpINS0_17scalar_product_opIddEEKNS_14CwiseNullaryOpINS0_18scalar_constant_opIdEEKNS_6MatrixIdLin1ELin1ELi1ELin1ELin1EEEEEKS3_EENS4_ISH_S3_Li2EEELi2EEENS0_9assign_opIddEENS0_13Sparse2SparseEvE3runERS3_RKSJ_RKSL_
0000000000392668 W _ZN5Eigen8internal10AssignmentINS_12SparseMatrixIdLi1EiEENS_7ProductINS4_INS_10SparseViewINS_6MatrixIdLi3ELi3ELi0ELi3ELi3EEEEES3_Li2EEENS5_INS_9TransposeIKS7_EEEELi2EEENS0_9assign_opIddEENS0_13Sparse2SparseEvE3runERS3_RKSE_RKSG_
0000000000393594 W _ZN5Eigen8internal10AssignmentINS_12SparseMatrixIdLi1EiEENS_7ProductINS4_INS_10SparseViewINS_6MatrixIdLi3ELi3ELi0ELi3ELi3EEEEES3_Li2EEES3_Li2EEENS0_9assign_opIddEENS0_13Sparse2SparseEvE3runERS3_RKSA_RKSC_
00000000003cdb44 W _ZN5Eigen8internal10AssignmentINS_12SparseMatrixIdLi1EiEENS_7ProductINS4_INS_13CwiseBinaryOpINS0_17scalar_product_opIddEEKNS_14CwiseNullaryOpINS0_18scalar_constant_opIdEEKNS_6MatrixIdLin1ELin1ELi1ELin1ELin1EEEEEKS3_EES3_Li2EEES3_Li2EEENS0_9assign_opIddEENS0_13Sparse2SparseEvE3runERS3_RKSJ_RKSL_
00000000003973c4 W _ZN5Eigen8internal10AssignmentINS_12SparseMatrixIdLi1EiEES3_NS0_9assign_opIddEENS0_13Sparse2SparseEvE3runERS3_RKS3_RKS5_
00000000003c677b W _ZN5Eigen8internal10AssignmentINS_12SparseMatrixIdLi1ElEENS_13CwiseBinaryOpINS0_17scalar_product_opIddEEKNS_14CwiseNullaryOpINS0_18scalar_constant_opIdEEKNS_6MatrixIdLin1ELin1ELi1ELin1ELin1EEEEEKNS2_IdLi1EiEEEENS0_9assign_opIddEENS0_13Sparse2SparseEvE3runERS3_RKSH_RKSJ_
00000000003c6e0d W _ZN5Eigen8internal10AssignmentINS_12SparseMatrixIdLi1ElEES3_NS0_9assign_opIddEENS0_13Sparse2SparseEvE3runERS3_RKS3_RKS5_
0000000000372911 W _ZN5Eigen8internal10AssignmentINS_3MapINS_6MatrixIiLin1ELi1ELi0ELin1ELi1EEELi0ENS_6StrideILi0ELi0EEEEENS_14CwiseNullaryOpINS0_18scalar_constant_opIiEES4_EENS0_9assign_opIiiEENS0_11Dense2DenseEvE3runERS7_RKSB_RKSD_
00000000003a00a3 W _ZN5Eigen8internal10AssignmentINS_3MapINS_6MatrixIlLin1ELi1ELi0ELin1ELi1EEELi0ENS_6StrideILi0ELi0EEEEENS_14CwiseNullaryOpINS0_18scalar_constant_opIlEES4_EENS0_9assign_opIllEENS0_11Dense2DenseEvE3runERS7_RKSB_RKSD_
00000000003955fa W _ZN5Eigen8internal10AssignmentINS_5BlockINS_6MatrixIdLi6ELi1ELi0ELi6ELi1EEELin1ELi1ELb0EEENS_13CwiseBinaryOpINS0_20scalar_difference_opIddEEKNS6_INS0_13scalar_sum_opIddEEKNS_7ProductINS_12SparseMatrixIdLi1EiEENS3_IdLi3ELi1ELi0ELi3ELi1EEELi0EEEKNSB_ISD_SF_Li0EEEEEKSE_EENS0_9assign_opIddEENS0_11Dense2DenseEvE3runERS5_RKSM_RKSO_
000000000039563b W _ZN5Eigen8internal10AssignmentINS_5BlockINS_6MatrixIdLi6ELi1ELi0ELi6ELi1EEELin1ELi1ELb0EEENS_13CwiseBinaryOpINS0_20scalar_difference_opIddEEKNS6_IS8_KNS6_INS0_17scalar_product_opIddEEKNS_14CwiseNullaryOpINS0_18scalar_constant_opIdEEKNS3_IdLi3ELi1ELi0ELi3ELi1EEEEESF_EESF_EESF_EENS0_9assign_opIddEENS0_11Dense2DenseEvE3runERS5_RKSM_RKSO_
00000000003d2331 W _ZN5Eigen8internal10AssignmentINS_5BlockINS_6MatrixIdLin1ELi1ELi0ELin1ELi1EEELin1ELi1ELb0EEENS_13CwiseBinaryOpINS0_20scalar_difference_opIddEEKS4_S9_EENS0_9assign_opIddEENS0_11Dense2DenseEvE3runERS5_RKSA_RKSC_
00000000003c5368 W _ZN5Eigen8internal10AssignmentINS_5BlockINS_6MatrixIdLin1ELi1ELi0ELin1ELi1EEELin1ELi1ELb0EEENS3_IdLi3ELi1ELi0ELi3ELi1EEENS0_9assign_opIddEENS0_11Dense2DenseEvE3runERS5_RKS6_RKS8_
00000000003bff5d W _ZN5Eigen8internal10AssignmentINS_5BlockINS_6MatrixIdLin1ELi1ELi0ELin1ELi1EEELin1ELi1ELb0EEENS3_IdLi6ELi1ELi0ELi6ELi1EEENS0_9assign_opIddEENS0_11Dense2DenseEvE3runERS5_RKS6_RKS8_
00000000003af0fc W _ZN5Eigen8internal10AssignmentINS_5BlockINS_6MatrixIdLin1ELi1ELi0ELin1ELi1EEELin1ELi1ELb0EEES4_NS0_9assign_opIddEENS0_11Dense2DenseEvE3runERS5_RKS4_RKS7_
00000000003aa26f W _ZN5Eigen8internal10AssignmentINS_5BlockINS_6MatrixIdLin1ELi3ELi0ELin1ELi3EEELi1ELi3ELb0EEENS_13CwiseBinaryOpINS0_17scalar_product_opIddEEKNS_14CwiseNullaryOpINS0_18scalar_constant_opIdEEKNS3_IdLi1ELi3ELi1ELi1ELi3EEEEEKNS2_IKNS_9TransposeIKNS3_IdLi3ELi3ELi0ELi3ELi3EEEEELi1ELi3ELb1EEEEENS0_13add_assign_opIddEENS0_11Dense2DenseEvE3runERS5_RKSN_RKSP_
000000000036ff6f W _ZN5Eigen8internal10AssignmentINS_5BlockINS_6MatrixIdLin1ELin1ELi0ELin1ELin1EEELin1ELi1ELb1EEENS_13CwiseBinaryOpINS0_17scalar_product_opIddEEKNS_14CwiseNullaryOpINS0_18scalar_constant_opIdEEKNS3_IdLin1ELi1ELi0ELin1ELi1EEEEESD_EENS0_9assign_opIddEENS0_11Dense2DenseEvE3runERS5_RKSG_RKSI_
000000000036f178 W _ZN5Eigen8internal10AssignmentINS_5BlockINS_6MatrixIdLin1ELin1ELi0ELin1ELin1EEELin1ELi1ELb1EEENS3_IdLin1ELi1ELi0ELin1ELi1EEENS0_13sub_assign_opIddEENS0_11Dense2DenseEvE3runERS5_RKS6_RKS8_
000000000036ff2e W _ZN5Eigen8internal10AssignmentINS_5BlockINS_6MatrixIdLin1ELin1ELi0ELin1ELin1EEELin1ELi1ELb1EEENS3_IdLin1ELi1ELi0ELin1ELi1EEENS0_9assign_opIddEENS0_11Dense2DenseEvE3runERS5_RKS6_RKS8_
00000000003b3de5 W _ZN5Eigen8internal10AssignmentINS_6MatrixIdLi2ELi1ELi0ELi2ELi1EEENS_13CwiseBinaryOpINS0_13scalar_sum_opIddEEKS3_KNS4_INS0_17scalar_product_opIddEEKNS_14CwiseNullaryOpINS0_18scalar_constant_opIdEES7_EES7_EEEENS0_9assign_opIddEENS0_11Dense2DenseEvE3runERS3_RKSH_RKSJ_
00000000003b3e26 W _ZN5Eigen8internal10AssignmentINS_6MatrixIdLi2ELi1ELi0ELi2ELi1EEENS_13CwiseBinaryOpINS0_18scalar_quotient_opIddEEKS3_KNS_14CwiseNullaryOpINS0_18scalar_constant_opIdEES7_EEEENS0_9assign_opIddEENS0_11Dense2DenseEvE3runERS3_RKSD_RKSF_
00000000003b3da4 W _ZN5Eigen8internal10AssignmentINS_6MatrixIdLi2ELi1ELi0ELi2ELi1EEENS_13CwiseBinaryOpINS0_20scalar_difference_opIddEEKS3_S7_EENS0_9assign_opIddEENS0_11Dense2DenseEvE3runERS3_RKS8_RKSA_
00000000003b3d63 W _ZN5Eigen8internal10AssignmentINS_6MatrixIdLi2ELi1ELi0ELi2ELi1EEENS_5BlockIKNS2_IdLin1ELi1ELi0ELin1ELi1EEELi2ELi1ELb0EEENS0_9assign_opIddEENS0_11Dense2DenseEvE3runERS3_RKS7_RKS9_
00000000003f52e1 W _ZN5Eigen8internal10AssignmentINS_6MatrixIdLi3ELi1ELi0ELi3ELi1EEENS_13CwiseBinaryOpINS0_17scalar_product_opIddEEKNS_14CwiseNullaryOpINS0_18scalar_constant_opIdEEKS3_EEKNS4_INS0_20scalar_difference_opIddEEKNS4_IS6_SC_KNS_5BlockIKNS7_INS0_18scalar_identity_opIdEENS2_IdLi3ELi3ELi0ELi3ELi3EEEEELi3ELi1ELb0EEEEEKNS4_IS6_SC_SA_EEEEEENS0_9assign_opIddEENS0_11Dense2DenseEvE3runERS3_RKST_RKSV_
00000000003f5145 W _ZN5Eigen8internal10AssignmentINS_6MatrixIdLi3ELi1ELi0ELi3ELi1EEENS_13CwiseBinaryOpINS0_17scalar_product_opIddEEKS3_S7_EENS0_9assign_opIddEENS0_11Dense2DenseEvE3runERS3_RKS8_RKSA_
00000000003f64a2 W _ZN5Eigen8internal10AssignmentINS_6MatrixIdLi3ELi1ELi0ELi3ELi1EEENS_13CwiseBinaryOpINS0_18scalar_quotient_opIddEEKS3_KNS_14CwiseNullaryOpINS0_18scalar_constant_opIdEES7_EEEENS0_9assign_opIddEENS0_11Dense2DenseEvE3runERS3_RKSD_RKSF_
0000000000396cdf W _ZN5Eigen8internal10AssignmentINS_6MatrixIdLi3ELi1ELi0ELi3ELi1EEENS_13CwiseBinaryOpINS0_20scalar_difference_opIddEEKS3_S7_EENS0_9assign_opIddEENS0_11Dense2DenseEvE3runERS3_RKS8_RKSA_
000000000037d616 W _ZN5Eigen8internal10AssignmentINS_6MatrixIdLi3ELi1ELi0ELi3ELi1EEENS_14CwiseNullaryOpINS0_18scalar_constant_opIdEES3_EENS0_9assign_opIddEENS0_11Dense2DenseEvE3runERS3_RKS7_RKS9_
00000000003ccd06 W _ZN5Eigen8internal10AssignmentINS_6MatrixIdLi3ELi1ELi0ELi3ELi1EEENS_16PartialReduxExprINS2_IdLi3ELi3ELi0ELi3ELi3EEENS0_10member_sumIdEELi1EEENS0_9assign_opIddEENS0_11Dense2DenseEvE3runERS3_RKS8_RKSA_
000000000034d1ba W _ZN5Eigen8internal10AssignmentINS_6MatrixIdLi3ELi1ELi0ELi3ELi1EEENS2_IdLin1ELi1ELi0ELin1ELi1EEENS0_9assign_opIddEENS0_11Dense2DenseEvE3runERS3_RKS4_RKS6_
0000000000426246 W _ZN5Eigen8internal10AssignmentINS_6MatrixIdLi3ELi1ELi0ELi3ELi1EEENS_7ProductINS_12SparseMatrixIdLi1EiEENS2_IdLin1ELi1ELi0ELin1ELi1EEELi0EEENS0_13add_assign_opIddEENS0_11Dense2DenseEvE3runERS3_RKS8_RKSA_
000000000042618e W _ZN5Eigen8internal10AssignmentINS_6MatrixIdLi3ELi1ELi0ELi3ELi1EEENS_7ProductINS_12SparseMatrixIdLi1EiEENS2_IdLin1ELi1ELi0ELin1ELi1EEELi0EEENS0_9assign_opIddEENS0_11Dense2DenseEvE3runERS3_RKS8_RKSA_
0000000000396b4b W _ZN5Eigen8internal10AssignmentINS_6MatrixIdLi3ELi1ELi0ELi3ELi1EEENS_7ProductINS_12SparseMatrixIdLi1EiEES3_Li0EEENS0_9assign_opIddEENS0_11Dense2DenseEvE3runERS3_RKS7_RKS9_
000000000034d1fb W _ZN5Eigen8internal10AssignmentINS_6MatrixIdLi3ELi1ELi0ELi3ELi1EEENS_7ProductINS2_IdLi3ELi3ELi0ELi3ELi3EEES3_Li0EEENS0_13add_assign_opIddEENS0_11Dense2DenseEvE3runERS3_RKS6_RKS8_
0000000000351a95 W _ZN5Eigen8internal10AssignmentINS_6MatrixIdLi3ELi1ELi0ELi3ELi1EEENS_7ProductINS2_IdLi3ELi3ELi0ELi3ELi3EEES3_Li1EEENS0_13add_assign_opIddEENS0_11Dense2DenseEvE3runERS3_RKS6_RKS8_
0000000000396175 W _ZN5Eigen8internal10AssignmentINS_6MatrixIdLi3ELi1ELi0ELi3ELi1EEENS_7ProductINS4_INS_12SparseMatrixIdLi1EiEENS_9TransposeIKNS2_IdLi3ELi3ELi0ELi3ELi3EEEEELi0EEES3_Li0EEENS0_9assign_opIddEENS0_11Dense2DenseEvE3runERS3_RKSC_RKSE_
000000000039dbbe W _ZN5Eigen8internal10AssignmentINS_6MatrixIdLi3ELi1ELi0ELi3ELi1EEENS_7ProductINS4_INS_12SparseMatrixIdLi1EiEENS_9TransposeIKNS2_IdLi3ELi3ELi0ELi3ELi3EEEEELi0EEES3_Li1EEENS0_9assign_opIddEENS0_11Dense2DenseEvE3runERS3_RKSC_RKSE_
00000000003922d5 W _ZN5Eigen8internal10AssignmentINS_6MatrixIdLi3ELi1ELi0ELi3ELi1EEES3_NS0_13add_assign_opIddEENS0_11Dense2DenseEvE3runERS3_RKS3_RKS5_
000000000037c83e W _ZN5Eigen8internal10AssignmentINS_6MatrixIdLi3ELi1ELi0ELi3ELi1EEES3_NS0_14swap_assign_opIdEENS0_11Dense2DenseEvE3runERS3_RKS3_RKS5_
0000000000381f41 W _ZN5Eigen8internal10AssignmentINS_6MatrixIdLi3ELi1ELi0ELi3ELi1EEES3_NS0_9assign_opIddEENS0_11Dense2DenseEvE3runERS3_RKS3_RKS5_
00000000003ccc0b W _ZN5Eigen8internal10AssignmentINS_6MatrixIdLi3ELi3ELi0ELi3ELi3EEENS_12CwiseUnaryOpINS0_18scalar_opposite_opIdEEKS3_EENS0_9assign_opIddEENS0_11Dense2DenseEvE3runERS3_RKS8_RKSA_
000000000034f123 W _ZN5Eigen8internal10AssignmentINS_6MatrixIdLi3ELi3ELi0ELi3ELi3EEENS_12SparseMatrixIdLi1EiEENS0_9assign_opIddEENS0_12Sparse2DenseEvE3runERS3_RKS5_RKS7_
00000000003cd150 W _ZN5Eigen8internal10AssignmentINS_6MatrixIdLi3ELi3ELi0ELi3ELi3EEENS_13CwiseBinaryOpINS0_17scalar_product_opIddEEKNS_12ArrayWrapperIS3_EES9_EENS0_9assign_opIddEENS0_11Dense2DenseEvE3runERS3_RKSA_RKSC_
0000000000352a5c W _ZN5Eigen8internal10AssignmentINS_6MatrixIdLi3ELi3ELi0ELi3ELi3EEENS_14CwiseNullaryOpINS0_18scalar_constant_opIdEES3_EENS0_9assign_opIddEENS0_11Dense2DenseEvE3runERS3_RKS7_RKS9_
0000000000382261 W _ZN5Eigen8internal10AssignmentINS_6MatrixIdLi3ELi3ELi0ELi3ELi3EEENS_14CwiseNullaryOpINS0_18scalar_identity_opIdEES3_EENS0_9assign_opIddEENS0_11Dense2DenseEvE3runERS3_RKS7_RKS9_
00000000003ccc8f W _ZN5Eigen8internal10AssignmentINS_6MatrixIdLi3ELi3ELi0ELi3ELi3EEENS_9ReplicateINS_9TransposeINS2_IdLi3ELi1ELi0ELi3ELi1EEEEELi3ELi1EEENS0_13add_assign_opIddEENS0_11Dense2DenseEvE3runERS3_RKS8_RKSA_
00000000003cd3c5 W _ZN5Eigen8internal10AssignmentINS_6MatrixIdLi3ELi3ELi0ELi3ELi3EEES3_NS0_14swap_assign_opIdEENS0_11Dense2DenseEvE3runERS3_RKS3_RKS5_
0000000000381f82 W _ZN5Eigen8internal10AssignmentINS_6MatrixIdLi3ELi3ELi0ELi3ELi3EEES3_NS0_9assign_opIddEENS0_11Dense2DenseEvE3runERS3_RKS3_RKS5_
0000000000402b01 W _ZN5Eigen8internal10AssignmentINS_6MatrixIdLin1ELi1ELi0ELin1ELi1EEENS_13CwiseBinaryOpINS0_13scalar_sum_opIddEEKNS4_INS0_20scalar_difference_opIddEEKNS4_IS8_KNS4_INS0_18scalar_quotient_opIddEEKNS4_INS0_17scalar_product_opIddEEKNS_14CwiseNullaryOpINS0_18scalar_constant_opIdEEKS3_EEKNS4_IS6_SG_SG_EEEESI_EEKNS4_ISA_KNS4_ISC_SI_KNS4_IS6_KNS4_ISC_SI_SG_EESG_EEEESI_EEEEKNS4_ISA_KNS4_ISC_SI_KNS4_IS6_KNS4_IS6_KNS4_IS8_SQ_SQ_EESQ_EESQ_EEEESI_EEEES18_EENS0_9assign_opIddEENS0_11Dense2DenseEvE3runERS3_RKS1B_RKS1D_
000000000035f786 W _ZN5Eigen8internal10AssignmentINS_6MatrixIdLin1ELi1ELi0ELin1ELi1EEENS_13CwiseBinaryOpINS0_13scalar_sum_opIddEEKS3_KNS4_INS0_17scalar_product_opIddEEKNS_14CwiseNullaryOpINS0_18scalar_constant_opIdEES7_EES7_EEEENS0_9assign_opIddEENS0_11Dense2DenseEvE3runERS3_RKSH_RKSJ_
000000000040b96a W _ZN5Eigen8internal10AssignmentINS_6MatrixIdLin1ELi1ELi0ELin1ELi1EEENS_13CwiseBinaryOpINS0_17scalar_product_opIddEEKNS_14CwiseNullaryOpINS0_18scalar_constant_opIdEEKS3_EEKNS4_INS0_20scalar_difference_opIddEESA_KNS4_IS6_SC_SA_EEEEEENS0_9assign_opIddEENS0_11Dense2DenseEvE3runERS3_RKSJ_RKSL_
0000000000401db2 W _ZN5Eigen8internal10AssignmentINS_6MatrixIdLin1ELi1ELi0ELin1ELi1EEENS_13CwiseBinaryOpINS0_17scalar_product_opIddEEKNS_14CwiseNullaryOpINS0_18scalar_constant_opIdEEKS3_EESA_EENS0_13add_assign_opIddEENS0_11Dense2DenseEvE3runERS3_RKSD_RKSF_
0000000000402dd8 W _ZN5Eigen8internal10AssignmentINS_6MatrixIdLin1ELi1ELi0ELin1ELi1EEENS_13CwiseBinaryOpINS0_18scalar_quotient_opIddEEKNS_12CwiseUnaryOpINS0_18scalar_opposite_opIdEEKNS4_INS0_13scalar_sum_opIddEEKNS4_INS0_17scalar_product_opIddEEKNS_14CwiseNullaryOpINS0_18scalar_constant_opIdEEKS3_EEKNS4_INS0_20scalar_difference_opIddEESH_SH_EEEEKNS4_ISD_SJ_KNS4_ISB_KNS4_ISD_SJ_SH_EESH_EEEEEEEESJ_EENS0_9assign_opIddEENS0_11Dense2DenseEvE3runERS3_RKS10_RKS12_
0000000000402e19 W _ZN5Eigen8internal10AssignmentINS_6MatrixIdLin1ELi1ELi0ELin1ELi1EEENS_13CwiseBinaryOpINS0_18scalar_quotient_opIddEEKNS4_INS0_13scalar_sum_opIddEEKNS4_INS0_17scalar_product_opIddEEKNS_14CwiseNullaryOpINS0_18scalar_constant_opIdEEKS3_EEKNS4_INS0_20scalar_difference_opIddEESE_SE_EEEEKNS4_ISA_SG_KNS4_IS8_SE_SE_EEEEEESG_EENS0_9assign_opIddEENS0_11Dense2DenseEvE3runERS3_RKST_RKSV_
000000000035f745 W _ZN5Eigen8internal10AssignmentINS_6MatrixIdLin1ELi1ELi0ELin1ELi1EEENS_13CwiseBinaryOpINS0_18scalar_quotient_opIddEEKS3_KNS_14CwiseNullaryOpINS0_18scalar_constant_opIdEES7_EEEENS0_9assign_opIddEENS0_11Dense2DenseEvE3runERS3_RKSD_RKSF_
000000000035f704 W _ZN5Eigen8internal10AssignmentINS_6MatrixIdLin1ELi1ELi0ELin1ELi1EEENS_13CwiseBinaryOpINS0_20scalar_difference_opIddEEKS3_S7_EENS0_9assign_opIddEENS0_11Dense2DenseEvE3runERS3_RKS8_RKSA_
000000000036a089 W _ZN5Eigen8internal10AssignmentINS_6MatrixIdLin1ELi1ELi0ELin1ELi1EEENS_14CwiseNullaryOpINS0_18scalar_constant_opIdEES3_EENS0_9assign_opIddEENS0_11Dense2DenseEvE3runERS3_RKS7_RKS9_
00000000003471ce W _ZN5Eigen8internal10AssignmentINS_6MatrixIdLin1ELi1ELi0ELin1ELi1EEENS2_IdLi3ELi1ELi0ELi3ELi1EEENS0_9assign_opIddEENS0_11Dense2DenseEvE3runERS3_RKS4_RKS6_
00000000003a9511 W _ZN5Eigen8internal10AssignmentINS_6MatrixIdLin1ELi1ELi0ELin1ELi1EEENS_7ProductINS_12SparseMatrixIdLi1EiEENS2_IdLi3ELi1ELi0ELi3ELi1EEELi0EEENS0_9assign_opIddEENS0_11Dense2DenseEvE3runERS3_RKS8_RKSA_
00000000003d417c W _ZN5Eigen8internal10AssignmentINS_6MatrixIdLin1ELi1ELi0ELin1ELi1EEENS_7ProductINS2_IdLin1ELin1ELi0ELin1ELin1EEES3_Li0EEENS0_9assign_opIddEENS0_11Dense2DenseEvE3runERS3_RKS6_RKS8_
00000000003dae08 W _ZN5Eigen8internal10AssignmentINS_6MatrixIdLin1ELi1ELi0ELin1ELi1EEENS_7ProductINS4_INS_9TransposeINS_12SparseMatrixIdLi1EiEEEENS_15DiagonalWrapperIKS3_EELi0EEENS_13CwiseBinaryOpINS0_20scalar_difference_opIddEESA_SA_EELi0EEENS0_9assign_opIddEENS0_11Dense2DenseEvE3runERS3_RKSH_RKSJ_
00000000003d4275 W _ZN5Eigen8internal10AssignmentINS_6MatrixIdLin1ELi1ELi0ELin1ELi1EEES3_NS0_9assign_opIddEENS0_11Dense2DenseEvE3runERS3_RKS3_RKS5_
00000000003aa040 W _ZN5Eigen8internal10AssignmentINS_6MatrixIdLin1ELi3ELi0ELin1ELi3EEENS_14CwiseNullaryOpINS0_18scalar_constant_opIdEES3_EENS0_9assign_opIddEENS0_11Dense2DenseEvE3runERS3_RKS7_RKS9_
00000000003a5fb3 W _ZN5Eigen8internal10AssignmentINS_6MatrixIdLin1ELi3ELi0ELin1ELi3EEENS_7ProductINS_12SparseMatrixIdLi1EiEENS_9TransposeIKNS2_IdLi3ELi3ELi0ELi3ELi3EEEEELi0EEENS0_9assign_opIddEENS0_11Dense2DenseEvE3runERS3_RKSB_RKSD_
000000000036fe4a W _ZN5Eigen8internal10AssignmentINS_6MatrixIdLin1ELin1ELi0ELin1ELin1EEENS_14CwiseNullaryOpINS0_18scalar_constant_opIdEES3_EENS0_9assign_opIddEENS0_11Dense2DenseEvE3runERS3_RKS7_RKS9_
00000000003d4234 W _ZN5Eigen8internal10AssignmentINS_6MatrixIdLin1ELin1ELi0ELin1ELin1EEES3_NS0_9assign_opIddEENS0_11Dense2DenseEvE3runERS3_RKS3_RKS5_
00000000003dad32 W _ZN5Eigen8internal10AssignmentINS_9TransposeINS_6MatrixIdLin1ELi1ELi0ELin1ELi1EEEEENS_7ProductINS6_INS_13CwiseBinaryOpINS0_17scalar_product_opIddEEKNS_14CwiseNullaryOpINS0_18scalar_constant_opIdEEKNS3_IdLi1ELin1ELi1ELi1ELin1EEEEEKNS2_IKNS7_INS0_20scalar_difference_opIddEEKS4_SJ_EEEEEENS_15DiagonalWrapperISJ_EELi1EEESK_Li0EEENS0_9assign_opIddEENS0_11Dense2DenseEvE3runERS5_RKSS_RKSU_
00000000003d4ee2 W _ZN5Eigen8internal10get_factorIddE3runERKd
00000000003cbdcc W _ZN5Eigen8internal10member_sumIdEC1ERKS2_
00000000003cbd6e W _ZN5Eigen8internal10member_sumIdEC1Ev
00000000003cbdcc W _ZN5Eigen8internal10member_sumIdEC2ERKS2_
00000000003cbd6e W _ZN5Eigen8internal10member_sumIdEC2Ev
00000000003f41da W _ZN5Eigen8internal10redux_implINS0_13scalar_sum_opIddEENS0_15redux_evaluatorINS_12CwiseUnaryOpINS0_14scalar_abs2_opIdEEKNS_6MatrixIdLi3ELi1ELi0ELi3ELi1EEEEEEELi3ELi2EE3runERKSC_RKS3_
00000000003dc019 W _ZN5Eigen8internal10redux_implINS0_13scalar_sum_opIddEENS0_15redux_evaluatorINS_13CwiseBinaryOpINS0_17scalar_product_opIddEEKNS_9TransposeIKNS_7ProductINS5_IS7_KNS_14CwiseNullaryOpINS0_18scalar_constant_opIdEEKNS_6MatrixIdLi1ELin1ELi1ELi1ELin1EEEEEKNS8_IKNS5_INS0_20scalar_difference_opIddEEKNSD_IdLin1ELi1ELi0ELin1ELi1EEESL_EEEEEENS_15DiagonalWrapperISL_EELi1EEEEESN_EEEELi3ELi0EE3runERKSY_RKS3_
00000000003baafe W _ZN5Eigen8internal10redux_implINS0_13scalar_sum_opIddEENS0_15redux_evaluatorINS_13CwiseBinaryOpINS0_17scalar_product_opIddEEKNS_9TransposeIKNS8_INS_6MatrixIdLi3ELi1ELi0ELi3ELi1EEEEEEEKNS5_INS0_20scalar_difference_opIddEEKSA_KNS5_IS7_KNS_14CwiseNullaryOpINS0_18scalar_constant_opIdEESH_EESH_EEEEEEEELi3ELi2EE3runERKSS_RKS3_
00000000003bac7a W _ZN5Eigen8internal10redux_implINS0_13scalar_sum_opIddEENS0_15redux_evaluatorINS_13CwiseBinaryOpINS0_17scalar_product_opIddEEKNS_9TransposeIKNS8_INS_6MatrixIdLi3ELi1ELi0ELi3ELi1EEEEEEEKNS5_IS3_KSA_KNS5_IS7_KNS_14CwiseNullaryOpINS0_18scalar_constant_opIdEESF_EESF_EEEEEEEELi3ELi2EE3runERKSQ_RKS3_
00000000003ba982 W _ZN5Eigen8internal10redux_implINS0_13scalar_sum_opIddEENS0_15redux_evaluatorINS_13CwiseBinaryOpINS0_17scalar_product_opIddEEKNS_9TransposeIKNS8_INS_6MatrixIdLi3ELi1ELi0ELi3ELi1EEEEEEEKSA_EEEELi3ELi2EE3runERKSH_RKS3_
000000000036dabe W _ZN5Eigen8internal10redux_implINS0_13scalar_sum_opIddEENS0_15redux_evaluatorINS_6MatrixIdLin1ELi1ELi0ELin1ELi1EEEEELi3ELi0EE3runERKS7_RKS3_
0000000000396f36 W _ZN5Eigen8internal10redux_implINS0_13scalar_sum_opIiiEENS0_15redux_evaluatorINS_3MapIKNS_6MatrixIiLin1ELi1ELi0ELin1ELi1EEELi0ENS_6StrideILi0ELi0EEEEEEELi3ELi0EE3runERKSC_RKS3_
0000000000399d7c W _ZN5Eigen8internal10redux_implINS0_13scalar_sum_opIllEENS0_15redux_evaluatorINS_3MapIKNS_6MatrixIlLin1ELi1ELi0ELin1ELi1EEELi0ENS_6StrideILi0ELi0EEEEEEELi0ELi0EE3runERKSC_RKS3_
0000000000361aa3 W _ZN5Eigen8internal10smart_copyIdEEvPKT_S4_PS2_
000000000036ea16 W _ZN5Eigen8internal10smart_copyIiEEvPKT_S4_PS2_
0000000000399c34 W _ZN5Eigen8internal10smart_copyIlEEvPKT_S4_PS2_
00000000003d4ed0 W _ZN5Eigen8internal11blas_traitsINS_6MatrixIdLin1ELi1ELi0ELin1ELi1EEEE19extractScalarFactorERKS3_
00000000003d4eb0 W _ZN5Eigen8internal11blas_traitsINS_6MatrixIdLin1ELi1ELi0ELin1ELi1EEEE7extractERKS3_
00000000003d4ebe W _ZN5Eigen8internal11blas_traitsINS_6MatrixIdLin1ELin1ELi0ELin1ELin1EEEE19extractScalarFactorERKS3_
00000000003d4ea2 W _ZN5Eigen8internal11blas_traitsINS_6MatrixIdLin1ELin1ELi0ELin1ELin1EEEE7extractERKS3_
0000000000337262 W _ZN5Eigen8internal11noncopyableC1Ev
0000000000337262 W _ZN5Eigen8internal11noncopyableC2Ev
000000000033726e W _ZN5Eigen8internal11noncopyableD1Ev
000000000033726e W _ZN5Eigen8internal11noncopyableD2Ev
00000000003d7357 W _ZN5Eigen8internal11palign_implILi1EDv2_dE3runERS2_RKS2_
00000000003d7357 W _ZN5Eigen8internal11palign_implILi1EU8__vectordE3runERS2_RKS2_
00000000003d740e W _ZN5Eigen8internal11palign_implILi2EDv2_dE3runERS2_RKS2_
00000000003d740e W _ZN5Eigen8internal11palign_implILi2EU8__vectordE3runERS2_RKS2_
00000000003d741d W _ZN5Eigen8internal11palign_implILi3EDv2_dE3runERS2_RKS2_
00000000003d741d W _ZN5Eigen8internal11palign_implILi3EU8__vectordE3runERS2_RKS2_
00000000003ba866 W _ZN5Eigen8internal11plain_arrayIdLi1ELi0ELi0EEC1Ev
00000000003ba866 W _ZN5Eigen8internal11plain_arrayIdLi1ELi0ELi0EEC2Ev
00000000003b3802 W _ZN5Eigen8internal11plain_arrayIdLi2ELi0ELi16EEC1Ev
00000000003b3802 W _ZN5Eigen8internal11plain_arrayIdLi2ELi0ELi16EEC2Ev
000000000034259e W _ZN5Eigen8internal11plain_arrayIdLi3ELi0ELi0EEC1Ev
000000000034259e W _ZN5Eigen8internal11plain_arrayIdLi3ELi0ELi0EEC2Ev
0000000000423918 W _ZN5Eigen8internal11plain_arrayIdLi4ELi0ELi16EEC1Ev
0000000000423918 W _ZN5Eigen8internal11plain_arrayIdLi4ELi0ELi16EEC2Ev
0000000000392728 W _ZN5Eigen8internal11plain_arrayIdLi6ELi0ELi16EEC1Ev
0000000000392728 W _ZN5Eigen8internal11plain_arrayIdLi6ELi0ELi16EEC2Ev
0000000000344870 W _ZN5Eigen8internal11plain_arrayIdLi9ELi0ELi0EEC1Ev
0000000000344870 W _ZN5Eigen8internal11plain_arrayIdLi9ELi0ELi0EEC2Ev
000000000039d210 W _ZN5Eigen8internal11plain_arrayIiLi2ELi0ELi0EEC1Ev
000000000039d210 W _ZN5Eigen8internal11plain_arrayIiLi2ELi0ELi0EEC2Ev
0000000000337326 W _ZN5Eigen8internal12aligned_freeEPv
0000000000370684 W _ZN5Eigen8internal12scoped_arrayIdE3ptrEv
0000000000370538 W _ZN5Eigen8internal12scoped_arrayIdEC1El
0000000000370538 W _ZN5Eigen8internal12scoped_arrayIdEC2El
00000000003705a8 W _ZN5Eigen8internal12scoped_arrayIdED1Ev
00000000003705a8 W _ZN5Eigen8internal12scoped_arrayIdED2Ev
0000000000370692 W _ZN5Eigen8internal12scoped_arrayIiE3ptrEv
00000000003705de W _ZN5Eigen8internal12scoped_arrayIiEC1El
00000000003705de W _ZN5Eigen8internal12scoped_arrayIiEC2El
000000000037064e W _ZN5Eigen8internal12scoped_arrayIiED1Ev
000000000037064e W _ZN5Eigen8internal12scoped_arrayIiED2Ev
0000000000399c26 W _ZN5Eigen8internal12scoped_arrayIlE3ptrEv
0000000000399b80 W _ZN5Eigen8internal12scoped_arrayIlEC1El
0000000000399b80 W _ZN5Eigen8internal12scoped_arrayIlEC2El
0000000000399bf0 W _ZN5Eigen8internal12scoped_arrayIlED1Ev
0000000000399bf0 W _ZN5Eigen8internal12scoped_arrayIlED2Ev
000000000034a23a W _ZN5Eigen8internal13add_assign_opIddEC1Ev
000000000034a23a W _ZN5Eigen8internal13add_assign_opIddEC2Ev
000000000038d177 W _ZN5Eigen8internal13convert_indexIilEET_RKT0_
000000000039e38f W _ZN5Eigen8internal13convert_indexIllEET_RKT0_
0000000000371a9c W _ZN5Eigen8internal13first_alignedILi16EdlEET1_PKT0_S2_
0000000000373006 W _ZN5Eigen8internal13first_alignedILi16EilEET1_PKT0_S2_
000000000033d0fa W _ZN5Eigen8internal13scalar_sum_opIddEC1ERKS2_
000000000033cfe2 W _ZN5Eigen8internal13scalar_sum_opIddEC1Ev
000000000033d0fa W _ZN5Eigen8internal13scalar_sum_opIddEC2ERKS2_
000000000033cfe2 W _ZN5Eigen8internal13scalar_sum_opIddEC2Ev
0000000000386c62 W _ZN5Eigen8internal13scalar_sum_opIiiEC1Ev
0000000000386c62 W _ZN5Eigen8internal13scalar_sum_opIiiEC2Ev
0000000000397bc6 W _ZN5Eigen8internal13scalar_sum_opIllEC1Ev
0000000000397bc6 W _ZN5Eigen8internal13scalar_sum_opIllEC2Ev
000000000038cf7e W _ZN5Eigen8internal13smart_memmoveIdEEvPKT_S4_PS2_
000000000038cfac W _ZN5Eigen8internal13smart_memmoveIiEEvPKT_S4_PS2_
0000000000392f18 W _ZN5Eigen8internal13SparseRefBaseINS_3RefIKNS_12SparseMatrixIdLi1EiEELi0ENS_11OuterStrideILin1EEEEEE9constructIS4_EEvRT_
00000000003aeeca W _ZN5Eigen8internal13SparseRefBaseINS_3RefIKNS_12SparseMatrixIdLi1EiEELi0ENS_11OuterStrideILin1EEEEEE9constructIS5_EEvRT_
0000000000390cd4 W _ZN5Eigen8internal13SparseRefBaseINS_3RefIKNS_12SparseMatrixIdLi1EiEELi0ENS_11OuterStrideILin1EEEEEEC1Ev
0000000000390cd4 W _ZN5Eigen8internal13SparseRefBaseINS_3RefIKNS_12SparseMatrixIdLi1EiEELi0ENS_11OuterStrideILin1EEEEEEC2Ev
000000000038cd3c W _ZN5Eigen8internal13SparseRefBaseINS_3RefIKNS_12SparseMatrixIdLi1EiEELi0ENS_11OuterStrideILin1EEEEEED1Ev
000000000038cd3c W _ZN5Eigen8internal13SparseRefBaseINS_3RefIKNS_12SparseMatrixIdLi1EiEELi0ENS_11OuterStrideILin1EEEEEED2Ev
000000000036cfa2 W _ZN5Eigen8internal13sub_assign_opIddEC1Ev
000000000036cfa2 W _ZN5Eigen8internal13sub_assign_opIddEC2Ev
00000000003372ba W _ZN5Eigen8internal14aligned_mallocEm
000000000033cfd6 W _ZN5Eigen8internal14binary_op_baseIddEC1Ev
000000000033cfd6 W _ZN5Eigen8internal14binary_op_baseIddEC2Ev
0000000000386c56 W _ZN5Eigen8internal14binary_op_baseIiiEC1Ev
0000000000386c56 W _ZN5Eigen8internal14binary_op_baseIiiEC2Ev
0000000000397bba W _ZN5Eigen8internal14binary_op_baseIllEC1Ev
0000000000397bba W _ZN5Eigen8internal14binary_op_baseIllEC2Ev
000000000038fa9c W _ZN5Eigen8internal14evaluator_baseINS_10SparseViewINS_6MatrixIdLi3ELi3ELi0ELi3ELi3EEEEEEC1Ev
000000000038fa9c W _ZN5Eigen8internal14evaluator_baseINS_10SparseViewINS_6MatrixIdLi3ELi3ELi0ELi3ELi3EEEEEEC2Ev
0000000000386fba W _ZN5Eigen8internal14evaluator_baseINS_10SparseViewINS_6MatrixIdLi3ELi3ELi0ELi3ELi3EEEEEED1Ev
0000000000386fba W _ZN5Eigen8internal14evaluator_baseINS_10SparseViewINS_6MatrixIdLi3ELi3ELi0ELi3ELi3EEEEEED2Ev
000000000036f1ba W _ZN5Eigen8internal14evaluator_baseINS_10SparseViewINS_6MatrixIdLin1ELin1ELi0ELin1ELin1EEEEEEC1Ev
000000000036f1ba W _ZN5Eigen8internal14evaluator_baseINS_10SparseViewINS_6MatrixIdLin1ELin1ELi0ELin1ELin1EEEEEEC2Ev
000000000036d0b0 W _ZN5Eigen8internal14evaluator_baseINS_10SparseViewINS_6MatrixIdLin1ELin1ELi0ELin1ELin1EEEEEED1Ev
000000000036d0b0 W _ZN5Eigen8internal14evaluator_baseINS_10SparseViewINS_6MatrixIdLin1ELin1ELi0ELin1ELin1EEEEEED2Ev
00000000003a451a W _ZN5Eigen8internal14evaluator_baseINS_10SparseViewINS_9TransposeIKNS_6MatrixIdLi3ELi3ELi0ELi3ELi3EEEEEEEEC1Ev
00000000003a451a W _ZN5Eigen8internal14evaluator_baseINS_10SparseViewINS_9TransposeIKNS_6MatrixIdLi3ELi3ELi0ELi3ELi3EEEEEEEEC2Ev
00000000003a1860 W _ZN5Eigen8internal14evaluator_baseINS_10SparseViewINS_9TransposeIKNS_6MatrixIdLi3ELi3ELi0ELi3ELi3EEEEEEEED1Ev
00000000003a1860 W _ZN5Eigen8internal14evaluator_baseINS_10SparseViewINS_9TransposeIKNS_6MatrixIdLi3ELi3ELi0ELi3ELi3EEEEEEEED2Ev
0000000000423b72 W _ZN5Eigen8internal14evaluator_baseINS_10SparseViewINS_9TransposeIKNS_6MatrixIdLin1ELi1ELi0ELin1ELi1EEEEEEEEC1Ev
0000000000423b72 W _ZN5Eigen8internal14evaluator_baseINS_10SparseViewINS_9TransposeIKNS_6MatrixIdLin1ELi1ELi0ELin1ELi1EEEEEEEEC2Ev
000000000041fe66 W _ZN5Eigen8internal14evaluator_baseINS_10SparseViewINS_9TransposeIKNS_6MatrixIdLin1ELi1ELi0ELin1ELi1EEEEEEEED1Ev
000000000041fe66 W _ZN5Eigen8internal14evaluator_baseINS_10SparseViewINS_9TransposeIKNS_6MatrixIdLin1ELi1ELi0ELin1ELi1EEEEEEEED2Ev
00000000003daa8e W _ZN5Eigen8internal14evaluator_baseINS_10SparseViewINS_9TransposeINS_6MatrixIdLin1ELi1ELi0ELin1ELi1EEEEEEEEC1Ev
00000000003daa8e W _ZN5Eigen8internal14evaluator_baseINS_10SparseViewINS_9TransposeINS_6MatrixIdLin1ELi1ELi0ELin1ELi1EEEEEEEEC2Ev
00000000003d9f1e W _ZN5Eigen8internal14evaluator_baseINS_10SparseViewINS_9TransposeINS_6MatrixIdLin1ELi1ELi0ELin1ELi1EEEEEEEED1Ev
00000000003d9f1e W _ZN5Eigen8internal14evaluator_baseINS_10SparseViewINS_9TransposeINS_6MatrixIdLin1ELi1ELi0ELin1ELi1EEEEEEEED2Ev
00000000003d00c4 W _ZN5Eigen8internal14evaluator_baseINS_12ArrayWrapperINS_6MatrixIdLi3ELi3ELi0ELi3ELi3EEEEEEC1Ev
00000000003d00c4 W _ZN5Eigen8internal14evaluator_baseINS_12ArrayWrapperINS_6MatrixIdLi3ELi3ELi0ELi3ELi3EEEEEEC2Ev
00000000003cd6cc W _ZN5Eigen8internal14evaluator_baseINS_12ArrayWrapperINS_6MatrixIdLi3ELi3ELi0ELi3ELi3EEEEEED1Ev
00000000003cd6cc W _ZN5Eigen8internal14evaluator_baseINS_12ArrayWrapperINS_6MatrixIdLi3ELi3ELi0ELi3ELi3EEEEEED2Ev
00000000003f66e4 W _ZN5Eigen8internal14evaluator_baseINS_12CwiseUnaryOpINS0_14scalar_abs2_opIdEEKNS_6MatrixIdLi3ELi1ELi0ELi3ELi1EEEEEEC1Ev
00000000003f66e4 W _ZN5Eigen8internal14evaluator_baseINS_12CwiseUnaryOpINS0_14scalar_abs2_opIdEEKNS_6MatrixIdLi3ELi1ELi0ELi3ELi1EEEEEEC2Ev
00000000003f363e W _ZN5Eigen8internal14evaluator_baseINS_12CwiseUnaryOpINS0_14scalar_abs2_opIdEEKNS_6MatrixIdLi3ELi1ELi0ELi3ELi1EEEEEED1Ev
00000000003f363e W _ZN5Eigen8internal14evaluator_baseINS_12CwiseUnaryOpINS0_14scalar_abs2_opIdEEKNS_6MatrixIdLi3ELi1ELi0ELi3ELi1EEEEEED2Ev
000000000039aa32 W _ZN5Eigen8internal14evaluator_baseINS_12CwiseUnaryOpINS0_18scalar_opposite_opIdEEKNS_12SparseMatrixIdLi1EiEEEEEC1Ev
000000000039aa32 W _ZN5Eigen8internal14evaluator_baseINS_12CwiseUnaryOpINS0_18scalar_opposite_opIdEEKNS_12SparseMatrixIdLi1EiEEEEEC2Ev
0000000000395d72 W _ZN5Eigen8internal14evaluator_baseINS_12CwiseUnaryOpINS0_18scalar_opposite_opIdEEKNS_12SparseMatrixIdLi1EiEEEEED1Ev
0000000000395d72 W _ZN5Eigen8internal14evaluator_baseINS_12CwiseUnaryOpINS0_18scalar_opposite_opIdEEKNS_12SparseMatrixIdLi1EiEEEEED2Ev
0000000000405b48 W _ZN5Eigen8internal14evaluator_baseINS_12CwiseUnaryOpINS0_18scalar_opposite_opIdEEKNS_13CwiseBinaryOpINS0_13scalar_sum_opIddEEKNS5_INS0_17scalar_product_opIddEEKNS_14CwiseNullaryOpINS0_18scalar_constant_opIdEEKNS_6MatrixIdLin1ELi1ELi0ELin1ELi1EEEEEKNS5_INS0_20scalar_difference_opIddEESF_SF_EEEEKNS5_IS9_SH_KNS5_IS7_KNS5_IS9_SH_SF_EESF_EEEEEEEEEC1Ev
0000000000405b48 W _ZN5Eigen8internal14evaluator_baseINS_12CwiseUnaryOpINS0_18scalar_opposite_opIdEEKNS_13CwiseBinaryOpINS0_13scalar_sum_opIddEEKNS5_INS0_17scalar_product_opIddEEKNS_14CwiseNullaryOpINS0_18scalar_constant_opIdEEKNS_6MatrixIdLin1ELi1ELi0ELin1ELi1EEEEEKNS5_INS0_20scalar_difference_opIddEESF_SF_EEEEKNS5_IS9_SH_KNS5_IS7_KNS5_IS9_SH_SF_EESF_EEEEEEEEEC2Ev
00000000004039b2 W _ZN5Eigen8internal14evaluator_baseINS_12CwiseUnaryOpINS0_18scalar_opposite_opIdEEKNS_13CwiseBinaryOpINS0_13scalar_sum_opIddEEKNS5_INS0_17scalar_product_opIddEEKNS_14CwiseNullaryOpINS0_18scalar_constant_opIdEEKNS_6MatrixIdLin1ELi1ELi0ELin1ELi1EEEEEKNS5_INS0_20scalar_difference_opIddEESF_SF_EEEEKNS5_IS9_SH_KNS5_IS7_KNS5_IS9_SH_SF_EESF_EEEEEEEEED1Ev
00000000004039b2 W _ZN5Eigen8internal14evaluator_baseINS_12CwiseUnaryOpINS0_18scalar_opposite_opIdEEKNS_13CwiseBinaryOpINS0_13scalar_sum_opIddEEKNS5_INS0_17scalar_product_opIddEEKNS_14CwiseNullaryOpINS0_18scalar_constant_opIdEEKNS_6MatrixIdLin1ELi1ELi0ELin1ELi1EEEEEKNS5_INS0_20scalar_difference_opIddEESF_SF_EEEEKNS5_IS9_SH_KNS5_IS7_KNS5_IS9_SH_SF_EESF_EEEEEEEEED2Ev
00000000003cdc80 W _ZN5Eigen8internal14evaluator_baseINS_12CwiseUnaryOpINS0_18scalar_opposite_opIdEEKNS_6MatrixIdLi3ELi3ELi0ELi3ELi3EEEEEEC1Ev
00000000003cdc80 W _ZN5Eigen8internal14evaluator_baseINS_12CwiseUnaryOpINS0_18scalar_opposite_opIdEEKNS_6MatrixIdLi3ELi3ELi0ELi3ELi3EEEEEEC2Ev
00000000003cce56 W _ZN5Eigen8internal14evaluator_baseINS_12CwiseUnaryOpINS0_18scalar_opposite_opIdEEKNS_6MatrixIdLi3ELi3ELi0ELi3ELi3EEEEEED1Ev
00000000003cce56 W _ZN5Eigen8internal14evaluator_baseINS_12CwiseUnaryOpINS0_18scalar_opposite_opIdEEKNS_6MatrixIdLi3ELi3ELi0ELi3ELi3EEEEEED2Ev
0000000000392aea W _ZN5Eigen8internal14evaluator_baseINS_12SparseMatrixIdLi0EiEEEC1Ev
0000000000392aea W _ZN5Eigen8internal14evaluator_baseINS_12SparseMatrixIdLi0EiEEEC2Ev
000000000038c5aa W _ZN5Eigen8internal14evaluator_baseINS_12SparseMatrixIdLi0EiEEED1Ev
000000000038c5aa W _ZN5Eigen8internal14evaluator_baseINS_12SparseMatrixIdLi0EiEEED2Ev
00000000003a31aa W _ZN5Eigen8internal14evaluator_baseINS_12SparseMatrixIdLi0ElEEEC1Ev
00000000003a31aa W _ZN5Eigen8internal14evaluator_baseINS_12SparseMatrixIdLi0ElEEEC2Ev
00000000003a0106 W _ZN5Eigen8internal14evaluator_baseINS_12SparseMatrixIdLi0ElEEED1Ev
00000000003a0106 W _ZN5Eigen8internal14evaluator_baseINS_12SparseMatrixIdLi0ElEEED2Ev
0000000000351784 W _ZN5Eigen8internal14evaluator_baseINS_12SparseMatrixIdLi1EiEEEC1Ev
0000000000351784 W _ZN5Eigen8internal14evaluator_baseINS_12SparseMatrixIdLi1EiEEEC2Ev
000000000034f07c W _ZN5Eigen8internal14evaluator_baseINS_12SparseMatrixIdLi1EiEEED1Ev
000000000034f07c W _ZN5Eigen8internal14evaluator_baseINS_12SparseMatrixIdLi1EiEEED2Ev
0000000000392452 W _ZN5Eigen8internal14evaluator_baseINS_12SparseMatrixIdLi1ElEEEC1Ev
0000000000392452 W _ZN5Eigen8internal14evaluator_baseINS_12SparseMatrixIdLi1ElEEEC2Ev
000000000038bbc4 W _ZN5Eigen8internal14evaluator_baseINS_12SparseMatrixIdLi1ElEEED1Ev
000000000038bbc4 W _ZN5Eigen8internal14evaluator_baseINS_12SparseMatrixIdLi1ElEEED2Ev
0000000000425b9a W _ZN5Eigen8internal14evaluator_baseINS_12SparseVectorIdLi1EiEEEC1Ev
0000000000425b9a W _ZN5Eigen8internal14evaluator_baseINS_12SparseVectorIdLi1EiEEEC2Ev
000000000041de7e W _ZN5Eigen8internal14evaluator_baseINS_12SparseVectorIdLi1EiEEED1Ev
000000000041de7e W _ZN5Eigen8internal14evaluator_baseINS_12SparseVectorIdLi1EiEEED2Ev
0000000000392bf4 W _ZN5Eigen8internal14evaluator_baseINS_13CwiseBinaryOpINS0_13scalar_sum_opIddEEKNS_12SparseMatrixIdLi1EiEES7_EEEC1Ev
0000000000392bf4 W _ZN5Eigen8internal14evaluator_baseINS_13CwiseBinaryOpINS0_13scalar_sum_opIddEEKNS_12SparseMatrixIdLi1EiEES7_EEEC2Ev
000000000038caa4 W _ZN5Eigen8internal14evaluator_baseINS_13CwiseBinaryOpINS0_13scalar_sum_opIddEEKNS_12SparseMatrixIdLi1EiEES7_EEED1Ev
000000000038caa4 W _ZN5Eigen8internal14evaluator_baseINS_13CwiseBinaryOpINS0_13scalar_sum_opIddEEKNS_12SparseMatrixIdLi1EiEES7_EEED2Ev
000000000042c562 W _ZN5Eigen8internal14evaluator_baseINS_13CwiseBinaryOpINS0_13scalar_sum_opIddEEKNS2_INS0_17scalar_product_opIddEEKNS_14CwiseNullaryOpINS0_18scalar_constant_opIdEEKNS_6MatrixIdLi1ELin1ELi1ELi1ELin1EEEEEKNS_12SparseVectorIdLi1EiEEEESJ_EEEC1Ev
000000000042c562 W _ZN5Eigen8internal14evaluator_baseINS_13CwiseBinaryOpINS0_13scalar_sum_opIddEEKNS2_INS0_17scalar_product_opIddEEKNS_14CwiseNullaryOpINS0_18scalar_constant_opIdEEKNS_6MatrixIdLi1ELin1ELi1ELi1ELin1EEEEEKNS_12SparseVectorIdLi1EiEEEESJ_EEEC2Ev
000000000041eaf4 W _ZN5Eigen8internal14evaluator_baseINS_13CwiseBinaryOpINS0_13scalar_sum_opIddEEKNS2_INS0_17scalar_product_opIddEEKNS_14CwiseNullaryOpINS0_18scalar_constant_opIdEEKNS_6MatrixIdLi1ELin1ELi1ELi1ELin1EEEEEKNS_12SparseVectorIdLi1EiEEEESJ_EEED1Ev
000000000041eaf4 W _ZN5Eigen8internal14evaluator_baseINS_13CwiseBinaryOpINS0_13scalar_sum_opIddEEKNS2_INS0_17scalar_product_opIddEEKNS_14CwiseNullaryOpINS0_18scalar_constant_opIdEEKNS_6MatrixIdLi1ELin1ELi1ELi1ELin1EEEEEKNS_12SparseVectorIdLi1EiEEEESJ_EEED2Ev
0000000000406dcc W _ZN5Eigen8internal14evaluator_baseINS_13CwiseBinaryOpINS0_13scalar_sum_opIddEEKNS2_INS0_17scalar_product_opIddEEKNS_14CwiseNullaryOpINS0_18scalar_constant_opIdEEKNS_6MatrixIdLin1ELi1ELi0ELin1ELi1EEEEEKNS2_INS0_20scalar_difference_opIddEESC_SC_EEEEKNS2_IS6_SE_KNS2_IS4_KNS2_IS6_SE_SC_EESC_EEEEEEEC1Ev
0000000000406dcc W _ZN5Eigen8internal14evaluator_baseINS_13CwiseBinaryOpINS0_13scalar_sum_opIddEEKNS2_INS0_17scalar_product_opIddEEKNS_14CwiseNullaryOpINS0_18scalar_constant_opIdEEKNS_6MatrixIdLin1ELi1ELi0ELin1ELi1EEEEEKNS2_INS0_20scalar_difference_opIddEESC_SC_EEEEKNS2_IS6_SE_KNS2_IS4_KNS2_IS6_SE_SC_EESC_EEEEEEEC2Ev
00000000004039ce W _ZN5Eigen8internal14evaluator_baseINS_13CwiseBinaryOpINS0_13scalar_sum_opIddEEKNS2_INS0_17scalar_product_opIddEEKNS_14CwiseNullaryOpINS0_18scalar_constant_opIdEEKNS_6MatrixIdLin1ELi1ELi0ELin1ELi1EEEEEKNS2_INS0_20scalar_difference_opIddEESC_SC_EEEEKNS2_IS6_SE_KNS2_IS4_KNS2_IS6_SE_SC_EESC_EEEEEEED1Ev
00000000004039ce W _ZN5Eigen8internal14evaluator_baseINS_13CwiseBinaryOpINS0_13scalar_sum_opIddEEKNS2_INS0_17scalar_product_opIddEEKNS_14CwiseNullaryOpINS0_18scalar_constant_opIdEEKNS_6MatrixIdLin1ELi1ELi0ELin1ELi1EEEEEKNS2_INS0_20scalar_difference_opIddEESC_SC_EEEEKNS2_IS6_SE_KNS2_IS4_KNS2_IS6_SE_SC_EESC_EEEEEEED2Ev
0000000000405cdc W _ZN5Eigen8internal14evaluator_baseINS_13CwiseBinaryOpINS0_13scalar_sum_opIddEEKNS2_INS0_17scalar_product_opIddEEKNS_14CwiseNullaryOpINS0_18scalar_constant_opIdEEKNS_6MatrixIdLin1ELi1ELi0ELin1ELi1EEEEEKNS2_INS0_20scalar_difference_opIddEESC_SC_EEEEKNS2_IS6_SE_KNS2_IS4_SC_SC_EEEEEEEC1Ev
0000000000405cdc W _ZN5Eigen8internal14evaluator_baseINS_13CwiseBinaryOpINS0_13scalar_sum_opIddEEKNS2_INS0_17scalar_product_opIddEEKNS_14CwiseNullaryOpINS0_18scalar_constant_opIdEEKNS_6MatrixIdLin1ELi1ELi0ELin1ELi1EEEEEKNS2_INS0_20scalar_difference_opIddEESC_SC_EEEEKNS2_IS6_SE_KNS2_IS4_SC_SC_EEEEEEEC2Ev
0000000000403d28 W _ZN5Eigen8internal14evaluator_baseINS_13CwiseBinaryOpINS0_13scalar_sum_opIddEEKNS2_INS0_17scalar_product_opIddEEKNS_14CwiseNullaryOpINS0_18scalar_constant_opIdEEKNS_6MatrixIdLin1ELi1ELi0ELin1ELi1EEEEEKNS2_INS0_20scalar_difference_opIddEESC_SC_EEEEKNS2_IS6_SE_KNS2_IS4_SC_SC_EEEEEEED1Ev
0000000000403d28 W _ZN5Eigen8internal14evaluator_baseINS_13CwiseBinaryOpINS0_13scalar_sum_opIddEEKNS2_INS0_17scalar_product_opIddEEKNS_14CwiseNullaryOpINS0_18scalar_constant_opIdEEKNS_6MatrixIdLin1ELi1ELi0ELin1ELi1EEEEEKNS2_INS0_20scalar_difference_opIddEESC_SC_EEEEKNS2_IS6_SE_KNS2_IS4_SC_SC_EEEEEEED2Ev
0000000000407ab2 W _ZN5Eigen8internal14evaluator_baseINS_13CwiseBinaryOpINS0_13scalar_sum_opIddEEKNS2_INS0_17scalar_product_opIddEEKNS_14CwiseNullaryOpINS0_18scalar_constant_opIdEEKNS_6MatrixIdLin1ELi1ELi0ELin1ELi1EEEEESC_EESC_EEEC1Ev
0000000000407ab2 W _ZN5Eigen8internal14evaluator_baseINS_13CwiseBinaryOpINS0_13scalar_sum_opIddEEKNS2_INS0_17scalar_product_opIddEEKNS_14CwiseNullaryOpINS0_18scalar_constant_opIdEEKNS_6MatrixIdLin1ELi1ELi0ELin1ELi1EEEEESC_EESC_EEEC2Ev
00000000004030bc W _ZN5Eigen8internal14evaluator_baseINS_13CwiseBinaryOpINS0_13scalar_sum_opIddEEKNS2_INS0_17scalar_product_opIddEEKNS_14CwiseNullaryOpINS0_18scalar_constant_opIdEEKNS_6MatrixIdLin1ELi1ELi0ELin1ELi1EEEEESC_EESC_EEED1Ev
00000000004030bc W _ZN5Eigen8internal14evaluator_baseINS_13CwiseBinaryOpINS0_13scalar_sum_opIddEEKNS2_INS0_17scalar_product_opIddEEKNS_14CwiseNullaryOpINS0_18scalar_constant_opIdEEKNS_6MatrixIdLin1ELi1ELi0ELin1ELi1EEEEESC_EESC_EEED2Ev
00000000004079de W _ZN5Eigen8internal14evaluator_baseINS_13CwiseBinaryOpINS0_13scalar_sum_opIddEEKNS2_INS0_20scalar_difference_opIddEEKNS2_INS0_17scalar_product_opIddEEKNS_14CwiseNullaryOpINS0_18scalar_constant_opIdEEKNS_6MatrixIdLin1ELi1ELi0ELin1ELi1EEEEESE_EESI_EESI_EEEC1Ev
00000000004079de W _ZN5Eigen8internal14evaluator_baseINS_13CwiseBinaryOpINS0_13scalar_sum_opIddEEKNS2_INS0_20scalar_difference_opIddEEKNS2_INS0_17scalar_product_opIddEEKNS_14CwiseNullaryOpINS0_18scalar_constant_opIdEEKNS_6MatrixIdLin1ELi1ELi0ELin1ELi1EEEEESE_EESI_EESI_EEEC2Ev
00000000004032fc W _ZN5Eigen8internal14evaluator_baseINS_13CwiseBinaryOpINS0_13scalar_sum_opIddEEKNS2_INS0_20scalar_difference_opIddEEKNS2_INS0_17scalar_product_opIddEEKNS_14CwiseNullaryOpINS0_18scalar_constant_opIdEEKNS_6MatrixIdLin1ELi1ELi0ELin1ELi1EEEEESE_EESI_EESI_EEED1Ev
00000000004032fc W _ZN5Eigen8internal14evaluator_baseINS_13CwiseBinaryOpINS0_13scalar_sum_opIddEEKNS2_INS0_20scalar_difference_opIddEEKNS2_INS0_17scalar_product_opIddEEKNS_14CwiseNullaryOpINS0_18scalar_constant_opIdEEKNS_6MatrixIdLin1ELi1ELi0ELin1ELi1EEEEESE_EESI_EESI_EEED2Ev
00000000004265d0 W _ZN5Eigen8internal14evaluator_baseINS_13CwiseBinaryOpINS0_13scalar_sum_opIddEEKNS2_INS0_20scalar_difference_opIddEEKNS2_IS6_KNS2_INS0_17scalar_product_opIddEEKNS_14CwiseNullaryOpINS0_18scalar_constant_opIdEEKNS_6MatrixIdLi1ELin1ELi1ELi1ELin1EEEEEKNS_12SparseVectorIdLi1EiEEEESL_EESL_EESL_EEEC1Ev
00000000004265d0 W _ZN5Eigen8internal14evaluator_baseINS_13CwiseBinaryOpINS0_13scalar_sum_opIddEEKNS2_INS0_20scalar_difference_opIddEEKNS2_IS6_KNS2_INS0_17scalar_product_opIddEEKNS_14CwiseNullaryOpINS0_18scalar_constant_opIdEEKNS_6MatrixIdLi1ELin1ELi1ELi1ELin1EEEEEKNS_12SparseVectorIdLi1EiEEEESL_EESL_EESL_EEEC2Ev
000000000041e40a W _ZN5Eigen8internal14evaluator_baseINS_13CwiseBinaryOpINS0_13scalar_sum_opIddEEKNS2_INS0_20scalar_difference_opIddEEKNS2_IS6_KNS2_INS0_17scalar_product_opIddEEKNS_14CwiseNullaryOpINS0_18scalar_constant_opIdEEKNS_6MatrixIdLi1ELin1ELi1ELi1ELin1EEEEEKNS_12SparseVectorIdLi1EiEEEESL_EESL_EESL_EEED1Ev
000000000041e40a W _ZN5Eigen8internal14evaluator_baseINS_13CwiseBinaryOpINS0_13scalar_sum_opIddEEKNS2_INS0_20scalar_difference_opIddEEKNS2_IS6_KNS2_INS0_17scalar_product_opIddEEKNS_14CwiseNullaryOpINS0_18scalar_constant_opIdEEKNS_6MatrixIdLi1ELin1ELi1ELi1ELin1EEEEEKNS_12SparseVectorIdLi1EiEEEESL_EESL_EESL_EEED2Ev
00000000004046e2 W _ZN5Eigen8internal14evaluator_baseINS_13CwiseBinaryOpINS0_13scalar_sum_opIddEEKNS2_INS0_20scalar_difference_opIddEEKNS2_IS6_KNS2_INS0_18scalar_quotient_opIddEEKNS2_INS0_17scalar_product_opIddEEKNS_14CwiseNullaryOpINS0_18scalar_constant_opIdEEKNS_6MatrixIdLin1ELi1ELi0ELin1ELi1EEEEEKNS2_IS4_SG_SG_EEEESI_EEKNS2_IS8_KNS2_ISA_SI_KNS2_IS4_KNS2_ISA_SI_SG_EESG_EEEESI_EEEEKNS2_IS8_KNS2_ISA_SI_KNS2_IS4_KNS2_IS4_KNS2_IS6_SQ_SQ_EESQ_EESQ_EEEESI_EEEES18_EEEC1Ev
00000000004046e2 W _ZN5Eigen8internal14evaluator_baseINS_13CwiseBinaryOpINS0_13scalar_sum_opIddEEKNS2_INS0_20scalar_difference_opIddEEKNS2_IS6_KNS2_INS0_18scalar_quotient_opIddEEKNS2_INS0_17scalar_product_opIddEEKNS_14CwiseNullaryOpINS0_18scalar_constant_opIdEEKNS_6MatrixIdLin1ELi1ELi0ELin1ELi1EEEEEKNS2_IS4_SG_SG_EEEESI_EEKNS2_IS8_KNS2_ISA_SI_KNS2_IS4_KNS2_ISA_SI_SG_EESG_EEEESI_EEEEKNS2_IS8_KNS2_ISA_SI_KNS2_IS4_KNS2_IS4_KNS2_IS6_SQ_SQ_EESQ_EESQ_EEEESI_EEEES18_EEEC2Ev
0000000000402e80 W _ZN5Eigen8internal14evaluator_baseINS_13CwiseBinaryOpINS0_13scalar_sum_opIddEEKNS2_INS0_20scalar_difference_opIddEEKNS2_IS6_KNS2_INS0_18scalar_quotient_opIddEEKNS2_INS0_17scalar_product_opIddEEKNS_14CwiseNullaryOpINS0_18scalar_constant_opIdEEKNS_6MatrixIdLin1ELi1ELi0ELin1ELi1EEEEEKNS2_IS4_SG_SG_EEEESI_EEKNS2_IS8_KNS2_ISA_SI_KNS2_IS4_KNS2_ISA_SI_SG_EESG_EEEESI_EEEEKNS2_IS8_KNS2_ISA_SI_KNS2_IS4_KNS2_IS4_KNS2_IS6_SQ_SQ_EESQ_EESQ_EEEESI_EEEES18_EEED1Ev
0000000000402e80 W _ZN5Eigen8internal14evaluator_baseINS_13CwiseBinaryOpINS0_13scalar_sum_opIddEEKNS2_INS0_20scalar_difference_opIddEEKNS2_IS6_KNS2_INS0_18scalar_quotient_opIddEEKNS2_INS0_17scalar_product_opIddEEKNS_14CwiseNullaryOpINS0_18scalar_constant_opIdEEKNS_6MatrixIdLin1ELi1ELi0ELin1ELi1EEEEEKNS2_IS4_SG_SG_EEEESI_EEKNS2_IS8_KNS2_ISA_SI_KNS2_IS4_KNS2_ISA_SI_SG_EESG_EEEESI_EEEEKNS2_IS8_KNS2_ISA_SI_KNS2_IS4_KNS2_IS4_KNS2_IS6_SQ_SQ_EESQ_EESQ_EEEESI_EEEES18_EEED2Ev
0000000000422d92 W _ZN5Eigen8internal14evaluator_baseINS_13CwiseBinaryOpINS0_13scalar_sum_opIddEEKNS2_INS0_20scalar_difference_opIddEEKNS2_IS6_KNS2_IS4_KNS2_INS0_17scalar_product_opIddEEKNS_14CwiseNullaryOpINS0_18scalar_constant_opIdEEKNS_6MatrixIdLi1ELin1ELi1ELi1ELin1EEEEEKNS_12SparseVectorIdLi1EiEEEESL_EESL_EESL_EESL_EEEC1Ev
0000000000422d92 W _ZN5Eigen8internal14evaluator_baseINS_13CwiseBinaryOpINS0_13scalar_sum_opIddEEKNS2_INS0_20scalar_difference_opIddEEKNS2_IS6_KNS2_IS4_KNS2_INS0_17scalar_product_opIddEEKNS_14CwiseNullaryOpINS0_18scalar_constant_opIdEEKNS_6MatrixIdLi1ELin1ELi1ELi1ELin1EEEEEKNS_12SparseVectorIdLi1EiEEEESL_EESL_EESL_EESL_EEEC2Ev
000000000041eaa0 W _ZN5Eigen8internal14evaluator_baseINS_13CwiseBinaryOpINS0_13scalar_sum_opIddEEKNS2_INS0_20scalar_difference_opIddEEKNS2_IS6_KNS2_IS4_KNS2_INS0_17scalar_product_opIddEEKNS_14CwiseNullaryOpINS0_18scalar_constant_opIdEEKNS_6MatrixIdLi1ELin1ELi1ELi1ELin1EEEEEKNS_12SparseVectorIdLi1EiEEEESL_EESL_EESL_EESL_EEED1Ev
000000000041eaa0 W _ZN5Eigen8internal14evaluator_baseINS_13CwiseBinaryOpINS0_13scalar_sum_opIddEEKNS2_INS0_20scalar_difference_opIddEEKNS2_IS6_KNS2_IS4_KNS2_INS0_17scalar_product_opIddEEKNS_14CwiseNullaryOpINS0_18scalar_constant_opIdEEKNS_6MatrixIdLi1ELin1ELi1ELi1ELin1EEEEEKNS_12SparseVectorIdLi1EiEEEESL_EESL_EESL_EESL_EEED2Ev
000000000042ab5c W _ZN5Eigen8internal14evaluator_baseINS_13CwiseBinaryOpINS0_13scalar_sum_opIddEEKNS2_INS0_20scalar_difference_opIddEEKNS2_IS6_KNS2_IS6_KNS2_IS6_KNS2_INS0_17scalar_product_opIddEEKNS_14CwiseNullaryOpINS0_18scalar_constant_opIdEEKNS_6MatrixIdLi1ELin1ELi1ELi1ELin1EEEEEKNS_12SparseVectorIdLi1EiEEEESL_EESL_EESL_EESL_EEKNS2_IS8_SL_SG_EEEEEC1Ev
000000000042ab5c W _ZN5Eigen8internal14evaluator_baseINS_13CwiseBinaryOpINS0_13scalar_sum_opIddEEKNS2_INS0_20scalar_difference_opIddEEKNS2_IS6_KNS2_IS6_KNS2_IS6_KNS2_INS0_17scalar_product_opIddEEKNS_14CwiseNullaryOpINS0_18scalar_constant_opIdEEKNS_6MatrixIdLi1ELin1ELi1ELi1ELin1EEEEEKNS_12SparseVectorIdLi1EiEEEESL_EESL_EESL_EESL_EEKNS2_IS8_SL_SG_EEEEEC2Ev
00000000004280a4 W _ZN5Eigen8internal14evaluator_baseINS_13CwiseBinaryOpINS0_13scalar_sum_opIddEEKNS2_INS0_20scalar_difference_opIddEEKNS2_IS6_KNS2_IS6_KNS2_IS6_KNS2_INS0_17scalar_product_opIddEEKNS_14CwiseNullaryOpINS0_18scalar_constant_opIdEEKNS_6MatrixIdLi1ELin1ELi1ELi1ELin1EEEEEKNS_12SparseVectorIdLi1EiEEEESL_EESL_EESL_EESL_EEKNS2_IS8_SL_SG_EEEEED1Ev
00000000004280a4 W _ZN5Eigen8internal14evaluator_baseINS_13CwiseBinaryOpINS0_13scalar_sum_opIddEEKNS2_INS0_20scalar_difference_opIddEEKNS2_IS6_KNS2_IS6_KNS2_IS6_KNS2_INS0_17scalar_product_opIddEEKNS_14CwiseNullaryOpINS0_18scalar_constant_opIdEEKNS_6MatrixIdLi1ELin1ELi1ELi1ELin1EEEEEKNS_12SparseVectorIdLi1EiEEEESL_EESL_EESL_EESL_EEKNS2_IS8_SL_SG_EEEEED2Ev
000000000039ad96 W _ZN5Eigen8internal14evaluator_baseINS_13CwiseBinaryOpINS0_13scalar_sum_opIddEEKNS2_IS4_KNS_12SparseMatrixIdLi1EiEES7_EES7_EEEC1Ev
000000000039ad96 W _ZN5Eigen8internal14evaluator_baseINS_13CwiseBinaryOpINS0_13scalar_sum_opIddEEKNS2_IS4_KNS_12SparseMatrixIdLi1EiEES7_EES7_EEEC2Ev
000000000039669c W _ZN5Eigen8internal14evaluator_baseINS_13CwiseBinaryOpINS0_13scalar_sum_opIddEEKNS2_IS4_KNS_12SparseMatrixIdLi1EiEES7_EES7_EEED1Ev
000000000039669c W _ZN5Eigen8internal14evaluator_baseINS_13CwiseBinaryOpINS0_13scalar_sum_opIddEEKNS2_IS4_KNS_12SparseMatrixIdLi1EiEES7_EES7_EEED2Ev
00000000004075b4 W _ZN5Eigen8internal14evaluator_baseINS_13CwiseBinaryOpINS0_13scalar_sum_opIddEEKNS2_IS4_KNS2_INS0_20scalar_difference_opIddEEKNS2_INS0_17scalar_product_opIddEEKNS_14CwiseNullaryOpINS0_18scalar_constant_opIdEEKNS_6MatrixIdLin1ELi1ELi0ELin1ELi1EEEEESE_EESI_EESI_EESI_EEEC1Ev
00000000004075b4 W _ZN5Eigen8internal14evaluator_baseINS_13CwiseBinaryOpINS0_13scalar_sum_opIddEEKNS2_IS4_KNS2_INS0_20scalar_difference_opIddEEKNS2_INS0_17scalar_product_opIddEEKNS_14CwiseNullaryOpINS0_18scalar_constant_opIdEEKNS_6MatrixIdLin1ELi1ELi0ELin1ELi1EEEEESE_EESI_EESI_EESI_EEEC2Ev
00000000004032e0 W _ZN5Eigen8internal14evaluator_baseINS_13CwiseBinaryOpINS0_13scalar_sum_opIddEEKNS2_IS4_KNS2_INS0_20scalar_difference_opIddEEKNS2_INS0_17scalar_product_opIddEEKNS_14CwiseNullaryOpINS0_18scalar_constant_opIdEEKNS_6MatrixIdLin1ELi1ELi0ELin1ELi1EEEEESE_EESI_EESI_EESI_EEED1Ev
00000000004032e0 W _ZN5Eigen8internal14evaluator_baseINS_13CwiseBinaryOpINS0_13scalar_sum_opIddEEKNS2_IS4_KNS2_INS0_20scalar_difference_opIddEEKNS2_INS0_17scalar_product_opIddEEKNS_14CwiseNullaryOpINS0_18scalar_constant_opIdEEKNS_6MatrixIdLin1ELi1ELi0ELin1ELi1EEEEESE_EESI_EESI_EESI_EEED2Ev
00000000004227fa W _ZN5Eigen8internal14evaluator_baseINS_13CwiseBinaryOpINS0_13scalar_sum_opIddEEKNS2_IS4_KNS2_INS0_20scalar_difference_opIddEEKNS2_IS6_KNS2_INS0_17scalar_product_opIddEEKNS_14CwiseNullaryOpINS0_18scalar_constant_opIdEEKNS_6MatrixIdLi1ELin1ELi1ELi1ELin1EEEEEKNS_12SparseVectorIdLi1EiEEEESL_EESL_EESL_EESL_EEEC1Ev
00000000004227fa W _ZN5Eigen8internal14evaluator_baseINS_13CwiseBinaryOpINS0_13scalar_sum_opIddEEKNS2_IS4_KNS2_INS0_20scalar_difference_opIddEEKNS2_IS6_KNS2_INS0_17scalar_product_opIddEEKNS_14CwiseNullaryOpINS0_18scalar_constant_opIdEEKNS_6MatrixIdLi1ELin1ELi1ELi1ELin1EEEEEKNS_12SparseVectorIdLi1EiEEEESL_EESL_EESL_EESL_EEEC2Ev
000000000041e3ee W _ZN5Eigen8internal14evaluator_baseINS_13CwiseBinaryOpINS0_13scalar_sum_opIddEEKNS2_IS4_KNS2_INS0_20scalar_difference_opIddEEKNS2_IS6_KNS2_INS0_17scalar_product_opIddEEKNS_14CwiseNullaryOpINS0_18scalar_constant_opIdEEKNS_6MatrixIdLi1ELin1ELi1ELi1ELin1EEEEEKNS_12SparseVectorIdLi1EiEEEESL_EESL_EESL_EESL_EEED1Ev
000000000041e3ee W _ZN5Eigen8internal14evaluator_baseINS_13CwiseBinaryOpINS0_13scalar_sum_opIddEEKNS2_IS4_KNS2_INS0_20scalar_difference_opIddEEKNS2_IS6_KNS2_INS0_17scalar_product_opIddEEKNS_14CwiseNullaryOpINS0_18scalar_constant_opIdEEKNS_6MatrixIdLi1ELin1ELi1ELi1ELin1EEEEEKNS_12SparseVectorIdLi1EiEEEESL_EESL_EESL_EESL_EEED2Ev
000000000042a1a4 W _ZN5Eigen8internal14evaluator_baseINS_13CwiseBinaryOpINS0_13scalar_sum_opIddEEKNS2_IS4_KNS2_IS4_KNS_7ProductINS_12SparseVectorIdLi1EiEENS_12SparseMatrixIdLi1EiEELi2EEEKNS5_INS_5BlockIS9_Li1ELin1ELb1EEES9_Li2EEEEESB_EESF_EEEC1Ev
000000000042a1a4 W _ZN5Eigen8internal14evaluator_baseINS_13CwiseBinaryOpINS0_13scalar_sum_opIddEEKNS2_IS4_KNS2_IS4_KNS_7ProductINS_12SparseVectorIdLi1EiEENS_12SparseMatrixIdLi1EiEELi2EEEKNS5_INS_5BlockIS9_Li1ELin1ELb1EEES9_Li2EEEEESB_EESF_EEEC2Ev
000000000042720e W _ZN5Eigen8internal14evaluator_baseINS_13CwiseBinaryOpINS0_13scalar_sum_opIddEEKNS2_IS4_KNS2_IS4_KNS_7ProductINS_12SparseVectorIdLi1EiEENS_12SparseMatrixIdLi1EiEELi2EEEKNS5_INS_5BlockIS9_Li1ELin1ELb1EEES9_Li2EEEEESB_EESF_EEED1Ev
000000000042720e W _ZN5Eigen8internal14evaluator_baseINS_13CwiseBinaryOpINS0_13scalar_sum_opIddEEKNS2_IS4_KNS2_IS4_KNS_7ProductINS_12SparseVectorIdLi1EiEENS_12SparseMatrixIdLi1EiEELi2EEEKNS5_INS_5BlockIS9_Li1ELin1ELb1EEES9_Li2EEEEESB_EESF_EEED2Ev
000000000042c48c W _ZN5Eigen8internal14evaluator_baseINS_13CwiseBinaryOpINS0_13scalar_sum_opIddEEKNS2_IS4_KNS_7ProductINS_12SparseVectorIdLi1EiEENS_12SparseMatrixIdLi1EiEELi2EEEKNS5_INS_5BlockIS9_Li1ELin1ELb1EEES9_Li2EEEEESB_EEEC1Ev
000000000042c48c W _ZN5Eigen8internal14evaluator_baseINS_13CwiseBinaryOpINS0_13scalar_sum_opIddEEKNS2_IS4_KNS_7ProductINS_12SparseVectorIdLi1EiEENS_12SparseMatrixIdLi1EiEELi2EEEKNS5_INS_5BlockIS9_Li1ELin1ELb1EEES9_Li2EEEEESB_EEEC2Ev
000000000042722a W _ZN5Eigen8internal14evaluator_baseINS_13CwiseBinaryOpINS0_13scalar_sum_opIddEEKNS2_IS4_KNS_7ProductINS_12SparseVectorIdLi1EiEENS_12SparseMatrixIdLi1EiEELi2EEEKNS5_INS_5BlockIS9_Li1ELin1ELb1EEES9_Li2EEEEESB_EEED1Ev
000000000042722a W _ZN5Eigen8internal14evaluator_baseINS_13CwiseBinaryOpINS0_13scalar_sum_opIddEEKNS2_IS4_KNS_7ProductINS_12SparseVectorIdLi1EiEENS_12SparseMatrixIdLi1EiEELi2EEEKNS5_INS_5BlockIS9_Li1ELin1ELb1EEES9_Li2EEEEESB_EEED2Ev
000000000042b7fc W _ZN5Eigen8internal14evaluator_baseINS_13CwiseBinaryOpINS0_13scalar_sum_opIddEEKNS_5BlockINS_12SparseMatrixIdLi1EiEELi1ELin1ELb1EEEKNS2_INS0_17scalar_product_opIddEEKNS_14CwiseNullaryOpINS0_18scalar_constant_opIdEEKNS_6MatrixIdLi1ELin1ELi1ELi1ELin1EEEEEKNS_12SparseVectorIdLi1EiEEEEEEEC1Ev
000000000042b7fc W _ZN5Eigen8internal14evaluator_baseINS_13CwiseBinaryOpINS0_13scalar_sum_opIddEEKNS_5BlockINS_12SparseMatrixIdLi1EiEELi1ELin1ELb1EEEKNS2_INS0_17scalar_product_opIddEEKNS_14CwiseNullaryOpINS0_18scalar_constant_opIdEEKNS_6MatrixIdLi1ELin1ELi1ELi1ELin1EEEEEKNS_12SparseVectorIdLi1EiEEEEEEEC2Ev
000000000042921c W _ZN5Eigen8internal14evaluator_baseINS_13CwiseBinaryOpINS0_13scalar_sum_opIddEEKNS_5BlockINS_12SparseMatrixIdLi1EiEELi1ELin1ELb1EEEKNS2_INS0_17scalar_product_opIddEEKNS_14CwiseNullaryOpINS0_18scalar_constant_opIdEEKNS_6MatrixIdLi1ELin1ELi1ELi1ELin1EEEEEKNS_12SparseVectorIdLi1EiEEEEEEED1Ev
000000000042921c W _ZN5Eigen8internal14evaluator_baseINS_13CwiseBinaryOpINS0_13scalar_sum_opIddEEKNS_5BlockINS_12SparseMatrixIdLi1EiEELi1ELin1ELb1EEEKNS2_INS0_17scalar_product_opIddEEKNS_14CwiseNullaryOpINS0_18scalar_constant_opIdEEKNS_6MatrixIdLi1ELin1ELi1ELi1ELin1EEEEEKNS_12SparseVectorIdLi1EiEEEEEEED2Ev
00000000003b4db0 W _ZN5Eigen8internal14evaluator_baseINS_13CwiseBinaryOpINS0_13scalar_sum_opIddEEKNS_6MatrixIdLi2ELi1ELi0ELi2ELi1EEEKNS2_INS0_17scalar_product_opIddEEKNS_14CwiseNullaryOpINS0_18scalar_constant_opIdEES7_EES7_EEEEEC1Ev
00000000003b4db0 W _ZN5Eigen8internal14evaluator_baseINS_13CwiseBinaryOpINS0_13scalar_sum_opIddEEKNS_6MatrixIdLi2ELi1ELi0ELi2ELi1EEEKNS2_INS0_17scalar_product_opIddEEKNS_14CwiseNullaryOpINS0_18scalar_constant_opIdEES7_EES7_EEEEEC2Ev
00000000003b422c W _ZN5Eigen8internal14evaluator_baseINS_13CwiseBinaryOpINS0_13scalar_sum_opIddEEKNS_6MatrixIdLi2ELi1ELi0ELi2ELi1EEEKNS2_INS0_17scalar_product_opIddEEKNS_14CwiseNullaryOpINS0_18scalar_constant_opIdEES7_EES7_EEEEED1Ev
00000000003b422c W _ZN5Eigen8internal14evaluator_baseINS_13CwiseBinaryOpINS0_13scalar_sum_opIddEEKNS_6MatrixIdLi2ELi1ELi0ELi2ELi1EEEKNS2_INS0_17scalar_product_opIddEEKNS_14CwiseNullaryOpINS0_18scalar_constant_opIdEES7_EES7_EEEEED2Ev
00000000003bbfea W _ZN5Eigen8internal14evaluator_baseINS_13CwiseBinaryOpINS0_13scalar_sum_opIddEEKNS_6MatrixIdLi3ELi1ELi0ELi3ELi1EEEKNS2_INS0_17scalar_product_opIddEEKNS_14CwiseNullaryOpINS0_18scalar_constant_opIdEES7_EES7_EEEEEC1Ev
00000000003bbfea W _ZN5Eigen8internal14evaluator_baseINS_13CwiseBinaryOpINS0_13scalar_sum_opIddEEKNS_6MatrixIdLi3ELi1ELi0ELi3ELi1EEEKNS2_INS0_17scalar_product_opIddEEKNS_14CwiseNullaryOpINS0_18scalar_constant_opIdEES7_EES7_EEEEEC2Ev
00000000003ba5d8 W _ZN5Eigen8internal14evaluator_baseINS_13CwiseBinaryOpINS0_13scalar_sum_opIddEEKNS_6MatrixIdLi3ELi1ELi0ELi3ELi1EEEKNS2_INS0_17scalar_product_opIddEEKNS_14CwiseNullaryOpINS0_18scalar_constant_opIdEES7_EES7_EEEEED1Ev
00000000003ba5d8 W _ZN5Eigen8internal14evaluator_baseINS_13CwiseBinaryOpINS0_13scalar_sum_opIddEEKNS_6MatrixIdLi3ELi1ELi0ELi3ELi1EEEKNS2_INS0_17scalar_product_opIddEEKNS_14CwiseNullaryOpINS0_18scalar_constant_opIdEES7_EES7_EEEEED2Ev
0000000000360cde W _ZN5Eigen8internal14evaluator_baseINS_13CwiseBinaryOpINS0_13scalar_sum_opIddEEKNS_6MatrixIdLin1ELi1ELi0ELin1ELi1EEEKNS2_INS0_17scalar_product_opIddEEKNS_14CwiseNullaryOpINS0_18scalar_constant_opIdEES7_EES7_EEEEEC1Ev
0000000000360cde W _ZN5Eigen8internal14evaluator_baseINS_13CwiseBinaryOpINS0_13scalar_sum_opIddEEKNS_6MatrixIdLin1ELi1ELi0ELin1ELi1EEEKNS2_INS0_17scalar_product_opIddEEKNS_14CwiseNullaryOpINS0_18scalar_constant_opIdEES7_EES7_EEEEEC2Ev
000000000035fe24 W _ZN5Eigen8internal14evaluator_baseINS_13CwiseBinaryOpINS0_13scalar_sum_opIddEEKNS_6MatrixIdLin1ELi1ELi0ELin1ELi1EEEKNS2_INS0_17scalar_product_opIddEEKNS_14CwiseNullaryOpINS0_18scalar_constant_opIdEES7_EES7_EEEEED1Ev
000000000035fe24 W _ZN5Eigen8internal14evaluator_baseINS_13CwiseBinaryOpINS0_13scalar_sum_opIddEEKNS_6MatrixIdLin1ELi1ELi0ELin1ELi1EEEKNS2_INS0_17scalar_product_opIddEEKNS_14CwiseNullaryOpINS0_18scalar_constant_opIdEES7_EES7_EEEEED2Ev
000000000040775e W _ZN5Eigen8internal14evaluator_baseINS_13CwiseBinaryOpINS0_13scalar_sum_opIddEEKNS_6MatrixIdLin1ELi1ELi0ELin1ELi1EEES7_EEEC1Ev
000000000040775e W _ZN5Eigen8internal14evaluator_baseINS_13CwiseBinaryOpINS0_13scalar_sum_opIddEEKNS_6MatrixIdLin1ELi1ELi0ELin1ELi1EEES7_EEEC2Ev
0000000000402f0c W _ZN5Eigen8internal14evaluator_baseINS_13CwiseBinaryOpINS0_13scalar_sum_opIddEEKNS_6MatrixIdLin1ELi1ELi0ELin1ELi1EEES7_EEED1Ev
0000000000402f0c W _ZN5Eigen8internal14evaluator_baseINS_13CwiseBinaryOpINS0_13scalar_sum_opIddEEKNS_6MatrixIdLin1ELi1ELi0ELin1ELi1EEES7_EEED2Ev
00000000003a0786 W _ZN5Eigen8internal14evaluator_baseINS_13CwiseBinaryOpINS0_13scalar_sum_opIddEEKNS_7ProductINS_12SparseMatrixIdLi1EiEENS_6MatrixIdLi3ELi1ELi0ELi3ELi1EEELi0EEEKNS5_IS7_SA_Li0EEEEEEC1Ev
00000000003a0786 W _ZN5Eigen8internal14evaluator_baseINS_13CwiseBinaryOpINS0_13scalar_sum_opIddEEKNS_7ProductINS_12SparseMatrixIdLi1EiEENS_6MatrixIdLi3ELi1ELi0ELi3ELi1EEELi0EEEKNS5_IS7_SA_Li0EEEEEEC2Ev
0000000000397e38 W _ZN5Eigen8internal14evaluator_baseINS_13CwiseBinaryOpINS0_13scalar_sum_opIddEEKNS_7ProductINS_12SparseMatrixIdLi1EiEENS_6MatrixIdLi3ELi1ELi0ELi3ELi1EEELi0EEEKNS5_IS7_SA_Li0EEEEEED1Ev
0000000000397e38 W _ZN5Eigen8internal14evaluator_baseINS_13CwiseBinaryOpINS0_13scalar_sum_opIddEEKNS_7ProductINS_12SparseMatrixIdLi1EiEENS_6MatrixIdLi3ELi1ELi0ELi3ELi1EEELi0EEEKNS5_IS7_SA_Li0EEEEEED2Ev
000000000042636a W _ZN5Eigen8internal14evaluator_baseINS_13CwiseBinaryOpINS0_13scalar_sum_opIddEEKNS_7ProductINS_12SparseVectorIdLi1EiEENS_12SparseMatrixIdLi1EiEELi2EEEKNS5_INS_5BlockIS9_Li1ELin1ELb1EEES9_Li2EEEEEEC1Ev
000000000042636a W _ZN5Eigen8internal14evaluator_baseINS_13CwiseBinaryOpINS0_13scalar_sum_opIddEEKNS_7ProductINS_12SparseVectorIdLi1EiEENS_12SparseMatrixIdLi1EiEELi2EEEKNS5_INS_5BlockIS9_Li1ELin1ELb1EEES9_Li2EEEEEEC2Ev
0000000000423da6 W _ZN5Eigen8internal14evaluator_baseINS_13CwiseBinaryOpINS0_13scalar_sum_opIddEEKNS_7ProductINS_12SparseVectorIdLi1EiEENS_12SparseMatrixIdLi1EiEELi2EEEKNS5_INS_5BlockIS9_Li1ELin1ELb1EEES9_Li2EEEEEED1Ev
0000000000423da6 W _ZN5Eigen8internal14evaluator_baseINS_13CwiseBinaryOpINS0_13scalar_sum_opIddEEKNS_7ProductINS_12SparseVectorIdLi1EiEENS_12SparseMatrixIdLi1EiEELi2EEEKNS5_INS_5BlockIS9_Li1ELin1ELb1EEES9_Li2EEEEEED2Ev
00000000003cec2a W _ZN5Eigen8internal14evaluator_baseINS_13CwiseBinaryOpINS0_17scalar_product_opIddEEKNS_12ArrayWrapperINS_6MatrixIdLi3ELi3ELi0ELi3ELi3EEEEES9_EEEC1Ev
00000000003cec2a W _ZN5Eigen8internal14evaluator_baseINS_13CwiseBinaryOpINS0_17scalar_product_opIddEEKNS_12ArrayWrapperINS_6MatrixIdLi3ELi3ELi0ELi3ELi3EEEEES9_EEEC2Ev
00000000003cd6b0 W _ZN5Eigen8internal14evaluator_baseINS_13CwiseBinaryOpINS0_17scalar_product_opIddEEKNS_12ArrayWrapperINS_6MatrixIdLi3ELi3ELi0ELi3ELi3EEEEES9_EEED1Ev
00000000003cd6b0 W _ZN5Eigen8internal14evaluator_baseINS_13CwiseBinaryOpINS0_17scalar_product_opIddEEKNS_12ArrayWrapperINS_6MatrixIdLi3ELi3ELi0ELi3ELi3EEEEES9_EEED2Ev
00000000003ab028 W _ZN5Eigen8internal14evaluator_baseINS_13CwiseBinaryOpINS0_17scalar_product_opIddEEKNS_14CwiseNullaryOpINS0_18scalar_constant_opIdEEKNS_6MatrixIdLi1ELi3ELi1ELi1ELi3EEEEEKNS_5BlockIKNS_9TransposeIKNS8_IdLi3ELi3ELi0ELi3ELi3EEEEELi1ELi3ELb1EEEEEEC1Ev
00000000003ab028 W _ZN5Eigen8internal14evaluator_baseINS_13CwiseBinaryOpINS0_17scalar_product_opIddEEKNS_14CwiseNullaryOpINS0_18scalar_constant_opIdEEKNS_6MatrixIdLi1ELi3ELi1ELi1ELi3EEEEEKNS_5BlockIKNS_9TransposeIKNS8_IdLi3ELi3ELi0ELi3ELi3EEEEELi1ELi3ELb1EEEEEEC2Ev
00000000003aa632 W _ZN5Eigen8internal14evaluator_baseINS_13CwiseBinaryOpINS0_17scalar_product_opIddEEKNS_14CwiseNullaryOpINS0_18scalar_constant_opIdEEKNS_6MatrixIdLi1ELi3ELi1ELi1ELi3EEEEEKNS_5BlockIKNS_9TransposeIKNS8_IdLi3ELi3ELi0ELi3ELi3EEEEELi1ELi3ELb1EEEEEED1Ev
00000000003aa632 W _ZN5Eigen8internal14evaluator_baseINS_13CwiseBinaryOpINS0_17scalar_product_opIddEEKNS_14CwiseNullaryOpINS0_18scalar_constant_opIdEEKNS_6MatrixIdLi1ELi3ELi1ELi1ELi3EEEEEKNS_5BlockIKNS_9TransposeIKNS8_IdLi3ELi3ELi0ELi3ELi3EEEEELi1ELi3ELb1EEEEEED2Ev
00000000004249d4 W _ZN5Eigen8internal14evaluator_baseINS_13CwiseBinaryOpINS0_17scalar_product_opIddEEKNS_14CwiseNullaryOpINS0_18scalar_constant_opIdEEKNS_6MatrixIdLi1ELin1ELi1ELi1ELin1EEEEEKNS_12SparseVectorIdLi1EiEEEEEC1Ev
00000000004249d4 W _ZN5Eigen8internal14evaluator_baseINS_13CwiseBinaryOpINS0_17scalar_product_opIddEEKNS_14CwiseNullaryOpINS0_18scalar_constant_opIdEEKNS_6MatrixIdLi1ELin1ELi1ELi1ELin1EEEEEKNS_12SparseVectorIdLi1EiEEEEEC2Ev
000000000041de62 W _ZN5Eigen8internal14evaluator_baseINS_13CwiseBinaryOpINS0_17scalar_product_opIddEEKNS_14CwiseNullaryOpINS0_18scalar_constant_opIdEEKNS_6MatrixIdLi1ELin1ELi1ELi1ELin1EEEEEKNS_12SparseVectorIdLi1EiEEEEED1Ev
000000000041de62 W _ZN5Eigen8internal14evaluator_baseINS_13CwiseBinaryOpINS0_17scalar_product_opIddEEKNS_14CwiseNullaryOpINS0_18scalar_constant_opIdEEKNS_6MatrixIdLi1ELin1ELi1ELi1ELin1EEEEEKNS_12SparseVectorIdLi1EiEEEEED2Ev
00000000003dd608 W _ZN5Eigen8internal14evaluator_baseINS_13CwiseBinaryOpINS0_17scalar_product_opIddEEKNS_14CwiseNullaryOpINS0_18scalar_constant_opIdEEKNS_6MatrixIdLi1ELin1ELi1ELi1ELin1EEEEEKNS_9TransposeIKNS2_INS0_20scalar_difference_opIddEEKNS8_IdLin1ELi1ELi0ELin1ELi1EEESH_EEEEEEEC1Ev
00000000003dd608 W _ZN5Eigen8internal14evaluator_baseINS_13CwiseBinaryOpINS0_17scalar_product_opIddEEKNS_14CwiseNullaryOpINS0_18scalar_constant_opIdEEKNS_6MatrixIdLi1ELin1ELi1ELi1ELin1EEEEEKNS_9TransposeIKNS2_INS0_20scalar_difference_opIddEEKNS8_IdLin1ELi1ELi0ELin1ELi1EEESH_EEEEEEEC2Ev
00000000003dba90 W _ZN5Eigen8internal14evaluator_baseINS_13CwiseBinaryOpINS0_17scalar_product_opIddEEKNS_14CwiseNullaryOpINS0_18scalar_constant_opIdEEKNS_6MatrixIdLi1ELin1ELi1ELi1ELin1EEEEEKNS_9TransposeIKNS2_INS0_20scalar_difference_opIddEEKNS8_IdLin1ELi1ELi0ELin1ELi1EEESH_EEEEEEED1Ev
00000000003dba90 W _ZN5Eigen8internal14evaluator_baseINS_13CwiseBinaryOpINS0_17scalar_product_opIddEEKNS_14CwiseNullaryOpINS0_18scalar_constant_opIdEEKNS_6MatrixIdLi1ELin1ELi1ELi1ELin1EEEEEKNS_9TransposeIKNS2_INS0_20scalar_difference_opIddEEKNS8_IdLin1ELi1ELi0ELin1ELi1EEESH_EEEEEEED2Ev
00000000003b5804 W _ZN5Eigen8internal14evaluator_baseINS_13CwiseBinaryOpINS0_17scalar_product_opIddEEKNS_14CwiseNullaryOpINS0_18scalar_constant_opIdEEKNS_6MatrixIdLi2ELi1ELi0ELi2ELi1EEEEESA_EEEC1Ev
00000000003b5804 W _ZN5Eigen8internal14evaluator_baseINS_13CwiseBinaryOpINS0_17scalar_product_opIddEEKNS_14CwiseNullaryOpINS0_18scalar_constant_opIdEEKNS_6MatrixIdLi2ELi1ELi0ELi2ELi1EEEEESA_EEEC2Ev
00000000003b4248 W _ZN5Eigen8internal14evaluator_baseINS_13CwiseBinaryOpINS0_17scalar_product_opIddEEKNS_14CwiseNullaryOpINS0_18scalar_constant_opIdEEKNS_6MatrixIdLi2ELi1ELi0ELi2ELi1EEEEESA_EEED1Ev
00000000003b4248 W _ZN5Eigen8internal14evaluator_baseINS_13CwiseBinaryOpINS0_17scalar_product_opIddEEKNS_14CwiseNullaryOpINS0_18scalar_constant_opIdEEKNS_6MatrixIdLi2ELi1ELi0ELi2ELi1EEEEESA_EEED2Ev
00000000003f8d24 W _ZN5Eigen8internal14evaluator_baseINS_13CwiseBinaryOpINS0_17scalar_product_opIddEEKNS_14CwiseNullaryOpINS0_18scalar_constant_opIdEEKNS_6MatrixIdLi3ELi1ELi0ELi3ELi1EEEEEKNS2_INS0_20scalar_difference_opIddEEKNS2_IS4_SC_KNS_5BlockIKNS5_INS0_18scalar_identity_opIdEENS8_IdLi3ELi3ELi0ELi3ELi3EEEEELi3ELi1ELb0EEEEEKNS2_IS4_SC_SA_EEEEEEEC1Ev
00000000003f8d24 W _ZN5Eigen8internal14evaluator_baseINS_13CwiseBinaryOpINS0_17scalar_product_opIddEEKNS_14CwiseNullaryOpINS0_18scalar_constant_opIdEEKNS_6MatrixIdLi3ELi1ELi0ELi3ELi1EEEEEKNS2_INS0_20scalar_difference_opIddEEKNS2_IS4_SC_KNS_5BlockIKNS5_INS0_18scalar_identity_opIdEENS8_IdLi3ELi3ELi0ELi3ELi3EEEEELi3ELi1ELb0EEEEEKNS2_IS4_SC_SA_EEEEEEEC2Ev
00000000003f6854 W _ZN5Eigen8internal14evaluator_baseINS_13CwiseBinaryOpINS0_17scalar_product_opIddEEKNS_14CwiseNullaryOpINS0_18scalar_constant_opIdEEKNS_6MatrixIdLi3ELi1ELi0ELi3ELi1EEEEEKNS2_INS0_20scalar_difference_opIddEEKNS2_IS4_SC_KNS_5BlockIKNS5_INS0_18scalar_identity_opIdEENS8_IdLi3ELi3ELi0ELi3ELi3EEEEELi3ELi1ELb0EEEEEKNS2_IS4_SC_SA_EEEEEEED1Ev
00000000003f6854 W _ZN5Eigen8internal14evaluator_baseINS_13CwiseBinaryOpINS0_17scalar_product_opIddEEKNS_14CwiseNullaryOpINS0_18scalar_constant_opIdEEKNS_6MatrixIdLi3ELi1ELi0ELi3ELi1EEEEEKNS2_INS0_20scalar_difference_opIddEEKNS2_IS4_SC_KNS_5BlockIKNS5_INS0_18scalar_identity_opIdEENS8_IdLi3ELi3ELi0ELi3ELi3EEEEELi3ELi1ELb0EEEEEKNS2_IS4_SC_SA_EEEEEEED2Ev
00000000003f9cf8 W _ZN5Eigen8internal14evaluator_baseINS_13CwiseBinaryOpINS0_17scalar_product_opIddEEKNS_14CwiseNullaryOpINS0_18scalar_constant_opIdEEKNS_6MatrixIdLi3ELi1ELi0ELi3ELi1EEEEEKNS_5BlockIKNS5_INS0_18scalar_identity_opIdEENS8_IdLi3ELi3ELi0ELi3ELi3EEEEELi3ELi1ELb0EEEEEEC1Ev
00000000003f9cf8 W _ZN5Eigen8internal14evaluator_baseINS_13CwiseBinaryOpINS0_17scalar_product_opIddEEKNS_14CwiseNullaryOpINS0_18scalar_constant_opIdEEKNS_6MatrixIdLi3ELi1ELi0ELi3ELi1EEEEEKNS_5BlockIKNS5_INS0_18scalar_identity_opIdEENS8_IdLi3ELi3ELi0ELi3ELi3EEEEELi3ELi1ELb0EEEEEEC2Ev
00000000003f688c W _ZN5Eigen8internal14evaluator_baseINS_13CwiseBinaryOpINS0_17scalar_product_opIddEEKNS_14CwiseNullaryOpINS0_18scalar_constant_opIdEEKNS_6MatrixIdLi3ELi1ELi0ELi3ELi1EEEEEKNS_5BlockIKNS5_INS0_18scalar_identity_opIdEENS8_IdLi3ELi3ELi0ELi3ELi3EEEEELi3ELi1ELb0EEEEEED1Ev
00000000003f688c W _ZN5Eigen8internal14evaluator_baseINS_13CwiseBinaryOpINS0_17scalar_product_opIddEEKNS_14CwiseNullaryOpINS0_18scalar_constant_opIdEEKNS_6MatrixIdLi3ELi1ELi0ELi3ELi1EEEEEKNS_5BlockIKNS5_INS0_18scalar_identity_opIdEENS8_IdLi3ELi3ELi0ELi3ELi3EEEEELi3ELi1ELb0EEEEEED2Ev
00000000003a4b30 W _ZN5Eigen8internal14evaluator_baseINS_13CwiseBinaryOpINS0_17scalar_product_opIddEEKNS_14CwiseNullaryOpINS0_18scalar_constant_opIdEEKNS_6MatrixIdLi3ELi1ELi0ELi3ELi1EEEEESA_EEEC1Ev
00000000003a4b30 W _ZN5Eigen8internal14evaluator_baseINS_13CwiseBinaryOpINS0_17scalar_product_opIddEEKNS_14CwiseNullaryOpINS0_18scalar_constant_opIdEEKNS_6MatrixIdLi3ELi1ELi0ELi3ELi1EEEEESA_EEEC2Ev
00000000003981e4 W _ZN5Eigen8internal14evaluator_baseINS_13CwiseBinaryOpINS0_17scalar_product_opIddEEKNS_14CwiseNullaryOpINS0_18scalar_constant_opIdEEKNS_6MatrixIdLi3ELi1ELi0ELi3ELi1EEEEESA_EEED1Ev
00000000003981e4 W _ZN5Eigen8internal14evaluator_baseINS_13CwiseBinaryOpINS0_17scalar_product_opIddEEKNS_14CwiseNullaryOpINS0_18scalar_constant_opIdEEKNS_6MatrixIdLi3ELi1ELi0ELi3ELi1EEEEESA_EEED2Ev
000000000040768a W _ZN5Eigen8internal14evaluator_baseINS_13CwiseBinaryOpINS0_17scalar_product_opIddEEKNS_14CwiseNullaryOpINS0_18scalar_constant_opIdEEKNS_6MatrixIdLin1ELi1ELi0ELin1ELi1EEEEEKNS2_INS0_13scalar_sum_opIddEEKNS2_IS4_SC_SA_EESA_EEEEEC1Ev
000000000040768a W _ZN5Eigen8internal14evaluator_baseINS_13CwiseBinaryOpINS0_17scalar_product_opIddEEKNS_14CwiseNullaryOpINS0_18scalar_constant_opIdEEKNS_6MatrixIdLin1ELi1ELi0ELin1ELi1EEEEEKNS2_INS0_13scalar_sum_opIddEEKNS2_IS4_SC_SA_EESA_EEEEEC2Ev
00000000004030a0 W _ZN5Eigen8internal14evaluator_baseINS_13CwiseBinaryOpINS0_17scalar_product_opIddEEKNS_14CwiseNullaryOpINS0_18scalar_constant_opIdEEKNS_6MatrixIdLin1ELi1ELi0ELin1ELi1EEEEEKNS2_INS0_13scalar_sum_opIddEEKNS2_IS4_SC_SA_EESA_EEEEED1Ev
00000000004030a0 W _ZN5Eigen8internal14evaluator_baseINS_13CwiseBinaryOpINS0_17scalar_product_opIddEEKNS_14CwiseNullaryOpINS0_18scalar_constant_opIdEEKNS_6MatrixIdLin1ELi1ELi0ELin1ELi1EEEEEKNS2_INS0_13scalar_sum_opIddEEKNS2_IS4_SC_SA_EESA_EEEEED2Ev
0000000000406bdc W _ZN5Eigen8internal14evaluator_baseINS_13CwiseBinaryOpINS0_17scalar_product_opIddEEKNS_14CwiseNullaryOpINS0_18scalar_constant_opIdEEKNS_6MatrixIdLin1ELi1ELi0ELin1ELi1EEEEEKNS2_INS0_13scalar_sum_opIddEEKNS2_ISE_KNS2_INS0_20scalar_difference_opIddEEKNS2_IS4_SC_SA_EESI_EESI_EESI_EEEEEC1Ev
0000000000406bdc W _ZN5Eigen8internal14evaluator_baseINS_13CwiseBinaryOpINS0_17scalar_product_opIddEEKNS_14CwiseNullaryOpINS0_18scalar_constant_opIdEEKNS_6MatrixIdLin1ELi1ELi0ELin1ELi1EEEEEKNS2_INS0_13scalar_sum_opIddEEKNS2_ISE_KNS2_INS0_20scalar_difference_opIddEEKNS2_IS4_SC_SA_EESI_EESI_EESI_EEEEEC2Ev
00000000004032c4 W _ZN5Eigen8internal14evaluator_baseINS_13CwiseBinaryOpINS0_17scalar_product_opIddEEKNS_14CwiseNullaryOpINS0_18scalar_constant_opIdEEKNS_6MatrixIdLin1ELi1ELi0ELin1ELi1EEEEEKNS2_INS0_13scalar_sum_opIddEEKNS2_ISE_KNS2_INS0_20scalar_difference_opIddEEKNS2_IS4_SC_SA_EESI_EESI_EESI_EEEEED1Ev
00000000004032c4 W _ZN5Eigen8internal14evaluator_baseINS_13CwiseBinaryOpINS0_17scalar_product_opIddEEKNS_14CwiseNullaryOpINS0_18scalar_constant_opIdEEKNS_6MatrixIdLin1ELi1ELi0ELin1ELi1EEEEEKNS2_INS0_13scalar_sum_opIddEEKNS2_ISE_KNS2_INS0_20scalar_difference_opIddEEKNS2_IS4_SC_SA_EESI_EESI_EESI_EEEEED2Ev
000000000040700e W _ZN5Eigen8internal14evaluator_baseINS_13CwiseBinaryOpINS0_17scalar_product_opIddEEKNS_14CwiseNullaryOpINS0_18scalar_constant_opIdEEKNS_6MatrixIdLin1ELi1ELi0ELin1ELi1EEEEEKNS2_INS0_13scalar_sum_opIddEESA_SA_EEEEEC1Ev
000000000040700e W _ZN5Eigen8internal14evaluator_baseINS_13CwiseBinaryOpINS0_17scalar_product_opIddEEKNS_14CwiseNullaryOpINS0_18scalar_constant_opIdEEKNS_6MatrixIdLin1ELi1ELi0ELin1ELi1EEEEEKNS2_INS0_13scalar_sum_opIddEESA_SA_EEEEEC2Ev
0000000000402ef0 W _ZN5Eigen8internal14evaluator_baseINS_13CwiseBinaryOpINS0_17scalar_product_opIddEEKNS_14CwiseNullaryOpINS0_18scalar_constant_opIdEEKNS_6MatrixIdLin1ELi1ELi0ELin1ELi1EEEEEKNS2_INS0_13scalar_sum_opIddEESA_SA_EEEEED1Ev
0000000000402ef0 W _ZN5Eigen8internal14evaluator_baseINS_13CwiseBinaryOpINS0_17scalar_product_opIddEEKNS_14CwiseNullaryOpINS0_18scalar_constant_opIdEEKNS_6MatrixIdLin1ELi1ELi0ELin1ELi1EEEEEKNS2_INS0_13scalar_sum_opIddEESA_SA_EEEEED2Ev
000000000040bde0 W _ZN5Eigen8internal14evaluator_baseINS_13CwiseBinaryOpINS0_17scalar_product_opIddEEKNS_14CwiseNullaryOpINS0_18scalar_constant_opIdEEKNS_6MatrixIdLin1ELi1ELi0ELin1ELi1EEEEEKNS2_INS0_20scalar_difference_opIddEESA_KNS2_IS4_SC_SA_EEEEEEEC1Ev
000000000040bde0 W _ZN5Eigen8internal14evaluator_baseINS_13CwiseBinaryOpINS0_17scalar_product_opIddEEKNS_14CwiseNullaryOpINS0_18scalar_constant_opIdEEKNS_6MatrixIdLin1ELi1ELi0ELin1ELi1EEEEEKNS2_INS0_20scalar_difference_opIddEESA_KNS2_IS4_SC_SA_EEEEEEEC2Ev
000000000040b9d2 W _ZN5Eigen8internal14evaluator_baseINS_13CwiseBinaryOpINS0_17scalar_product_opIddEEKNS_14CwiseNullaryOpINS0_18scalar_constant_opIdEEKNS_6MatrixIdLin1ELi1ELi0ELin1ELi1EEEEEKNS2_INS0_20scalar_difference_opIddEESA_KNS2_IS4_SC_SA_EEEEEEED1Ev
000000000040b9d2 W _ZN5Eigen8internal14evaluator_baseINS_13CwiseBinaryOpINS0_17scalar_product_opIddEEKNS_14CwiseNullaryOpINS0_18scalar_constant_opIdEEKNS_6MatrixIdLin1ELi1ELi0ELin1ELi1EEEEEKNS2_INS0_20scalar_difference_opIddEESA_KNS2_IS4_SC_SA_EEEEEEED2Ev
0000000000406f3a W _ZN5Eigen8internal14evaluator_baseINS_13CwiseBinaryOpINS0_17scalar_product_opIddEEKNS_14CwiseNullaryOpINS0_18scalar_constant_opIdEEKNS_6MatrixIdLin1ELi1ELi0ELin1ELi1EEEEEKNS2_INS0_20scalar_difference_opIddEESA_SA_EEEEEC1Ev
0000000000406f3a W _ZN5Eigen8internal14evaluator_baseINS_13CwiseBinaryOpINS0_17scalar_product_opIddEEKNS_14CwiseNullaryOpINS0_18scalar_constant_opIdEEKNS_6MatrixIdLin1ELi1ELi0ELin1ELi1EEEEEKNS2_INS0_20scalar_difference_opIddEESA_SA_EEEEEC2Ev
00000000004039ea W _ZN5Eigen8internal14evaluator_baseINS_13CwiseBinaryOpINS0_17scalar_product_opIddEEKNS_14CwiseNullaryOpINS0_18scalar_constant_opIdEEKNS_6MatrixIdLin1ELi1ELi0ELin1ELi1EEEEEKNS2_INS0_20scalar_difference_opIddEESA_SA_EEEEED1Ev
00000000004039ea W _ZN5Eigen8internal14evaluator_baseINS_13CwiseBinaryOpINS0_17scalar_product_opIddEEKNS_14CwiseNullaryOpINS0_18scalar_constant_opIdEEKNS_6MatrixIdLin1ELi1ELi0ELin1ELi1EEEEEKNS2_INS0_20scalar_difference_opIddEESA_SA_EEEEED2Ev
000000000036190c W _ZN5Eigen8internal14evaluator_baseINS_13CwiseBinaryOpINS0_17scalar_product_opIddEEKNS_14CwiseNullaryOpINS0_18scalar_constant_opIdEEKNS_6MatrixIdLin1ELi1ELi0ELin1ELi1EEEEESA_EEEC1Ev
000000000036190c W _ZN5Eigen8internal14evaluator_baseINS_13CwiseBinaryOpINS0_17scalar_product_opIddEEKNS_14CwiseNullaryOpINS0_18scalar_constant_opIdEEKNS_6MatrixIdLin1ELi1ELi0ELin1ELi1EEEEESA_EEEC2Ev
000000000035fe40 W _ZN5Eigen8internal14evaluator_baseINS_13CwiseBinaryOpINS0_17scalar_product_opIddEEKNS_14CwiseNullaryOpINS0_18scalar_constant_opIdEEKNS_6MatrixIdLin1ELi1ELi0ELin1ELi1EEEEESA_EEED1Ev
000000000035fe40 W _ZN5Eigen8internal14evaluator_baseINS_13CwiseBinaryOpINS0_17scalar_product_opIddEEKNS_14CwiseNullaryOpINS0_18scalar_constant_opIdEEKNS_6MatrixIdLin1ELi1ELi0ELin1ELi1EEEEESA_EEED2Ev
000000000039d64a W _ZN5Eigen8internal14evaluator_baseINS_13CwiseBinaryOpINS0_17scalar_product_opIddEEKNS_14CwiseNullaryOpINS0_18scalar_constant_opIdEEKNS_6MatrixIdLin1ELin1ELi1ELin1ELin1EEEEEKNS_12SparseMatrixIdLi1EiEEEEEC1Ev
000000000039d64a W _ZN5Eigen8internal14evaluator_baseINS_13CwiseBinaryOpINS0_17scalar_product_opIddEEKNS_14CwiseNullaryOpINS0_18scalar_constant_opIdEEKNS_6MatrixIdLin1ELin1ELi1ELin1ELin1EEEEEKNS_12SparseMatrixIdLi1EiEEEEEC2Ev
0000000000396038 W _ZN5Eigen8internal14evaluator_baseINS_13CwiseBinaryOpINS0_17scalar_product_opIddEEKNS_14CwiseNullaryOpINS0_18scalar_constant_opIdEEKNS_6MatrixIdLin1ELin1ELi1ELin1ELin1EEEEEKNS_12SparseMatrixIdLi1EiEEEEED1Ev
0000000000396038 W _ZN5Eigen8internal14evaluator_baseINS_13CwiseBinaryOpINS0_17scalar_product_opIddEEKNS_14CwiseNullaryOpINS0_18scalar_constant_opIdEEKNS_6MatrixIdLin1ELin1ELi1ELin1ELin1EEEEEKNS_12SparseMatrixIdLi1EiEEEEED2Ev
000000000042ce0e W _ZN5Eigen8internal14evaluator_baseINS_13CwiseBinaryOpINS0_17scalar_product_opIddEEKNS2_IS4_KNS_14CwiseNullaryOpINS0_18scalar_constant_opIdEEKNS_6MatrixIdLi1ELin1ELi1ELi1ELin1EEEEEKNS_12SparseVectorIdLi1EiEEEESC_EEEC1Ev
000000000042ce0e W _ZN5Eigen8internal14evaluator_baseINS_13CwiseBinaryOpINS0_17scalar_product_opIddEEKNS2_IS4_KNS_14CwiseNullaryOpINS0_18scalar_constant_opIdEEKNS_6MatrixIdLi1ELin1ELi1ELi1ELin1EEEEEKNS_12SparseVectorIdLi1EiEEEESC_EEEC2Ev
00000000004281e2 W _ZN5Eigen8internal14evaluator_baseINS_13CwiseBinaryOpINS0_17scalar_product_opIddEEKNS2_IS4_KNS_14CwiseNullaryOpINS0_18scalar_constant_opIdEEKNS_6MatrixIdLi1ELin1ELi1ELi1ELin1EEEEEKNS_12SparseVectorIdLi1EiEEEESC_EEED1Ev
00000000004281e2 W _ZN5Eigen8internal14evaluator_baseINS_13CwiseBinaryOpINS0_17scalar_product_opIddEEKNS2_IS4_KNS_14CwiseNullaryOpINS0_18scalar_constant_opIdEEKNS_6MatrixIdLi1ELin1ELi1ELi1ELin1EEEEEKNS_12SparseVectorIdLi1EiEEEESC_EEED2Ev
00000000003f8b9c W _ZN5Eigen8internal14evaluator_baseINS_13CwiseBinaryOpINS0_17scalar_product_opIddEEKNS_6MatrixIdLi3ELi1ELi0ELi3ELi1EEES7_EEEC1Ev
00000000003f8b9c W _ZN5Eigen8internal14evaluator_baseINS_13CwiseBinaryOpINS0_17scalar_product_opIddEEKNS_6MatrixIdLi3ELi1ELi0ELi3ELi1EEES7_EEEC2Ev
00000000003f656a W _ZN5Eigen8internal14evaluator_baseINS_13CwiseBinaryOpINS0_17scalar_product_opIddEEKNS_6MatrixIdLi3ELi1ELi0ELi3ELi1EEES7_EEED1Ev
00000000003f656a W _ZN5Eigen8internal14evaluator_baseINS_13CwiseBinaryOpINS0_17scalar_product_opIddEEKNS_6MatrixIdLi3ELi1ELi0ELi3ELi1EEES7_EEED2Ev
000000000035463a W _ZN5Eigen8internal14evaluator_baseINS_13CwiseBinaryOpINS0_17scalar_product_opIddEEKNS_9TransposeIKNS_5BlockIKNS_6MatrixIdLi3ELi3ELi0ELi3ELi3EEELi1ELi3ELb0EEEEEKNS6_IKNS7_IdLi3ELi1ELi0ELi3ELi1EEELi3ELi1ELb1EEEEEEC1Ev
000000000035463a W _ZN5Eigen8internal14evaluator_baseINS_13CwiseBinaryOpINS0_17scalar_product_opIddEEKNS_9TransposeIKNS_5BlockIKNS_6MatrixIdLi3ELi3ELi0ELi3ELi3EEELi1ELi3ELb0EEEEEKNS6_IKNS7_IdLi3ELi1ELi0ELi3ELi1EEELi3ELi1ELb1EEEEEEC2Ev
000000000035383c W _ZN5Eigen8internal14evaluator_baseINS_13CwiseBinaryOpINS0_17scalar_product_opIddEEKNS_9TransposeIKNS_5BlockIKNS_6MatrixIdLi3ELi3ELi0ELi3ELi3EEELi1ELi3ELb0EEEEEKNS6_IKNS7_IdLi3ELi1ELi0ELi3ELi1EEELi3ELi1ELb1EEEEEED1Ev
000000000035383c W _ZN5Eigen8internal14evaluator_baseINS_13CwiseBinaryOpINS0_17scalar_product_opIddEEKNS_9TransposeIKNS_5BlockIKNS_6MatrixIdLi3ELi3ELi0ELi3ELi3EEELi1ELi3ELb0EEEEEKNS6_IKNS7_IdLi3ELi1ELi0ELi3ELi1EEELi3ELi1ELb1EEEEEED2Ev
00000000003a803a W _ZN5Eigen8internal14evaluator_baseINS_13CwiseBinaryOpINS0_17scalar_product_opIddEEKNS_9TransposeIKNS_5BlockIKNS_6MatrixIdLin1ELi3ELi0ELin1ELi3EEELi1ELi3ELb0EEEEEKNS6_IKNS7_IdLi3ELi1ELi0ELi3ELi1EEELi3ELi1ELb1EEEEEEC1Ev
00000000003a803a W _ZN5Eigen8internal14evaluator_baseINS_13CwiseBinaryOpINS0_17scalar_product_opIddEEKNS_9TransposeIKNS_5BlockIKNS_6MatrixIdLin1ELi3ELi0ELin1ELi3EEELi1ELi3ELb0EEEEEKNS6_IKNS7_IdLi3ELi1ELi0ELi3ELi1EEELi3ELi1ELb1EEEEEEC2Ev
00000000003a637c W _ZN5Eigen8internal14evaluator_baseINS_13CwiseBinaryOpINS0_17scalar_product_opIddEEKNS_9TransposeIKNS_5BlockIKNS_6MatrixIdLin1ELi3ELi0ELin1ELi3EEELi1ELi3ELb0EEEEEKNS6_IKNS7_IdLi3ELi1ELi0ELi3ELi1EEELi3ELi1ELb1EEEEEED1Ev
00000000003a637c W _ZN5Eigen8internal14evaluator_baseINS_13CwiseBinaryOpINS0_17scalar_product_opIddEEKNS_9TransposeIKNS_5BlockIKNS_6MatrixIdLin1ELi3ELi0ELin1ELi3EEELi1ELi3ELb0EEEEEKNS6_IKNS7_IdLi3ELi1ELi0ELi3ELi1EEELi3ELi1ELb1EEEEEED2Ev
00000000003bb3f0 W _ZN5Eigen8internal14evaluator_baseINS_13CwiseBinaryOpINS0_17scalar_product_opIddEEKNS_9TransposeIKNS5_INS_6MatrixIdLi3ELi1ELi0ELi3ELi1EEEEEEEKNS2_INS0_13scalar_sum_opIddEEKS7_KNS2_IS4_KNS_14CwiseNullaryOpINS0_18scalar_constant_opIdEESE_EESE_EEEEEEEC1Ev
00000000003bb3f0 W _ZN5Eigen8internal14evaluator_baseINS_13CwiseBinaryOpINS0_17scalar_product_opIddEEKNS_9TransposeIKNS5_INS_6MatrixIdLi3ELi1ELi0ELi3ELi1EEEEEEEKNS2_INS0_13scalar_sum_opIddEEKS7_KNS2_IS4_KNS_14CwiseNullaryOpINS0_18scalar_constant_opIdEESE_EESE_EEEEEEEC2Ev
00000000003ba5bc W _ZN5Eigen8internal14evaluator_baseINS_13CwiseBinaryOpINS0_17scalar_product_opIddEEKNS_9TransposeIKNS5_INS_6MatrixIdLi3ELi1ELi0ELi3ELi1EEEEEEEKNS2_INS0_13scalar_sum_opIddEEKS7_KNS2_IS4_KNS_14CwiseNullaryOpINS0_18scalar_constant_opIdEESE_EESE_EEEEEEED1Ev
00000000003ba5bc W _ZN5Eigen8internal14evaluator_baseINS_13CwiseBinaryOpINS0_17scalar_product_opIddEEKNS_9TransposeIKNS5_INS_6MatrixIdLi3ELi1ELi0ELi3ELi1EEEEEEEKNS2_INS0_13scalar_sum_opIddEEKS7_KNS2_IS4_KNS_14CwiseNullaryOpINS0_18scalar_constant_opIdEESE_EESE_EEEEEEED2Ev
00000000003bb2b2 W _ZN5Eigen8internal14evaluator_baseINS_13CwiseBinaryOpINS0_17scalar_product_opIddEEKNS_9TransposeIKNS5_INS_6MatrixIdLi3ELi1ELi0ELi3ELi1EEEEEEEKNS2_INS0_20scalar_difference_opIddEEKS7_KNS2_IS4_KNS_14CwiseNullaryOpINS0_18scalar_constant_opIdEESE_EESE_EEEEEEEC1Ev
00000000003bb2b2 W _ZN5Eigen8internal14evaluator_baseINS_13CwiseBinaryOpINS0_17scalar_product_opIddEEKNS_9TransposeIKNS5_INS_6MatrixIdLi3ELi1ELi0ELi3ELi1EEEEEEEKNS2_INS0_20scalar_difference_opIddEEKS7_KNS2_IS4_KNS_14CwiseNullaryOpINS0_18scalar_constant_opIdEESE_EESE_EEEEEEEC2Ev
00000000003ba290 W _ZN5Eigen8internal14evaluator_baseINS_13CwiseBinaryOpINS0_17scalar_product_opIddEEKNS_9TransposeIKNS5_INS_6MatrixIdLi3ELi1ELi0ELi3ELi1EEEEEEEKNS2_INS0_20scalar_difference_opIddEEKS7_KNS2_IS4_KNS_14CwiseNullaryOpINS0_18scalar_constant_opIdEESE_EESE_EEEEEEED1Ev
00000000003ba290 W _ZN5Eigen8internal14evaluator_baseINS_13CwiseBinaryOpINS0_17scalar_product_opIddEEKNS_9TransposeIKNS5_INS_6MatrixIdLi3ELi1ELi0ELi3ELi1EEEEEEEKNS2_INS0_20scalar_difference_opIddEEKS7_KNS2_IS4_KNS_14CwiseNullaryOpINS0_18scalar_constant_opIdEESE_EESE_EEEEEEED2Ev
00000000003bb174 W _ZN5Eigen8internal14evaluator_baseINS_13CwiseBinaryOpINS0_17scalar_product_opIddEEKNS_9TransposeIKNS5_INS_6MatrixIdLi3ELi1ELi0ELi3ELi1EEEEEEEKS7_EEEC1Ev
00000000003bb174 W _ZN5Eigen8internal14evaluator_baseINS_13CwiseBinaryOpINS0_17scalar_product_opIddEEKNS_9TransposeIKNS5_INS_6MatrixIdLi3ELi1ELi0ELi3ELi1EEEEEEEKS7_EEEC2Ev
00000000003b9f1e W _ZN5Eigen8internal14evaluator_baseINS_13CwiseBinaryOpINS0_17scalar_product_opIddEEKNS_9TransposeIKNS5_INS_6MatrixIdLi3ELi1ELi0ELi3ELi1EEEEEEEKS7_EEED1Ev
00000000003b9f1e W _ZN5Eigen8internal14evaluator_baseINS_13CwiseBinaryOpINS0_17scalar_product_opIddEEKNS_9TransposeIKNS5_INS_6MatrixIdLi3ELi1ELi0ELi3ELi1EEEEEEEKS7_EEED2Ev
00000000003dc7fe W _ZN5Eigen8internal14evaluator_baseINS_13CwiseBinaryOpINS0_17scalar_product_opIddEEKNS_9TransposeIKNS_7ProductINS2_IS4_KNS_14CwiseNullaryOpINS0_18scalar_constant_opIdEEKNS_6MatrixIdLi1ELin1ELi1ELi1ELin1EEEEEKNS5_IKNS2_INS0_20scalar_difference_opIddEEKNSA_IdLin1ELi1ELi0ELin1ELi1EEESI_EEEEEENS_15DiagonalWrapperISI_EELi1EEEEESK_EEEC1Ev
00000000003dc7fe W _ZN5Eigen8internal14evaluator_baseINS_13CwiseBinaryOpINS0_17scalar_product_opIddEEKNS_9TransposeIKNS_7ProductINS2_IS4_KNS_14CwiseNullaryOpINS0_18scalar_constant_opIdEEKNS_6MatrixIdLi1ELin1ELi1ELi1ELin1EEEEEKNS5_IKNS2_INS0_20scalar_difference_opIddEEKNSA_IdLin1ELi1ELi0ELin1ELi1EEESI_EEEEEENS_15DiagonalWrapperISI_EELi1EEEEESK_EEEC2Ev
00000000003dba3c W _ZN5Eigen8internal14evaluator_baseINS_13CwiseBinaryOpINS0_17scalar_product_opIddEEKNS_9TransposeIKNS_7ProductINS2_IS4_KNS_14CwiseNullaryOpINS0_18scalar_constant_opIdEEKNS_6MatrixIdLi1ELin1ELi1ELi1ELin1EEEEEKNS5_IKNS2_INS0_20scalar_difference_opIddEEKNSA_IdLin1ELi1ELi0ELin1ELi1EEESI_EEEEEENS_15DiagonalWrapperISI_EELi1EEEEESK_EEED1Ev
00000000003dba3c W _ZN5Eigen8internal14evaluator_baseINS_13CwiseBinaryOpINS0_17scalar_product_opIddEEKNS_9TransposeIKNS_7ProductINS2_IS4_KNS_14CwiseNullaryOpINS0_18scalar_constant_opIdEEKNS_6MatrixIdLi1ELin1ELi1ELi1ELin1EEEEEKNS5_IKNS2_INS0_20scalar_difference_opIddEEKNSA_IdLin1ELi1ELi0ELin1ELi1EEESI_EEEEEENS_15DiagonalWrapperISI_EELi1EEEEESK_EEED2Ev
0000000000404960 W _ZN5Eigen8internal14evaluator_baseINS_13CwiseBinaryOpINS0_18scalar_quotient_opIddEEKNS_12CwiseUnaryOpINS0_18scalar_opposite_opIdEEKNS2_INS0_13scalar_sum_opIddEEKNS2_INS0_17scalar_product_opIddEEKNS_14CwiseNullaryOpINS0_18scalar_constant_opIdEEKNS_6MatrixIdLin1ELi1ELi0ELin1ELi1EEEEEKNS2_INS0_20scalar_difference_opIddEESH_SH_EEEEKNS2_ISB_SJ_KNS2_IS9_KNS2_ISB_SJ_SH_EESH_EEEEEEEESJ_EEEC1Ev
0000000000404960 W _ZN5Eigen8internal14evaluator_baseINS_13CwiseBinaryOpINS0_18scalar_quotient_opIddEEKNS_12CwiseUnaryOpINS0_18scalar_opposite_opIdEEKNS2_INS0_13scalar_sum_opIddEEKNS2_INS0_17scalar_product_opIddEEKNS_14CwiseNullaryOpINS0_18scalar_constant_opIdEEKNS_6MatrixIdLin1ELi1ELi0ELin1ELi1EEEEEKNS2_INS0_20scalar_difference_opIddEESH_SH_EEEEKNS2_ISB_SJ_KNS2_IS9_KNS2_ISB_SJ_SH_EESH_EEEEEEEESJ_EEEC2Ev
0000000000403996 W _ZN5Eigen8internal14evaluator_baseINS_13CwiseBinaryOpINS0_18scalar_quotient_opIddEEKNS_12CwiseUnaryOpINS0_18scalar_opposite_opIdEEKNS2_INS0_13scalar_sum_opIddEEKNS2_INS0_17scalar_product_opIddEEKNS_14CwiseNullaryOpINS0_18scalar_constant_opIdEEKNS_6MatrixIdLin1ELi1ELi0ELin1ELi1EEEEEKNS2_INS0_20scalar_difference_opIddEESH_SH_EEEEKNS2_ISB_SJ_KNS2_IS9_KNS2_ISB_SJ_SH_EESH_EEEEEEEESJ_EEED1Ev
0000000000403996 W _ZN5Eigen8internal14evaluator_baseINS_13CwiseBinaryOpINS0_18scalar_quotient_opIddEEKNS_12CwiseUnaryOpINS0_18scalar_opposite_opIdEEKNS2_INS0_13scalar_sum_opIddEEKNS2_INS0_17scalar_product_opIddEEKNS_14CwiseNullaryOpINS0_18scalar_constant_opIdEEKNS_6MatrixIdLin1ELi1ELi0ELin1ELi1EEEEEKNS2_INS0_20scalar_difference_opIddEESH_SH_EEEEKNS2_ISB_SJ_KNS2_IS9_KNS2_ISB_SJ_SH_EESH_EEEEEEEESJ_EEED2Ev
0000000000404b70 W _ZN5Eigen8internal14evaluator_baseINS_13CwiseBinaryOpINS0_18scalar_quotient_opIddEEKNS2_INS0_13scalar_sum_opIddEEKNS2_INS0_17scalar_product_opIddEEKNS_14CwiseNullaryOpINS0_18scalar_constant_opIdEEKNS_6MatrixIdLin1ELi1ELi0ELin1ELi1EEEEEKNS2_INS0_20scalar_difference_opIddEESE_SE_EEEEKNS2_IS8_SG_KNS2_IS6_SE_SE_EEEEEESG_EEEC1Ev
0000000000404b70 W _ZN5Eigen8internal14evaluator_baseINS_13CwiseBinaryOpINS0_18scalar_quotient_opIddEEKNS2_INS0_13scalar_sum_opIddEEKNS2_INS0_17scalar_product_opIddEEKNS_14CwiseNullaryOpINS0_18scalar_constant_opIdEEKNS_6MatrixIdLin1ELi1ELi0ELin1ELi1EEEEEKNS2_INS0_20scalar_difference_opIddEESE_SE_EEEEKNS2_IS8_SG_KNS2_IS6_SE_SE_EEEEEESG_EEEC2Ev
0000000000403d0c W _ZN5Eigen8internal14evaluator_baseINS_13CwiseBinaryOpINS0_18scalar_quotient_opIddEEKNS2_INS0_13scalar_sum_opIddEEKNS2_INS0_17scalar_product_opIddEEKNS_14CwiseNullaryOpINS0_18scalar_constant_opIdEEKNS_6MatrixIdLin1ELi1ELi0ELin1ELi1EEEEEKNS2_INS0_20scalar_difference_opIddEESE_SE_EEEEKNS2_IS8_SG_KNS2_IS6_SE_SE_EEEEEESG_EEED1Ev
0000000000403d0c W _ZN5Eigen8internal14evaluator_baseINS_13CwiseBinaryOpINS0_18scalar_quotient_opIddEEKNS2_INS0_13scalar_sum_opIddEEKNS2_INS0_17scalar_product_opIddEEKNS_14CwiseNullaryOpINS0_18scalar_constant_opIdEEKNS_6MatrixIdLin1ELi1ELi0ELin1ELi1EEEEEKNS2_INS0_20scalar_difference_opIddEESE_SE_EEEEKNS2_IS8_SG_KNS2_IS6_SE_SE_EEEEEESG_EEED2Ev
00000000004074e0 W _ZN5Eigen8internal14evaluator_baseINS_13CwiseBinaryOpINS0_18scalar_quotient_opIddEEKNS2_INS0_17scalar_product_opIddEEKNS_14CwiseNullaryOpINS0_18scalar_constant_opIdEEKNS_6MatrixIdLin1ELi1ELi0ELin1ELi1EEEEEKNS2_INS0_13scalar_sum_opIddEEKNS2_IS6_SE_SC_EESC_EEEESE_EEEC1Ev
00000000004074e0 W _ZN5Eigen8internal14evaluator_baseINS_13CwiseBinaryOpINS0_18scalar_quotient_opIddEEKNS2_INS0_17scalar_product_opIddEEKNS_14CwiseNullaryOpINS0_18scalar_constant_opIdEEKNS_6MatrixIdLin1ELi1ELi0ELin1ELi1EEEEEKNS2_INS0_13scalar_sum_opIddEEKNS2_IS6_SE_SC_EESC_EEEESE_EEEC2Ev
0000000000403084 W _ZN5Eigen8internal14evaluator_baseINS_13CwiseBinaryOpINS0_18scalar_quotient_opIddEEKNS2_INS0_17scalar_product_opIddEEKNS_14CwiseNullaryOpINS0_18scalar_constant_opIdEEKNS_6MatrixIdLin1ELi1ELi0ELin1ELi1EEEEEKNS2_INS0_13scalar_sum_opIddEEKNS2_IS6_SE_SC_EESC_EEEESE_EEED1Ev
0000000000403084 W _ZN5Eigen8internal14evaluator_baseINS_13CwiseBinaryOpINS0_18scalar_quotient_opIddEEKNS2_INS0_17scalar_product_opIddEEKNS_14CwiseNullaryOpINS0_18scalar_constant_opIdEEKNS_6MatrixIdLin1ELi1ELi0ELin1ELi1EEEEEKNS2_INS0_13scalar_sum_opIddEEKNS2_IS6_SE_SC_EESC_EEEESE_EEED2Ev
0000000000405832 W _ZN5Eigen8internal14evaluator_baseINS_13CwiseBinaryOpINS0_18scalar_quotient_opIddEEKNS2_INS0_17scalar_product_opIddEEKNS_14CwiseNullaryOpINS0_18scalar_constant_opIdEEKNS_6MatrixIdLin1ELi1ELi0ELin1ELi1EEEEEKNS2_INS0_13scalar_sum_opIddEEKNS2_ISG_KNS2_INS0_20scalar_difference_opIddEEKNS2_IS6_SE_SC_EESK_EESK_EESK_EEEESE_EEEC1Ev
